ARM GAS  /var/folders/ky/97y1n_614tj15gjp3pmt3wd00000gn/T//cc3mVKw2.s 			page 1


   1              		.cpu cortex-m7
   2              		.arch armv7e-m
   3              		.fpu fpv5-d16
   4              		.eabi_attribute 28, 1
   5              		.eabi_attribute 20, 1
   6              		.eabi_attribute 21, 1
   7              		.eabi_attribute 23, 3
   8              		.eabi_attribute 24, 1
   9              		.eabi_attribute 25, 1
  10              		.eabi_attribute 26, 1
  11              		.eabi_attribute 30, 2
  12              		.eabi_attribute 34, 1
  13              		.eabi_attribute 18, 4
  14              		.file	"MyProj.cpp"
  15              		.text
  16              	.Ltext0:
  17              		.cfi_sections	.debug_frame
  18              		.section	.text._ZN5daisy8DaisyPodD2Ev,"axG",%progbits,_ZN5daisy8DaisyPodD5Ev,comdat
  19              		.align	1
  20              		.p2align 2,,3
  21              		.weak	_ZN5daisy8DaisyPodD2Ev
  22              		.syntax unified
  23              		.thumb
  24              		.thumb_func
  26              	_ZN5daisy8DaisyPodD2Ev:
  27              	.LVL0:
  28              	.LFB2538:
  29              		.file 1 "../../libDaisy//src/daisy_pod.h"
   1:../../libDaisy//src/daisy_pod.h **** #pragma once
   2:../../libDaisy//src/daisy_pod.h **** #ifndef DSY_POD_BSP_H
   3:../../libDaisy//src/daisy_pod.h **** #define DSY_POD_BSP_H
   4:../../libDaisy//src/daisy_pod.h **** 
   5:../../libDaisy//src/daisy_pod.h **** #include "daisy_seed.h"
   6:../../libDaisy//src/daisy_pod.h **** 
   7:../../libDaisy//src/daisy_pod.h **** namespace daisy
   8:../../libDaisy//src/daisy_pod.h **** {
   9:../../libDaisy//src/daisy_pod.h **** /**
  10:../../libDaisy//src/daisy_pod.h ****     @brief Class that handles initializing all of the hardware specific to the Daisy Patch Board. \
  11:../../libDaisy//src/daisy_pod.h ****     Helper funtions are also in place to provide easy access to built-in controls and peripherals.
  12:../../libDaisy//src/daisy_pod.h ****     @author Stephen Hensley
  13:../../libDaisy//src/daisy_pod.h ****     @date November 2019
  14:../../libDaisy//src/daisy_pod.h ****     @ingroup boards
  15:../../libDaisy//src/daisy_pod.h **** */
  16:../../libDaisy//src/daisy_pod.h **** class DaisyPod
  17:../../libDaisy//src/daisy_pod.h **** {
  18:../../libDaisy//src/daisy_pod.h ****   public:
  19:../../libDaisy//src/daisy_pod.h ****     /** Switches */
  20:../../libDaisy//src/daisy_pod.h ****     enum Sw
  21:../../libDaisy//src/daisy_pod.h ****     {
  22:../../libDaisy//src/daisy_pod.h ****         BUTTON_1,    /** & */
  23:../../libDaisy//src/daisy_pod.h ****         BUTTON_2,    /** & */
  24:../../libDaisy//src/daisy_pod.h ****         BUTTON_LAST, /** &  */
  25:../../libDaisy//src/daisy_pod.h ****     };
  26:../../libDaisy//src/daisy_pod.h **** 
  27:../../libDaisy//src/daisy_pod.h ****     /** Knobs */
  28:../../libDaisy//src/daisy_pod.h ****     enum Knob
  29:../../libDaisy//src/daisy_pod.h ****     {
ARM GAS  /var/folders/ky/97y1n_614tj15gjp3pmt3wd00000gn/T//cc3mVKw2.s 			page 2


  30:../../libDaisy//src/daisy_pod.h ****         KNOB_1,    /** &  */
  31:../../libDaisy//src/daisy_pod.h ****         KNOB_2,    /** & */
  32:../../libDaisy//src/daisy_pod.h ****         KNOB_LAST, /** & */
  33:../../libDaisy//src/daisy_pod.h ****     };
  34:../../libDaisy//src/daisy_pod.h **** 
  35:../../libDaisy//src/daisy_pod.h ****     DaisyPod() {}
  36:../../libDaisy//src/daisy_pod.h ****     ~DaisyPod() {}
  30              		.loc 1 36 5 view -0
  31              		.cfi_startproc
  32              		@ args = 0, pretend = 0, frame = 0
  33              		@ frame_needed = 0, uses_anonymous_args = 0
  34              		@ link register save eliminated.
  35              	.LBB280:
  36              	.LBI280:
  37              		.file 2 "../../libDaisy//src/hid/midi.h"
   1:../../libDaisy//src/hid/midi.h **** #pragma once
   2:../../libDaisy//src/hid/midi.h **** #ifndef DSY_MIDI_H
   3:../../libDaisy//src/hid/midi.h **** #define DSY_MIDI_H
   4:../../libDaisy//src/hid/midi.h **** 
   5:../../libDaisy//src/hid/midi.h **** // TODO: make this adjustable
   6:../../libDaisy//src/hid/midi.h **** #define SYSEX_BUFFER_LEN 128
   7:../../libDaisy//src/hid/midi.h **** 
   8:../../libDaisy//src/hid/midi.h **** #include <stdint.h>
   9:../../libDaisy//src/hid/midi.h **** #include <stdlib.h>
  10:../../libDaisy//src/hid/midi.h **** #include "per/uart.h"
  11:../../libDaisy//src/hid/midi.h **** #include "util/ringbuffer.h"
  12:../../libDaisy//src/hid/midi.h **** #include "hid/MidiEvent.h"
  13:../../libDaisy//src/hid/midi.h **** #include "hid/usb_midi.h"
  14:../../libDaisy//src/hid/midi.h **** #include "sys/system.h"
  15:../../libDaisy//src/hid/midi.h **** 
  16:../../libDaisy//src/hid/midi.h **** namespace daisy
  17:../../libDaisy//src/hid/midi.h **** {
  18:../../libDaisy//src/hid/midi.h **** /** @brief   Transport layer for sending and receiving MIDI data over UART 
  19:../../libDaisy//src/hid/midi.h ****  *  @details This is the mode of communication used for TRS and DIN MIDI
  20:../../libDaisy//src/hid/midi.h ****  *  @ingroup midi
  21:../../libDaisy//src/hid/midi.h **** */
  22:../../libDaisy//src/hid/midi.h **** class MidiUartTransport
  23:../../libDaisy//src/hid/midi.h **** {
  24:../../libDaisy//src/hid/midi.h ****   public:
  25:../../libDaisy//src/hid/midi.h ****     MidiUartTransport() {}
  26:../../libDaisy//src/hid/midi.h ****     ~MidiUartTransport() {}
  27:../../libDaisy//src/hid/midi.h **** 
  28:../../libDaisy//src/hid/midi.h ****     struct Config
  29:../../libDaisy//src/hid/midi.h ****     {
  30:../../libDaisy//src/hid/midi.h ****         UartHandler::Config::Peripheral periph;
  31:../../libDaisy//src/hid/midi.h ****         dsy_gpio_pin                    rx;
  32:../../libDaisy//src/hid/midi.h ****         dsy_gpio_pin                    tx;
  33:../../libDaisy//src/hid/midi.h **** 
  34:../../libDaisy//src/hid/midi.h ****         Config()
  35:../../libDaisy//src/hid/midi.h ****         {
  36:../../libDaisy//src/hid/midi.h ****             periph = UartHandler::Config::Peripheral::USART_1;
  37:../../libDaisy//src/hid/midi.h ****             rx     = {DSY_GPIOB, 7};
  38:../../libDaisy//src/hid/midi.h ****             tx     = {DSY_GPIOB, 6};
  39:../../libDaisy//src/hid/midi.h ****         }
  40:../../libDaisy//src/hid/midi.h ****     };
  41:../../libDaisy//src/hid/midi.h **** 
  42:../../libDaisy//src/hid/midi.h ****     inline void Init(Config config)
ARM GAS  /var/folders/ky/97y1n_614tj15gjp3pmt3wd00000gn/T//cc3mVKw2.s 			page 3


  43:../../libDaisy//src/hid/midi.h ****     {
  44:../../libDaisy//src/hid/midi.h ****         UartHandler::Config uart_config;
  45:../../libDaisy//src/hid/midi.h **** 
  46:../../libDaisy//src/hid/midi.h ****         //defaults
  47:../../libDaisy//src/hid/midi.h ****         uart_config.baudrate   = 31250;
  48:../../libDaisy//src/hid/midi.h ****         uart_config.stopbits   = UartHandler::Config::StopBits::BITS_1;
  49:../../libDaisy//src/hid/midi.h ****         uart_config.parity     = UartHandler::Config::Parity::NONE;
  50:../../libDaisy//src/hid/midi.h ****         uart_config.mode       = UartHandler::Config::Mode::TX_RX;
  51:../../libDaisy//src/hid/midi.h ****         uart_config.wordlength = UartHandler::Config::WordLength::BITS_8;
  52:../../libDaisy//src/hid/midi.h **** 
  53:../../libDaisy//src/hid/midi.h ****         //user settings
  54:../../libDaisy//src/hid/midi.h ****         uart_config.periph        = config.periph;
  55:../../libDaisy//src/hid/midi.h ****         uart_config.pin_config.rx = config.rx;
  56:../../libDaisy//src/hid/midi.h ****         uart_config.pin_config.tx = config.tx;
  57:../../libDaisy//src/hid/midi.h **** 
  58:../../libDaisy//src/hid/midi.h ****         uart_.Init(uart_config);
  59:../../libDaisy//src/hid/midi.h ****     }
  60:../../libDaisy//src/hid/midi.h **** 
  61:../../libDaisy//src/hid/midi.h ****     inline void    StartRx() { uart_.StartRx(); }
  62:../../libDaisy//src/hid/midi.h ****     inline size_t  Readable() { return uart_.Readable(); }
  63:../../libDaisy//src/hid/midi.h ****     inline uint8_t Rx() { return uart_.PopRx(); }
  64:../../libDaisy//src/hid/midi.h ****     inline bool    RxActive() { return uart_.RxActive(); }
  65:../../libDaisy//src/hid/midi.h ****     inline void    FlushRx() { uart_.FlushRx(); }
  66:../../libDaisy//src/hid/midi.h ****     inline void    Tx(uint8_t* buff, size_t size) { uart_.PollTx(buff, size); }
  67:../../libDaisy//src/hid/midi.h **** 
  68:../../libDaisy//src/hid/midi.h ****   private:
  69:../../libDaisy//src/hid/midi.h ****     UartHandler uart_;
  70:../../libDaisy//src/hid/midi.h **** };
  71:../../libDaisy//src/hid/midi.h **** 
  72:../../libDaisy//src/hid/midi.h **** /** 
  73:../../libDaisy//src/hid/midi.h ****     @brief Simple MIDI Handler \n 
  74:../../libDaisy//src/hid/midi.h ****     Parses bytes from an input into valid MidiEvents. \n 
  75:../../libDaisy//src/hid/midi.h ****     The MidiEvents fill a FIFO queue that the user can pop messages from.
  76:../../libDaisy//src/hid/midi.h ****     @author shensley
  77:../../libDaisy//src/hid/midi.h ****     @date March 2020
  78:../../libDaisy//src/hid/midi.h ****     @ingroup midi
  79:../../libDaisy//src/hid/midi.h **** */
  80:../../libDaisy//src/hid/midi.h **** template <typename Transport>
  81:../../libDaisy//src/hid/midi.h **** class MidiHandler
  82:../../libDaisy//src/hid/midi.h **** {
  83:../../libDaisy//src/hid/midi.h ****   public:
  84:../../libDaisy//src/hid/midi.h ****     MidiHandler() {}
  85:../../libDaisy//src/hid/midi.h ****     ~MidiHandler() {}
  38              		.loc 2 85 5 view .LVU1
  39              	.LBB281:
  40              	.LBI281:
  26:../../libDaisy//src/hid/midi.h **** 
  41              		.loc 2 26 5 view .LVU2
  26:../../libDaisy//src/hid/midi.h **** 
  42              		.loc 2 26 5 is_stmt 0 view .LVU3
  43              	.LBE281:
  44              	.LBE280:
  45              	.LBB282:
  46              	.LBI282:
  47              		.file 3 "../../libDaisy//src/hid/rgb_led.h"
   1:../../libDaisy//src/hid/rgb_led.h **** #pragma once
   2:../../libDaisy//src/hid/rgb_led.h **** #ifndef DSY_RGB_LED_H
ARM GAS  /var/folders/ky/97y1n_614tj15gjp3pmt3wd00000gn/T//cc3mVKw2.s 			page 4


   3:../../libDaisy//src/hid/rgb_led.h **** #define DSY_RGB_LED_H
   4:../../libDaisy//src/hid/rgb_led.h **** #include "hid/led.h"
   5:../../libDaisy//src/hid/rgb_led.h **** #include "util/color.h"
   6:../../libDaisy//src/hid/rgb_led.h **** 
   7:../../libDaisy//src/hid/rgb_led.h **** namespace daisy
   8:../../libDaisy//src/hid/rgb_led.h **** {
   9:../../libDaisy//src/hid/rgb_led.h **** /** @addtogroup feedback
  10:../../libDaisy//src/hid/rgb_led.h ****     @{
  11:../../libDaisy//src/hid/rgb_led.h **** */
  12:../../libDaisy//src/hid/rgb_led.h **** 
  13:../../libDaisy//src/hid/rgb_led.h **** /** 3x LEDs configured as an RGB for ease of use. */
  14:../../libDaisy//src/hid/rgb_led.h **** class RgbLed
  15:../../libDaisy//src/hid/rgb_led.h **** {
  16:../../libDaisy//src/hid/rgb_led.h ****   public:
  17:../../libDaisy//src/hid/rgb_led.h ****     RgbLed() {}
  18:../../libDaisy//src/hid/rgb_led.h ****     ~RgbLed() {}
  48              		.loc 3 18 5 is_stmt 1 view .LVU4
  49              	.LBB283:
  50              	.LBI283:
  51              		.file 4 "../../libDaisy//src/hid/led.h"
   1:../../libDaisy//src/hid/led.h **** 
   2:../../libDaisy//src/hid/led.h **** #pragma once
   3:../../libDaisy//src/hid/led.h **** #ifndef DSY_LED_H
   4:../../libDaisy//src/hid/led.h **** #define DSY_LED_H
   5:../../libDaisy//src/hid/led.h **** #include "daisy_core.h"
   6:../../libDaisy//src/hid/led.h **** #include "per/gpio.h"
   7:../../libDaisy//src/hid/led.h **** 
   8:../../libDaisy//src/hid/led.h **** /* TODO - Get this set up to work with the dev_leddriver stuff as well
   9:../../libDaisy//src/hid/led.h **** - Setup Hardware PWM for pins that have it
  10:../../libDaisy//src/hid/led.h **** */
  11:../../libDaisy//src/hid/led.h **** 
  12:../../libDaisy//src/hid/led.h **** namespace daisy
  13:../../libDaisy//src/hid/led.h **** {
  14:../../libDaisy//src/hid/led.h **** /**
  15:../../libDaisy//src/hid/led.h ****     @brief LED Class providing simple Software PWM ability, etc \n 
  16:../../libDaisy//src/hid/led.h ****     Eventually this will work with hardware PWM, and external LED Driver devices as well.
  17:../../libDaisy//src/hid/led.h ****     @author shensley
  18:../../libDaisy//src/hid/led.h ****     @date March 2020
  19:../../libDaisy//src/hid/led.h ****     @ingroup feedback
  20:../../libDaisy//src/hid/led.h **** */
  21:../../libDaisy//src/hid/led.h **** class Led
  22:../../libDaisy//src/hid/led.h **** {
  23:../../libDaisy//src/hid/led.h ****   public:
  24:../../libDaisy//src/hid/led.h ****     Led() {}
  25:../../libDaisy//src/hid/led.h ****     ~Led() {}
  52              		.loc 4 25 5 view .LVU5
  53              		.loc 4 25 5 is_stmt 0 view .LVU6
  54              	.LBE283:
  55              	.LBB284:
  56              	.LBI284:
  57              		.loc 4 25 5 is_stmt 1 view .LVU7
  58              		.loc 4 25 5 is_stmt 0 view .LVU8
  59              	.LBE284:
  60              	.LBB285:
  61              	.LBI285:
  62              		.loc 4 25 5 is_stmt 1 view .LVU9
  63              		.loc 4 25 5 is_stmt 0 view .LVU10
ARM GAS  /var/folders/ky/97y1n_614tj15gjp3pmt3wd00000gn/T//cc3mVKw2.s 			page 5


  64              	.LBE285:
  65              	.LBE282:
  66              	.LBB286:
  67              	.LBI286:
  68              		.loc 3 18 5 is_stmt 1 view .LVU11
  69              	.LBB287:
  70              	.LBI287:
  71              		.loc 4 25 5 view .LVU12
  72              		.loc 4 25 5 is_stmt 0 view .LVU13
  73              	.LBE287:
  74              	.LBB288:
  75              	.LBI288:
  76              		.loc 4 25 5 is_stmt 1 view .LVU14
  77              		.loc 4 25 5 is_stmt 0 view .LVU15
  78              	.LBE288:
  79              	.LBB289:
  80              	.LBI289:
  81              		.loc 4 25 5 is_stmt 1 view .LVU16
  82              		.loc 4 25 5 is_stmt 0 view .LVU17
  83              	.LBE289:
  84              	.LBE286:
  85              	.LBB290:
  86              	.LBI290:
  87              		.file 5 "../../libDaisy//src/hid/switch.h"
   1:../../libDaisy//src/hid/switch.h **** #pragma once
   2:../../libDaisy//src/hid/switch.h **** #ifndef DSY_SWITCH_H
   3:../../libDaisy//src/hid/switch.h **** #define DSY_SWITCH_H
   4:../../libDaisy//src/hid/switch.h **** #include "daisy_core.h"
   5:../../libDaisy//src/hid/switch.h **** #include "per/gpio.h"
   6:../../libDaisy//src/hid/switch.h **** #include "sys/system.h"
   7:../../libDaisy//src/hid/switch.h **** 
   8:../../libDaisy//src/hid/switch.h **** namespace daisy
   9:../../libDaisy//src/hid/switch.h **** {
  10:../../libDaisy//src/hid/switch.h **** /** 
  11:../../libDaisy//src/hid/switch.h ****     Generic Class for handling momentary/latching switches \n 
  12:../../libDaisy//src/hid/switch.h ****     Inspired/influenced by Mutable Instruments (pichenettes) Switch classes
  13:../../libDaisy//src/hid/switch.h ****     @author Stephen Hensley
  14:../../libDaisy//src/hid/switch.h ****     @date December 2019
  15:../../libDaisy//src/hid/switch.h ****     @ingroup controls
  16:../../libDaisy//src/hid/switch.h **** */
  17:../../libDaisy//src/hid/switch.h **** class Switch
  18:../../libDaisy//src/hid/switch.h **** {
  19:../../libDaisy//src/hid/switch.h ****   public:
  20:../../libDaisy//src/hid/switch.h ****     /** Specifies the expected behavior of the switch */
  21:../../libDaisy//src/hid/switch.h ****     enum Type
  22:../../libDaisy//src/hid/switch.h ****     {
  23:../../libDaisy//src/hid/switch.h ****         TYPE_TOGGLE,    /**< & */
  24:../../libDaisy//src/hid/switch.h ****         TYPE_MOMENTARY, /**< & */
  25:../../libDaisy//src/hid/switch.h ****     };
  26:../../libDaisy//src/hid/switch.h ****     /** Specifies whether the pressed is HIGH or LOW. */
  27:../../libDaisy//src/hid/switch.h ****     enum Polarity
  28:../../libDaisy//src/hid/switch.h ****     {
  29:../../libDaisy//src/hid/switch.h ****         POLARITY_NORMAL,   /**< & */
  30:../../libDaisy//src/hid/switch.h ****         POLARITY_INVERTED, /**< & */
  31:../../libDaisy//src/hid/switch.h ****     };
  32:../../libDaisy//src/hid/switch.h **** 
  33:../../libDaisy//src/hid/switch.h ****     /** Specifies whether to use built-in Pull Up/Down resistors to hold button at a given state wh
ARM GAS  /var/folders/ky/97y1n_614tj15gjp3pmt3wd00000gn/T//cc3mVKw2.s 			page 6


  34:../../libDaisy//src/hid/switch.h ****     enum Pull
  35:../../libDaisy//src/hid/switch.h ****     {
  36:../../libDaisy//src/hid/switch.h ****         PULL_UP,   /**< & */
  37:../../libDaisy//src/hid/switch.h ****         PULL_DOWN, /**< & */
  38:../../libDaisy//src/hid/switch.h ****         PULL_NONE, /**< & */
  39:../../libDaisy//src/hid/switch.h ****     };
  40:../../libDaisy//src/hid/switch.h **** 
  41:../../libDaisy//src/hid/switch.h ****     Switch() {}
  42:../../libDaisy//src/hid/switch.h ****     ~Switch() {}
  88              		.loc 5 42 5 is_stmt 1 view .LVU18
  89              		.loc 5 42 5 is_stmt 0 view .LVU19
  90              	.LBE290:
  91              	.LBB291:
  92              	.LBI291:
  93              		.loc 5 42 5 is_stmt 1 view .LVU20
  94              		.loc 5 42 5 is_stmt 0 view .LVU21
  95              	.LBE291:
  96              	.LBB292:
  97              	.LBI292:
  98              		.file 6 "../../libDaisy//src/hid/ctrl.h"
   1:../../libDaisy//src/hid/ctrl.h **** #pragma once
   2:../../libDaisy//src/hid/ctrl.h **** #ifndef DSY_KNOB_H
   3:../../libDaisy//src/hid/ctrl.h **** #define DSY_KNOB_H /**< & */
   4:../../libDaisy//src/hid/ctrl.h **** #include <stdint.h>
   5:../../libDaisy//src/hid/ctrl.h **** 
   6:../../libDaisy//src/hid/ctrl.h **** #ifdef __cplusplus
   7:../../libDaisy//src/hid/ctrl.h **** namespace daisy
   8:../../libDaisy//src/hid/ctrl.h **** {
   9:../../libDaisy//src/hid/ctrl.h **** /**
  10:../../libDaisy//src/hid/ctrl.h ****     @brief Hardware Interface for control inputs \n 
  11:../../libDaisy//src/hid/ctrl.h ****     Primarily designed for ADC input controls such as \n 
  12:../../libDaisy//src/hid/ctrl.h ****     potentiometers, and control voltage. \n 
  13:../../libDaisy//src/hid/ctrl.h ****     @author Stephen Hensley
  14:../../libDaisy//src/hid/ctrl.h ****     @date November 2019
  15:../../libDaisy//src/hid/ctrl.h ****     @ingroup controls
  16:../../libDaisy//src/hid/ctrl.h **** */
  17:../../libDaisy//src/hid/ctrl.h **** class AnalogControl
  18:../../libDaisy//src/hid/ctrl.h **** {
  19:../../libDaisy//src/hid/ctrl.h ****   public:
  20:../../libDaisy//src/hid/ctrl.h ****     /** Constructor */
  21:../../libDaisy//src/hid/ctrl.h ****     AnalogControl() {}
  22:../../libDaisy//src/hid/ctrl.h ****     /** destructor */
  23:../../libDaisy//src/hid/ctrl.h ****     ~AnalogControl() {}
  99              		.loc 6 23 5 is_stmt 1 view .LVU22
 100              		.loc 6 23 5 is_stmt 0 view .LVU23
 101              	.LBE292:
 102              	.LBB293:
 103              	.LBI293:
 104              		.loc 6 23 5 is_stmt 1 view .LVU24
 105              		.loc 6 23 5 is_stmt 0 view .LVU25
 106              	.LBE293:
 107              	.LBB294:
 108              	.LBI294:
 109              		.file 7 "../../libDaisy//src/hid/encoder.h"
   1:../../libDaisy//src/hid/encoder.h **** #pragma once
   2:../../libDaisy//src/hid/encoder.h **** #ifndef DSY_ENCODER_H
   3:../../libDaisy//src/hid/encoder.h **** #define DSY_ENCODER_H
ARM GAS  /var/folders/ky/97y1n_614tj15gjp3pmt3wd00000gn/T//cc3mVKw2.s 			page 7


   4:../../libDaisy//src/hid/encoder.h **** #include "daisy_core.h"
   5:../../libDaisy//src/hid/encoder.h **** #include "per/gpio.h"
   6:../../libDaisy//src/hid/encoder.h **** #include "hid/switch.h"
   7:../../libDaisy//src/hid/encoder.h **** 
   8:../../libDaisy//src/hid/encoder.h **** namespace daisy
   9:../../libDaisy//src/hid/encoder.h **** {
  10:../../libDaisy//src/hid/encoder.h **** /** 
  11:../../libDaisy//src/hid/encoder.h ****     @brief Generic Class for handling Quadrature Encoders \n 
  12:../../libDaisy//src/hid/encoder.h ****     Inspired/influenced by Mutable Instruments (pichenettes) Encoder classes
  13:../../libDaisy//src/hid/encoder.h ****     @author Stephen Hensley
  14:../../libDaisy//src/hid/encoder.h ****     @date December 2019
  15:../../libDaisy//src/hid/encoder.h ****     @ingroup controls
  16:../../libDaisy//src/hid/encoder.h **** */
  17:../../libDaisy//src/hid/encoder.h **** class Encoder
  18:../../libDaisy//src/hid/encoder.h **** {
  19:../../libDaisy//src/hid/encoder.h ****   public:
  20:../../libDaisy//src/hid/encoder.h ****     Encoder() {}
  21:../../libDaisy//src/hid/encoder.h ****     ~Encoder() {}
 110              		.loc 7 21 5 is_stmt 1 view .LVU26
 111              	.LBB295:
 112              	.LBI295:
 113              		.loc 5 42 5 view .LVU27
 114              		.loc 5 42 5 is_stmt 0 view .LVU28
 115              	.LBE295:
 116              	.LBE294:
 117              	.LBB296:
 118              	.LBI296:
 119              		.file 8 "../../libDaisy//src/daisy_seed.h"
   1:../../libDaisy//src/daisy_seed.h **** #pragma once
   2:../../libDaisy//src/daisy_seed.h **** #ifndef DSY_SEED_H
   3:../../libDaisy//src/daisy_seed.h **** #define DSY_SEED_H
   4:../../libDaisy//src/daisy_seed.h **** 
   5:../../libDaisy//src/daisy_seed.h **** #include "daisy.h"
   6:../../libDaisy//src/daisy_seed.h **** 
   7:../../libDaisy//src/daisy_seed.h **** //Uncomment this out if you're still using the rev2 hardware
   8:../../libDaisy//src/daisy_seed.h **** //#define SEED_REV2
   9:../../libDaisy//src/daisy_seed.h **** 
  10:../../libDaisy//src/daisy_seed.h **** namespace daisy
  11:../../libDaisy//src/daisy_seed.h **** {
  12:../../libDaisy//src/daisy_seed.h **** /**
  13:../../libDaisy//src/daisy_seed.h ****    @brief This is the higher-level interface for the Daisy board. \n 
  14:../../libDaisy//src/daisy_seed.h ****     All basic peripheral configuration/initialization is setup here. \n
  15:../../libDaisy//src/daisy_seed.h **** 
  16:../../libDaisy//src/daisy_seed.h ****    @ingroup boards
  17:../../libDaisy//src/daisy_seed.h **** */
  18:../../libDaisy//src/daisy_seed.h **** class DaisySeed
  19:../../libDaisy//src/daisy_seed.h **** {
  20:../../libDaisy//src/daisy_seed.h ****   public:
  21:../../libDaisy//src/daisy_seed.h ****     DaisySeed() {}
  22:../../libDaisy//src/daisy_seed.h ****     ~DaisySeed() {}
 120              		.loc 8 22 5 is_stmt 1 view .LVU29
 121              	.LBB297:
 122              	.LBI297:
 123              		.file 9 "../../libDaisy//src/sys/system.h"
   1:../../libDaisy//src/sys/system.h **** #ifndef DSY_SYSTEM_H
   2:../../libDaisy//src/sys/system.h **** #define DSY_SYSTEM_H
   3:../../libDaisy//src/sys/system.h **** 
ARM GAS  /var/folders/ky/97y1n_614tj15gjp3pmt3wd00000gn/T//cc3mVKw2.s 			page 8


   4:../../libDaisy//src/sys/system.h **** #ifndef UNIT_TEST // for unit tests, a dummy implementation is provided below
   5:../../libDaisy//src/sys/system.h **** 
   6:../../libDaisy//src/sys/system.h **** #include <cstdint>
   7:../../libDaisy//src/sys/system.h **** #include "per/tim.h"
   8:../../libDaisy//src/sys/system.h **** 
   9:../../libDaisy//src/sys/system.h **** namespace daisy
  10:../../libDaisy//src/sys/system.h **** {
  11:../../libDaisy//src/sys/system.h **** /** A handle for interacting with the Core System. 
  12:../../libDaisy//src/sys/system.h ****  ** This includes the Clock tree, MPU, global DMA initialization,
  13:../../libDaisy//src/sys/system.h ****  ** cache handling, and any other necessary global initiailzation
  14:../../libDaisy//src/sys/system.h ****  **
  15:../../libDaisy//src/sys/system.h ****  ** @author shensley
  16:../../libDaisy//src/sys/system.h ****  ** @ingroup system
  17:../../libDaisy//src/sys/system.h ****  */
  18:../../libDaisy//src/sys/system.h **** class System
  19:../../libDaisy//src/sys/system.h **** {
  20:../../libDaisy//src/sys/system.h ****   public:
  21:../../libDaisy//src/sys/system.h ****     /** Contains settings for initializing the System */
  22:../../libDaisy//src/sys/system.h ****     struct Config
  23:../../libDaisy//src/sys/system.h ****     {
  24:../../libDaisy//src/sys/system.h ****         /** Specifies the system clock frequency that feeds APB/AHB clocks, etc. */
  25:../../libDaisy//src/sys/system.h ****         enum class SysClkFreq
  26:../../libDaisy//src/sys/system.h ****         {
  27:../../libDaisy//src/sys/system.h ****             FREQ_400MHZ,
  28:../../libDaisy//src/sys/system.h ****             FREQ_480MHZ,
  29:../../libDaisy//src/sys/system.h ****         };
  30:../../libDaisy//src/sys/system.h **** 
  31:../../libDaisy//src/sys/system.h ****         /** Method to call on the struct to set to defaults
  32:../../libDaisy//src/sys/system.h ****          ** CPU Freq set to 400MHz
  33:../../libDaisy//src/sys/system.h ****          ** Cache Enabled 
  34:../../libDaisy//src/sys/system.h ****          ** */
  35:../../libDaisy//src/sys/system.h ****         void Defaults()
  36:../../libDaisy//src/sys/system.h ****         {
  37:../../libDaisy//src/sys/system.h ****             cpu_freq    = SysClkFreq::FREQ_400MHZ;
  38:../../libDaisy//src/sys/system.h ****             use_dcache  = true;
  39:../../libDaisy//src/sys/system.h ****             use_icache  = true;
  40:../../libDaisy//src/sys/system.h ****             skip_clocks = false;
  41:../../libDaisy//src/sys/system.h ****         }
  42:../../libDaisy//src/sys/system.h **** 
  43:../../libDaisy//src/sys/system.h ****         /** Method to call on the struct to set to boost mode:
  44:../../libDaisy//src/sys/system.h ****          ** CPU Freq set to 480MHz
  45:../../libDaisy//src/sys/system.h ****          ** Cache Enabled 
  46:../../libDaisy//src/sys/system.h ****          ** */
  47:../../libDaisy//src/sys/system.h ****         void Boost()
  48:../../libDaisy//src/sys/system.h ****         {
  49:../../libDaisy//src/sys/system.h ****             cpu_freq    = SysClkFreq::FREQ_480MHZ;
  50:../../libDaisy//src/sys/system.h ****             use_dcache  = true;
  51:../../libDaisy//src/sys/system.h ****             use_icache  = true;
  52:../../libDaisy//src/sys/system.h ****             skip_clocks = false;
  53:../../libDaisy//src/sys/system.h ****         }
  54:../../libDaisy//src/sys/system.h **** 
  55:../../libDaisy//src/sys/system.h ****         SysClkFreq cpu_freq;
  56:../../libDaisy//src/sys/system.h ****         bool       use_dcache;
  57:../../libDaisy//src/sys/system.h ****         bool       use_icache;
  58:../../libDaisy//src/sys/system.h ****         bool       skip_clocks;
  59:../../libDaisy//src/sys/system.h ****     };
  60:../../libDaisy//src/sys/system.h **** 
ARM GAS  /var/folders/ky/97y1n_614tj15gjp3pmt3wd00000gn/T//cc3mVKw2.s 			page 9


  61:../../libDaisy//src/sys/system.h ****     /** Describes the different regions of memory available to the Daisy
  62:../../libDaisy//src/sys/system.h ****      * 
  63:../../libDaisy//src/sys/system.h ****      */
  64:../../libDaisy//src/sys/system.h ****     enum MemoryRegion
  65:../../libDaisy//src/sys/system.h ****     {
  66:../../libDaisy//src/sys/system.h ****         INTERNAL_FLASH = 0,
  67:../../libDaisy//src/sys/system.h ****         ITCMRAM,
  68:../../libDaisy//src/sys/system.h ****         DTCMRAM,
  69:../../libDaisy//src/sys/system.h ****         SRAM_D1,
  70:../../libDaisy//src/sys/system.h ****         SRAM_D2,
  71:../../libDaisy//src/sys/system.h ****         SRAM_D3,
  72:../../libDaisy//src/sys/system.h ****         SDRAM,
  73:../../libDaisy//src/sys/system.h ****         QSPI,
  74:../../libDaisy//src/sys/system.h ****         INVALID_ADDRESS,
  75:../../libDaisy//src/sys/system.h ****     };
  76:../../libDaisy//src/sys/system.h **** 
  77:../../libDaisy//src/sys/system.h ****     System() {}
  78:../../libDaisy//src/sys/system.h ****     ~System() {}
 124              		.loc 9 78 5 view .LVU30
 125              		.loc 9 78 5 is_stmt 0 view .LVU31
 126              	.LBE297:
 127              	.LBB298:
 128              	.LBI298:
 129              		.file 10 "../../libDaisy//src/hid/usb.h"
   1:../../libDaisy//src/hid/usb.h **** #pragma once
   2:../../libDaisy//src/hid/usb.h **** #ifndef DSY_HID_USB_H
   3:../../libDaisy//src/hid/usb.h **** #define DSY_HID_USB_H
   4:../../libDaisy//src/hid/usb.h **** #include <stdint.h>
   5:../../libDaisy//src/hid/usb.h **** #include <stdlib.h>
   6:../../libDaisy//src/hid/usb.h **** 
   7:../../libDaisy//src/hid/usb.h **** namespace daisy
   8:../../libDaisy//src/hid/usb.h **** /** @addtogroup human_interface
   9:../../libDaisy//src/hid/usb.h ****     @{
  10:../../libDaisy//src/hid/usb.h **** */
  11:../../libDaisy//src/hid/usb.h **** 
  12:../../libDaisy//src/hid/usb.h **** {
  13:../../libDaisy//src/hid/usb.h **** /** 
  14:../../libDaisy//src/hid/usb.h ****     @brief Interface for initializing and using the USB Peripherals on the daisy
  15:../../libDaisy//src/hid/usb.h ****     @author Stephen Hensley
  16:../../libDaisy//src/hid/usb.h ****     @date December 2019
  17:../../libDaisy//src/hid/usb.h **** */
  18:../../libDaisy//src/hid/usb.h **** class UsbHandle
  19:../../libDaisy//src/hid/usb.h **** {
  20:../../libDaisy//src/hid/usb.h ****   public:
  21:../../libDaisy//src/hid/usb.h ****     /** Return values for USBHandle Functions */
  22:../../libDaisy//src/hid/usb.h ****     enum class Result
  23:../../libDaisy//src/hid/usb.h ****     {
  24:../../libDaisy//src/hid/usb.h ****         OK,
  25:../../libDaisy//src/hid/usb.h ****         ERR,
  26:../../libDaisy//src/hid/usb.h ****     };
  27:../../libDaisy//src/hid/usb.h **** 
  28:../../libDaisy//src/hid/usb.h ****     /** Specified which of the two USB Peripherals to initialize. */
  29:../../libDaisy//src/hid/usb.h ****     enum UsbPeriph
  30:../../libDaisy//src/hid/usb.h ****     {
  31:../../libDaisy//src/hid/usb.h ****         FS_INTERNAL, /**< Internal pin */
  32:../../libDaisy//src/hid/usb.h ****         FS_EXTERNAL, /**< FS External D+ pin is Pin 38 (GPIO32). FS External D- pin is Pin 37 (GPIO
  33:../../libDaisy//src/hid/usb.h ****         FS_BOTH,     /**< Both */
ARM GAS  /var/folders/ky/97y1n_614tj15gjp3pmt3wd00000gn/T//cc3mVKw2.s 			page 10


  34:../../libDaisy//src/hid/usb.h ****     };
  35:../../libDaisy//src/hid/usb.h **** 
  36:../../libDaisy//src/hid/usb.h **** 
  37:../../libDaisy//src/hid/usb.h ****     /** Function called upon reception of a buffer */
  38:../../libDaisy//src/hid/usb.h ****     typedef void (*ReceiveCallback)(uint8_t* buff, uint32_t* len);
  39:../../libDaisy//src/hid/usb.h **** 
  40:../../libDaisy//src/hid/usb.h ****     UsbHandle() {}
  41:../../libDaisy//src/hid/usb.h **** 
  42:../../libDaisy//src/hid/usb.h ****     ~UsbHandle() {}
 130              		.loc 10 42 5 is_stmt 1 view .LVU32
 131              		.loc 10 42 5 is_stmt 0 view .LVU33
 132              	.LBE298:
 133              	.LBB299:
 134              	.LBI299:
 135              		.file 11 "../../libDaisy//src/per/adc.h"
   1:../../libDaisy//src/per/adc.h **** #pragma once
   2:../../libDaisy//src/per/adc.h **** #ifndef DSY_ADC_H
   3:../../libDaisy//src/per/adc.h **** #define DSY_ADC_H /**< Macro */
   4:../../libDaisy//src/per/adc.h **** #include <stdint.h>
   5:../../libDaisy//src/per/adc.h **** #include <stdlib.h>
   6:../../libDaisy//src/per/adc.h **** #include "daisy_core.h"
   7:../../libDaisy//src/per/adc.h **** #include "per/gpio.h"
   8:../../libDaisy//src/per/adc.h **** 
   9:../../libDaisy//src/per/adc.h **** #define DSY_ADC_MAX_CHANNELS 16 /**< Maximum number of ADC channels */
  10:../../libDaisy//src/per/adc.h **** 
  11:../../libDaisy//src/per/adc.h **** namespace daisy
  12:../../libDaisy//src/per/adc.h **** {
  13:../../libDaisy//src/per/adc.h **** /** @addtogroup per_analog
  14:../../libDaisy//src/per/adc.h ****     @{
  15:../../libDaisy//src/per/adc.h **** */
  16:../../libDaisy//src/per/adc.h **** 
  17:../../libDaisy//src/per/adc.h **** /* While there may not be many configuration options here,
  18:../../libDaisy//src/per/adc.h **** using a struct like this allows us to add more configuration
  19:../../libDaisy//src/per/adc.h **** later without breaking existing functionality.
  20:../../libDaisy//src/per/adc.h **** */
  21:../../libDaisy//src/per/adc.h **** 
  22:../../libDaisy//src/per/adc.h **** /** @brief   Configuration Structure for an ADC Channel 
  23:../../libDaisy//src/per/adc.h ****  *  @details This can be used to configure a a single input, 
  24:../../libDaisy//src/per/adc.h ****  *           or a multiplexed input, allowing up to 8 inputs on 
  25:../../libDaisy//src/per/adc.h ****  *           one channel.
  26:../../libDaisy//src/per/adc.h ****  *  @note    Sharing data lines to multiple muxes _is_ possible, but
  27:../../libDaisy//src/per/adc.h ****  *           each channel sharing data lines must be set to the maximum
  28:../../libDaisy//src/per/adc.h ****  *           number of channels, even if some multiplexers have fewer
  29:../../libDaisy//src/per/adc.h ****  *           inputs connected.
  30:../../libDaisy//src/per/adc.h **** */
  31:../../libDaisy//src/per/adc.h **** struct AdcChannelConfig
  32:../../libDaisy//src/per/adc.h **** {
  33:../../libDaisy//src/per/adc.h ****     /** Which pin to use for multiplexing */
  34:../../libDaisy//src/per/adc.h ****     enum MuxPin
  35:../../libDaisy//src/per/adc.h ****     {
  36:../../libDaisy//src/per/adc.h ****         MUX_SEL_0,    /**< & */
  37:../../libDaisy//src/per/adc.h ****         MUX_SEL_1,    /**< & */
  38:../../libDaisy//src/per/adc.h ****         MUX_SEL_2,    /**< & */
  39:../../libDaisy//src/per/adc.h ****         MUX_SEL_LAST, /**< & */
  40:../../libDaisy//src/per/adc.h ****     };
  41:../../libDaisy//src/per/adc.h **** 
  42:../../libDaisy//src/per/adc.h ****     /** Initializes a single ADC pin as an ADC. 
ARM GAS  /var/folders/ky/97y1n_614tj15gjp3pmt3wd00000gn/T//cc3mVKw2.s 			page 11


  43:../../libDaisy//src/per/adc.h ****     \param pin Pin to init.
  44:../../libDaisy//src/per/adc.h ****      */
  45:../../libDaisy//src/per/adc.h ****     void InitSingle(dsy_gpio_pin pin);
  46:../../libDaisy//src/per/adc.h **** 
  47:../../libDaisy//src/per/adc.h ****     /** 
  48:../../libDaisy//src/per/adc.h ****     Initializes a single ADC pin as a Multiplexed ADC.
  49:../../libDaisy//src/per/adc.h ****     Requires a CD405X Multiplexer connected to the pin.
  50:../../libDaisy//src/per/adc.h ****     You only need to supply the mux pins that are required,
  51:../../libDaisy//src/per/adc.h ****     e.g. a 4052 mux would only require mux_0 and mux_1.
  52:../../libDaisy//src/per/adc.h ****     Internal Callbacks handle the pin addressing.
  53:../../libDaisy//src/per/adc.h ****     \param mux_channels must be 1-8
  54:../../libDaisy//src/per/adc.h ****     \param mux_0 First mux pin
  55:../../libDaisy//src/per/adc.h ****     \param mux_1 Second mux pin
  56:../../libDaisy//src/per/adc.h ****     \param mux_2 Third mux pin
  57:../../libDaisy//src/per/adc.h ****     \param adc_pin &
  58:../../libDaisy//src/per/adc.h ****     */
  59:../../libDaisy//src/per/adc.h ****     void InitMux(dsy_gpio_pin adc_pin,
  60:../../libDaisy//src/per/adc.h ****                  size_t       mux_channels,
  61:../../libDaisy//src/per/adc.h ****                  dsy_gpio_pin mux_0,
  62:../../libDaisy//src/per/adc.h ****                  dsy_gpio_pin mux_1 = {DSY_GPIOX, 0},
  63:../../libDaisy//src/per/adc.h ****                  dsy_gpio_pin mux_2 = {DSY_GPIOX, 0});
  64:../../libDaisy//src/per/adc.h **** 
  65:../../libDaisy//src/per/adc.h ****     dsy_gpio pin_;                   /**< & */
  66:../../libDaisy//src/per/adc.h ****     dsy_gpio mux_pin_[MUX_SEL_LAST]; /**< & */
  67:../../libDaisy//src/per/adc.h ****     uint8_t  mux_channels_;          /**< & */
  68:../../libDaisy//src/per/adc.h **** };
  69:../../libDaisy//src/per/adc.h **** 
  70:../../libDaisy//src/per/adc.h **** /**
  71:../../libDaisy//src/per/adc.h ****    @brief Handler for analog to digital conversion
  72:../../libDaisy//src/per/adc.h **** */
  73:../../libDaisy//src/per/adc.h **** class AdcHandle
  74:../../libDaisy//src/per/adc.h **** {
  75:../../libDaisy//src/per/adc.h ****   public:
  76:../../libDaisy//src/per/adc.h ****     /** Supported oversampling amounts */
  77:../../libDaisy//src/per/adc.h ****     enum OverSampling
  78:../../libDaisy//src/per/adc.h ****     {
  79:../../libDaisy//src/per/adc.h ****         OVS_NONE, /**< & */
  80:../../libDaisy//src/per/adc.h ****         OVS_4,    /**< & */
  81:../../libDaisy//src/per/adc.h ****         OVS_8,    /**< & */
  82:../../libDaisy//src/per/adc.h ****         OVS_16,   /**< & */
  83:../../libDaisy//src/per/adc.h ****         OVS_32,   /**< & */
  84:../../libDaisy//src/per/adc.h ****         OVS_64,   /**< & */
  85:../../libDaisy//src/per/adc.h ****         OVS_128,  /**< & */
  86:../../libDaisy//src/per/adc.h ****         OVS_256,  /**< & */
  87:../../libDaisy//src/per/adc.h ****         OVS_512,  /**< & */
  88:../../libDaisy//src/per/adc.h ****         OVS_1024, /**< & */
  89:../../libDaisy//src/per/adc.h ****         OVS_LAST, /**< & */
  90:../../libDaisy//src/per/adc.h ****     };
  91:../../libDaisy//src/per/adc.h **** 
  92:../../libDaisy//src/per/adc.h ****     AdcHandle() {}
  93:../../libDaisy//src/per/adc.h ****     ~AdcHandle() {}
 136              		.loc 11 93 5 is_stmt 1 view .LVU34
 137              		.loc 11 93 5 is_stmt 0 view .LVU35
 138              	.LBE299:
 139              	.LBB300:
 140              	.LBI300:
 141              		.file 12 "../../libDaisy//src/hid/audio.h"
ARM GAS  /var/folders/ky/97y1n_614tj15gjp3pmt3wd00000gn/T//cc3mVKw2.s 			page 12


   1:../../libDaisy//src/hid/audio.h **** #ifndef DSY_AUDIO_H
   2:../../libDaisy//src/hid/audio.h **** #define DSY_AUDIO_H /**< & */
   3:../../libDaisy//src/hid/audio.h **** 
   4:../../libDaisy//src/hid/audio.h **** #include "per/sai.h"
   5:../../libDaisy//src/hid/audio.h **** 
   6:../../libDaisy//src/hid/audio.h **** namespace daisy
   7:../../libDaisy//src/hid/audio.h **** {
   8:../../libDaisy//src/hid/audio.h **** /** @brief Audio Engine Handle
   9:../../libDaisy//src/hid/audio.h ****  *  @ingroup audio 
  10:../../libDaisy//src/hid/audio.h ****  *  @details This class allows for higher level access to an audio engine.
  11:../../libDaisy//src/hid/audio.h ****  *           If you're using a SOM like the DaisySeed or DaisyPatchSM (or any 
  12:../../libDaisy//src/hid/audio.h ****  *            board that includes one of those objects) then the intialization
  13:../../libDaisy//src/hid/audio.h ****  *            is already taken  care of.
  14:../../libDaisy//src/hid/audio.h ****  *           If you're setting up your own custom hardware, or need to make changes
  15:../../libDaisy//src/hid/audio.h ****  *           you will have to take the following steps:
  16:../../libDaisy//src/hid/audio.h ****  *             1. Create and Initialize an SaiHandle or two depending on your requirements
  17:../../libDaisy//src/hid/audio.h ****  *             2. Initialize the Audio Handle with the desired settings and the Initialized SaiHand
  18:../../libDaisy//src/hid/audio.h ****  *             3. If the connected codec requires special configuration or initialization, do so
  19:../../libDaisy//src/hid/audio.h ****  *             4. Write a callback method using either the AudioCallback or the InterleavingAudioCa
  20:../../libDaisy//src/hid/audio.h ****  *             5. Start the Audio using one of the StartAudio function
  21:../../libDaisy//src/hid/audio.h ****  */
  22:../../libDaisy//src/hid/audio.h **** class AudioHandle
  23:../../libDaisy//src/hid/audio.h **** {
  24:../../libDaisy//src/hid/audio.h ****   public:
  25:../../libDaisy//src/hid/audio.h ****     /** Manually configurable details about the Audio Engine */
  26:../../libDaisy//src/hid/audio.h ****     /** TODO: Figure out how to get samplerate in here. */
  27:../../libDaisy//src/hid/audio.h ****     struct Config
  28:../../libDaisy//src/hid/audio.h ****     {
  29:../../libDaisy//src/hid/audio.h ****         /** number of samples to process per callback */
  30:../../libDaisy//src/hid/audio.h ****         size_t blocksize;
  31:../../libDaisy//src/hid/audio.h **** 
  32:../../libDaisy//src/hid/audio.h ****         /**< Sample rate of audio */
  33:../../libDaisy//src/hid/audio.h ****         SaiHandle::Config::SampleRate samplerate;
  34:../../libDaisy//src/hid/audio.h **** 
  35:../../libDaisy//src/hid/audio.h ****         /** factor for adjustment before and after callback for hardware that may have extra headro
  36:../../libDaisy//src/hid/audio.h ****         float postgain;
  37:../../libDaisy//src/hid/audio.h **** 
  38:../../libDaisy//src/hid/audio.h ****         /** factor for additional one-sided compensation to audio path for hardware that may
  39:../../libDaisy//src/hid/audio.h ****          *  have unequal input/output ranges
  40:../../libDaisy//src/hid/audio.h ****          */
  41:../../libDaisy//src/hid/audio.h ****         float output_compensation;
  42:../../libDaisy//src/hid/audio.h **** 
  43:../../libDaisy//src/hid/audio.h ****         /** Sets default values for config struct */
  44:../../libDaisy//src/hid/audio.h ****         Config()
  45:../../libDaisy//src/hid/audio.h ****         : blocksize(48),
  46:../../libDaisy//src/hid/audio.h ****           samplerate(SaiHandle::Config::SampleRate::SAI_48KHZ),
  47:../../libDaisy//src/hid/audio.h ****           postgain(1.f),
  48:../../libDaisy//src/hid/audio.h ****           output_compensation(1.f)
  49:../../libDaisy//src/hid/audio.h ****         {
  50:../../libDaisy//src/hid/audio.h ****         }
  51:../../libDaisy//src/hid/audio.h ****     };
  52:../../libDaisy//src/hid/audio.h **** 
  53:../../libDaisy//src/hid/audio.h ****     enum class Result
  54:../../libDaisy//src/hid/audio.h ****     {
  55:../../libDaisy//src/hid/audio.h ****         OK,
  56:../../libDaisy//src/hid/audio.h ****         ERR,
  57:../../libDaisy//src/hid/audio.h ****     };
ARM GAS  /var/folders/ky/97y1n_614tj15gjp3pmt3wd00000gn/T//cc3mVKw2.s 			page 13


  58:../../libDaisy//src/hid/audio.h **** 
  59:../../libDaisy//src/hid/audio.h ****     /** Non-Interleaving input buffer
  60:../../libDaisy//src/hid/audio.h ****      * Buffer arranged by float[chn][sample] 
  61:../../libDaisy//src/hid/audio.h ****      * const so that the user can't modify the input
  62:../../libDaisy//src/hid/audio.h ****      */
  63:../../libDaisy//src/hid/audio.h ****     typedef const float* const* InputBuffer;
  64:../../libDaisy//src/hid/audio.h **** 
  65:../../libDaisy//src/hid/audio.h ****     /** Non-Interleaving output buffer
  66:../../libDaisy//src/hid/audio.h ****      * Arranged by float[chn][sample] 
  67:../../libDaisy//src/hid/audio.h ****      */
  68:../../libDaisy//src/hid/audio.h ****     typedef float** OutputBuffer;
  69:../../libDaisy//src/hid/audio.h **** 
  70:../../libDaisy//src/hid/audio.h ****     /** Type for a Non-Interleaving audio callback 
  71:../../libDaisy//src/hid/audio.h ****      * Non-Interleaving audio callbacks in daisy will be of this type
  72:../../libDaisy//src/hid/audio.h ****      */
  73:../../libDaisy//src/hid/audio.h ****     typedef void (*AudioCallback)(InputBuffer  in,
  74:../../libDaisy//src/hid/audio.h ****                                   OutputBuffer out,
  75:../../libDaisy//src/hid/audio.h ****                                   size_t       size);
  76:../../libDaisy//src/hid/audio.h **** 
  77:../../libDaisy//src/hid/audio.h ****     /** Interleaving Input buffer
  78:../../libDaisy//src/hid/audio.h ****      ** audio is prepared as { L0, R0, L1, R1, . . . LN, RN }]
  79:../../libDaisy//src/hid/audio.h ****      ** this is const, as the user shouldn't modify it
  80:../../libDaisy//src/hid/audio.h ****     */
  81:../../libDaisy//src/hid/audio.h ****     typedef const float* InterleavingInputBuffer;
  82:../../libDaisy//src/hid/audio.h **** 
  83:../../libDaisy//src/hid/audio.h ****     /** Interleaving Output buffer 
  84:../../libDaisy//src/hid/audio.h ****      ** audio is prepared as { L0, R0, L1, R1, . . . LN, RN }
  85:../../libDaisy//src/hid/audio.h ****     */
  86:../../libDaisy//src/hid/audio.h ****     typedef float* InterleavingOutputBuffer;
  87:../../libDaisy//src/hid/audio.h **** 
  88:../../libDaisy//src/hid/audio.h ****     /** Interleaving Audio Callback 
  89:../../libDaisy//src/hid/audio.h ****      * Interleaving audio callbacks in daisy must be of this type
  90:../../libDaisy//src/hid/audio.h ****      */
  91:../../libDaisy//src/hid/audio.h ****     typedef void (*InterleavingAudioCallback)(InterleavingInputBuffer  in,
  92:../../libDaisy//src/hid/audio.h ****                                               InterleavingOutputBuffer out,
  93:../../libDaisy//src/hid/audio.h ****                                               size_t                   size);
  94:../../libDaisy//src/hid/audio.h **** 
  95:../../libDaisy//src/hid/audio.h ****     AudioHandle() : pimpl_(nullptr) {}
  96:../../libDaisy//src/hid/audio.h ****     ~AudioHandle() {}
 142              		.loc 12 96 5 is_stmt 1 view .LVU36
 143              		.loc 12 96 5 is_stmt 0 view .LVU37
 144              	.LBE300:
 145              	.LBE296:
 146              		.loc 1 36 18 view .LVU38
 147 0000 7047     		bx	lr
 148              		.cfi_endproc
 149              	.LFE2538:
 151              		.weak	_ZN5daisy8DaisyPodD1Ev
 152              		.thumb_set _ZN5daisy8DaisyPodD1Ev,_ZN5daisy8DaisyPodD2Ev
 153 0002 00BF     		.section	.text._Z12randomNumberv,"ax",%progbits
 154              		.align	1
 155              		.p2align 2,,3
 156              		.global	_Z12randomNumberv
 157              		.syntax unified
 158              		.thumb
 159              		.thumb_func
 161              	_Z12randomNumberv:
ARM GAS  /var/folders/ky/97y1n_614tj15gjp3pmt3wd00000gn/T//cc3mVKw2.s 			page 14


 162              	.LFB2541:
 163              		.file 13 "MyProj.cpp"
   1:MyProj.cpp    **** #include "daisy_pod.h"
   2:MyProj.cpp    **** #include "leaf.h"
   3:MyProj.cpp    **** 
   4:MyProj.cpp    **** using namespace daisy;
   5:MyProj.cpp    **** 
   6:MyProj.cpp    **** enum EncoderMode
   7:MyProj.cpp    **** {
   8:MyProj.cpp    ****     Frequency,
   9:MyProj.cpp    ****     Timbre
  10:MyProj.cpp    **** };
  11:MyProj.cpp    **** 
  12:MyProj.cpp    **** LEAF     leaf;
  13:MyProj.cpp    **** char     leafMemory[65535];
  14:MyProj.cpp    **** DaisyPod hw;
  15:MyProj.cpp    **** 
  16:MyProj.cpp    **** tCycle myCarriers[3];
  17:MyProj.cpp    **** tCycle myModulators[3];
  18:MyProj.cpp    **** 
  19:MyProj.cpp    **** int   selectedVoice = 0;
  20:MyProj.cpp    **** float myFreqs[3]    = {440, 440, 440};
  21:MyProj.cpp    **** float myOffsets[3]  = {0};
  22:MyProj.cpp    **** int   myNotes[3]    = {60, 60, 60};
  23:MyProj.cpp    **** float myVolumes[3]  = {0};
  24:MyProj.cpp    **** 
  25:MyProj.cpp    **** float myModStrength[3] = {0};
  26:MyProj.cpp    **** float myModRatios[3]   = {0};
  27:MyProj.cpp    **** 
  28:MyProj.cpp    **** EncoderMode inputMode = Frequency;
  29:MyProj.cpp    **** 
  30:MyProj.cpp    **** float randomNumber()
  31:MyProj.cpp    **** {
 164              		.loc 13 31 1 is_stmt 1 view -0
 165              		.cfi_startproc
 166              		@ args = 0, pretend = 0, frame = 0
 167              		@ frame_needed = 0, uses_anonymous_args = 0
 168              		@ link register save eliminated.
  32:MyProj.cpp    ****     return Random::GetFloat(0.0f, 1.0f);
 169              		.loc 13 32 5 view .LVU40
 170              		.loc 13 32 28 is_stmt 0 view .LVU41
 171 0000 F7EE000A 		vmov.f32	s1, #1.0e+0
 172 0004 9FED010A 		vldr.32	s0, .L4
 173 0008 FFF7FEBF 		b	_ZN5daisy6Random8GetFloatEff
 174              	.LVL1:
 175              	.L5:
 176              		.align	2
 177              	.L4:
 178 000c 00000000 		.word	0
 179              		.cfi_endproc
 180              	.LFE2541:
 182              		.section	.text._Z13AudioCallbackPKPKfPPfj,"ax",%progbits
 183              		.align	1
 184              		.p2align 2,,3
 185              		.global	_Z13AudioCallbackPKPKfPPfj
 186              		.syntax unified
 187              		.thumb
ARM GAS  /var/folders/ky/97y1n_614tj15gjp3pmt3wd00000gn/T//cc3mVKw2.s 			page 15


 188              		.thumb_func
 190              	_Z13AudioCallbackPKPKfPPfj:
 191              	.LVL2:
 192              	.LFB2542:
  33:MyProj.cpp    **** }
  34:MyProj.cpp    **** 
  35:MyProj.cpp    **** 
  36:MyProj.cpp    **** void AudioCallback(AudioHandle::InputBuffer  in,
  37:MyProj.cpp    ****                    AudioHandle::OutputBuffer out,
  38:MyProj.cpp    ****                    size_t                    size)
  39:MyProj.cpp    **** {
 193              		.loc 13 39 1 is_stmt 1 view -0
 194              		.cfi_startproc
 195              		@ args = 0, pretend = 0, frame = 8
 196              		@ frame_needed = 0, uses_anonymous_args = 0
  40:MyProj.cpp    ****     hw.ProcessAllControls();
 197              		.loc 13 40 5 view .LVU43
 198              	.LBB301:
 199              	.LBI301:
  37:../../libDaisy//src/daisy_pod.h **** 
  38:../../libDaisy//src/daisy_pod.h ****     /** Init related stuff. */
  39:../../libDaisy//src/daisy_pod.h ****     void Init(bool boost = false);
  40:../../libDaisy//src/daisy_pod.h **** 
  41:../../libDaisy//src/daisy_pod.h ****     /** Wait for a bit
  42:../../libDaisy//src/daisy_pod.h ****     \param del Time to wait in ms.
  43:../../libDaisy//src/daisy_pod.h ****     */
  44:../../libDaisy//src/daisy_pod.h ****     void DelayMs(size_t del);
  45:../../libDaisy//src/daisy_pod.h **** 
  46:../../libDaisy//src/daisy_pod.h ****     /** Starts the callback
  47:../../libDaisy//src/daisy_pod.h ****     \param cb Interleaved callback function
  48:../../libDaisy//src/daisy_pod.h ****     */
  49:../../libDaisy//src/daisy_pod.h ****     void StartAudio(AudioHandle::InterleavingAudioCallback cb);
  50:../../libDaisy//src/daisy_pod.h **** 
  51:../../libDaisy//src/daisy_pod.h ****     /** Starts the callback
  52:../../libDaisy//src/daisy_pod.h ****     \param cb multichannel callback function
  53:../../libDaisy//src/daisy_pod.h ****     */
  54:../../libDaisy//src/daisy_pod.h ****     void StartAudio(AudioHandle::AudioCallback cb);
  55:../../libDaisy//src/daisy_pod.h **** 
  56:../../libDaisy//src/daisy_pod.h ****     /**
  57:../../libDaisy//src/daisy_pod.h ****        Switch callback functions
  58:../../libDaisy//src/daisy_pod.h ****        \param cb New interleaved callback function.
  59:../../libDaisy//src/daisy_pod.h ****     */
  60:../../libDaisy//src/daisy_pod.h ****     void ChangeAudioCallback(AudioHandle::InterleavingAudioCallback cb);
  61:../../libDaisy//src/daisy_pod.h **** 
  62:../../libDaisy//src/daisy_pod.h ****     /**
  63:../../libDaisy//src/daisy_pod.h ****        Switch callback functions
  64:../../libDaisy//src/daisy_pod.h ****        \param cb New multichannel callback function.
  65:../../libDaisy//src/daisy_pod.h ****     */
  66:../../libDaisy//src/daisy_pod.h ****     void ChangeAudioCallback(AudioHandle::AudioCallback cb);
  67:../../libDaisy//src/daisy_pod.h **** 
  68:../../libDaisy//src/daisy_pod.h ****     /** Stops the audio if it is running. */
  69:../../libDaisy//src/daisy_pod.h ****     void StopAudio();
  70:../../libDaisy//src/daisy_pod.h **** 
  71:../../libDaisy//src/daisy_pod.h ****     /** Updates the Audio Sample Rate, and reinitializes.
  72:../../libDaisy//src/daisy_pod.h ****      ** Audio must be stopped for this to work.
  73:../../libDaisy//src/daisy_pod.h ****      */
  74:../../libDaisy//src/daisy_pod.h ****     void SetAudioSampleRate(SaiHandle::Config::SampleRate samplerate);
ARM GAS  /var/folders/ky/97y1n_614tj15gjp3pmt3wd00000gn/T//cc3mVKw2.s 			page 16


  75:../../libDaisy//src/daisy_pod.h **** 
  76:../../libDaisy//src/daisy_pod.h ****     /** Returns the audio sample rate in Hz as a floating point number.
  77:../../libDaisy//src/daisy_pod.h ****      */
  78:../../libDaisy//src/daisy_pod.h ****     float AudioSampleRate();
  79:../../libDaisy//src/daisy_pod.h **** 
  80:../../libDaisy//src/daisy_pod.h ****     /** Sets the number of samples processed per channel by the audio callback.
  81:../../libDaisy//src/daisy_pod.h ****      */
  82:../../libDaisy//src/daisy_pod.h ****     void SetAudioBlockSize(size_t blocksize);
  83:../../libDaisy//src/daisy_pod.h **** 
  84:../../libDaisy//src/daisy_pod.h ****     /** Returns the number of samples per channel in a block of audio. */
  85:../../libDaisy//src/daisy_pod.h ****     size_t AudioBlockSize();
  86:../../libDaisy//src/daisy_pod.h **** 
  87:../../libDaisy//src/daisy_pod.h ****     /** Returns the rate in Hz that the Audio callback is called */
  88:../../libDaisy//src/daisy_pod.h ****     float AudioCallbackRate();
  89:../../libDaisy//src/daisy_pod.h **** 
  90:../../libDaisy//src/daisy_pod.h ****     /**
  91:../../libDaisy//src/daisy_pod.h ****        Start analog to digital conversion.
  92:../../libDaisy//src/daisy_pod.h ****      */
  93:../../libDaisy//src/daisy_pod.h ****     void StartAdc();
  94:../../libDaisy//src/daisy_pod.h **** 
  95:../../libDaisy//src/daisy_pod.h ****     /** Stops Transfering data from the ADC */
  96:../../libDaisy//src/daisy_pod.h ****     void StopAdc();
  97:../../libDaisy//src/daisy_pod.h **** 
  98:../../libDaisy//src/daisy_pod.h ****     /** Call at same rate as analog reads for smooth reading.*/
  99:../../libDaisy//src/daisy_pod.h ****     void ProcessAnalogControls();
 100:../../libDaisy//src/daisy_pod.h **** 
 101:../../libDaisy//src/daisy_pod.h ****     /** Process Analog and Digital Controls */
 102:../../libDaisy//src/daisy_pod.h ****     inline void ProcessAllControls()
 200              		.loc 1 102 17 view .LVU44
 201              	.LBB302:
 103:../../libDaisy//src/daisy_pod.h ****     {
 104:../../libDaisy//src/daisy_pod.h ****         ProcessAnalogControls();
 202              		.loc 1 104 9 view .LVU45
 203              	.LBE302:
 204              	.LBE301:
  39:MyProj.cpp    ****     hw.ProcessAllControls();
 205              		.loc 13 39 1 is_stmt 0 view .LVU46
 206 0000 2DE9F04F 		push	{r4, r5, r6, r7, r8, r9, r10, fp, lr}
 207              		.cfi_def_cfa_offset 36
 208              		.cfi_offset 4, -36
 209              		.cfi_offset 5, -32
 210              		.cfi_offset 6, -28
 211              		.cfi_offset 7, -24
 212              		.cfi_offset 8, -20
 213              		.cfi_offset 9, -16
 214              		.cfi_offset 10, -12
 215              		.cfi_offset 11, -8
 216              		.cfi_offset 14, -4
 217              	.LBB306:
 218              	.LBB303:
 219              		.loc 1 104 30 view .LVU47
 220 0004 574C     		ldr	r4, .L17
 221              	.LBE303:
 222              	.LBE306:
  39:MyProj.cpp    ****     hw.ProcessAllControls();
 223              		.loc 13 39 1 view .LVU48
 224 0006 8946     		mov	r9, r1
ARM GAS  /var/folders/ky/97y1n_614tj15gjp3pmt3wd00000gn/T//cc3mVKw2.s 			page 17


 225 0008 2DED028B 		vpush.64	{d8}
 226              		.cfi_def_cfa_offset 44
 227              		.cfi_offset 80, -44
 228              		.cfi_offset 81, -40
 229 000c 83B0     		sub	sp, sp, #12
 230              		.cfi_def_cfa_offset 56
 231              	.LBB307:
 232              	.LBB304:
 233              		.loc 1 104 30 view .LVU49
 234 000e 2046     		mov	r0, r4
 235              	.LVL3:
 236              		.loc 1 104 30 view .LVU50
 237              	.LBE304:
 238              	.LBE307:
  39:MyProj.cpp    ****     hw.ProcessAllControls();
 239              		.loc 13 39 1 view .LVU51
 240 0010 0192     		str	r2, [sp, #4]
 241              	.LBB308:
 242              	.LBB305:
 243              		.loc 1 104 30 view .LVU52
 244 0012 FFF7FEFF 		bl	_ZN5daisy8DaisyPod21ProcessAnalogControlsEv
 245              	.LVL4:
 105:../../libDaisy//src/daisy_pod.h ****         ProcessDigitalControls();
 246              		.loc 1 105 9 is_stmt 1 view .LVU53
 247              		.loc 1 105 31 is_stmt 0 view .LVU54
 248 0016 2046     		mov	r0, r4
 249 0018 FFF7FEFF 		bl	_ZN5daisy8DaisyPod22ProcessDigitalControlsEv
 250              	.LVL5:
 251              		.loc 1 105 31 view .LVU55
 252              	.LBE305:
 253              	.LBE308:
  41:MyProj.cpp    **** 
  42:MyProj.cpp    ****     // when "apply" button pressed, update values from current knob state
  43:MyProj.cpp    ****     if(hw.button2.Pressed())
 254              		.loc 13 43 5 is_stmt 1 view .LVU56
 255              	.LBB309:
 256              	.LBI309:
  43:../../libDaisy//src/hid/switch.h **** 
  44:../../libDaisy//src/hid/switch.h ****     /** 
  45:../../libDaisy//src/hid/switch.h ****     Initializes the switch object with a given port/pin combo.
  46:../../libDaisy//src/hid/switch.h ****     \param pin port/pin object to tell the switch which hardware pin to use.
  47:../../libDaisy//src/hid/switch.h ****     \param update_rate Does nothing. Backwards compatibility until next breaking update.
  48:../../libDaisy//src/hid/switch.h ****     \param t switch type -- Default: TYPE_MOMENTARY
  49:../../libDaisy//src/hid/switch.h ****     \param pol switch polarity -- Default: POLARITY_INVERTED
  50:../../libDaisy//src/hid/switch.h ****     \param pu switch pull up/down -- Default: PULL_UP
  51:../../libDaisy//src/hid/switch.h ****     */
  52:../../libDaisy//src/hid/switch.h ****     void
  53:../../libDaisy//src/hid/switch.h ****     Init(dsy_gpio_pin pin, float update_rate, Type t, Polarity pol, Pull pu);
  54:../../libDaisy//src/hid/switch.h **** 
  55:../../libDaisy//src/hid/switch.h ****     /**
  56:../../libDaisy//src/hid/switch.h ****        Simplified Init.
  57:../../libDaisy//src/hid/switch.h ****        \param pin port/pin object to tell the switch which hardware pin to use.
  58:../../libDaisy//src/hid/switch.h ****        \param update_rate Left for backwards compatibility until next breaking change.
  59:../../libDaisy//src/hid/switch.h ****     */
  60:../../libDaisy//src/hid/switch.h ****     void Init(dsy_gpio_pin pin, float update_rate = 0.f);
  61:../../libDaisy//src/hid/switch.h **** 
  62:../../libDaisy//src/hid/switch.h ****     /** 
ARM GAS  /var/folders/ky/97y1n_614tj15gjp3pmt3wd00000gn/T//cc3mVKw2.s 			page 18


  63:../../libDaisy//src/hid/switch.h ****     Called at update_rate to debounce and handle timing for the switch.
  64:../../libDaisy//src/hid/switch.h ****     In order for events not to be missed, its important that the Edge/Pressed checks
  65:../../libDaisy//src/hid/switch.h ****     be made at the same rate as the debounce function is being called.
  66:../../libDaisy//src/hid/switch.h ****     */
  67:../../libDaisy//src/hid/switch.h ****     void Debounce();
  68:../../libDaisy//src/hid/switch.h **** 
  69:../../libDaisy//src/hid/switch.h ****     /** \return true if a button was just pressed. */
  70:../../libDaisy//src/hid/switch.h ****     inline bool RisingEdge() const { return updated_ ? state_ == 0x7f : false; }
  71:../../libDaisy//src/hid/switch.h **** 
  72:../../libDaisy//src/hid/switch.h ****     /** \return true if the button was just released */
  73:../../libDaisy//src/hid/switch.h ****     inline bool FallingEdge() const
  74:../../libDaisy//src/hid/switch.h ****     {
  75:../../libDaisy//src/hid/switch.h ****         return updated_ ? state_ == 0x80 : false;
  76:../../libDaisy//src/hid/switch.h ****     }
  77:../../libDaisy//src/hid/switch.h **** 
  78:../../libDaisy//src/hid/switch.h ****     /** \return true if the button is held down (or if the toggle is on) */
  79:../../libDaisy//src/hid/switch.h ****     inline bool Pressed() const { return state_ == 0xff; }
 257              		.loc 5 79 17 view .LVU57
 258              	.LBB310:
 259              		.loc 5 79 35 view .LVU58
 260              		.loc 5 79 35 is_stmt 0 view .LVU59
 261              	.LBE310:
 262              	.LBE309:
 263              		.loc 13 43 5 view .LVU60
 264 001c 94F8C630 		ldrb	r3, [r4, #198]	@ zero_extendqisi2
 265 0020 FF2B     		cmp	r3, #255
 266 0022 67D0     		beq	.L15
 267 0024 504F     		ldr	r7, .L17+4
 268 0026 514D     		ldr	r5, .L17+8
 269 0028 514E     		ldr	r6, .L17+12
 270              	.L7:
  44:MyProj.cpp    ****     {
  45:MyProj.cpp    ****         if(inputMode)
  46:MyProj.cpp    ****         {
  47:MyProj.cpp    ****             myModRatios[selectedVoice]   = hw.GetKnobValue(hw.KNOB_1) * 6.0f;
  48:MyProj.cpp    ****             myModStrength[selectedVoice] = hw.GetKnobValue(hw.KNOB_2);
  49:MyProj.cpp    ****         }
  50:MyProj.cpp    ****         else
  51:MyProj.cpp    ****         {
  52:MyProj.cpp    ****             myOffsets[selectedVoice] = hw.GetKnobValue(hw.KNOB_1) * 2 - 1;
  53:MyProj.cpp    ****             myVolumes[selectedVoice] = hw.GetKnobValue(hw.KNOB_2);
  54:MyProj.cpp    ****         }
  55:MyProj.cpp    ****     }
  56:MyProj.cpp    **** 
  57:MyProj.cpp    ****     // calculate + update frequency of carrier
  58:MyProj.cpp    ****     myFreqs[selectedVoice]
 271              		.loc 13 58 5 is_stmt 1 view .LVU61
  59:MyProj.cpp    ****         = mtof(myNotes[selectedVoice] + myOffsets[selectedVoice]);
 272              		.loc 13 59 37 is_stmt 0 view .LVU62
 273 002a 3C68     		ldr	r4, [r7]
 274 002c 514A     		ldr	r2, .L17+16
 275              		.loc 13 59 64 view .LVU63
 276 002e 06EB8406 		add	r6, r6, r4, lsl #2
 277              		.loc 13 59 15 view .LVU64
 278 0032 02EB8403 		add	r3, r2, r4, lsl #2
 279 0036 96ED000A 		vldr.32	s0, [r6]
 280              		.loc 13 59 64 view .LVU65
ARM GAS  /var/folders/ky/97y1n_614tj15gjp3pmt3wd00000gn/T//cc3mVKw2.s 			page 19


 281 003a A400     		lsls	r4, r4, #2
 282              		.loc 13 59 15 view .LVU66
 283 003c D3ED007A 		vldr.32	s15, [r3]	@ int
 284 0040 F8EEE77A 		vcvt.f32.s32	s15, s15
 285 0044 37EE800A 		vadd.f32	s0, s15, s0
 286 0048 FFF7FEFF 		bl	mtof
 287              	.LVL6:
  60:MyProj.cpp    **** 
  61:MyProj.cpp    **** 
  62:MyProj.cpp    ****     // update frequency of modulating operator
  63:MyProj.cpp    ****     tCycle_setFreq(&myModulators[selectedVoice],
 288              		.loc 13 63 47 view .LVU67
 289 004c 3868     		ldr	r0, [r7]
  59:MyProj.cpp    ****         = mtof(myNotes[selectedVoice] + myOffsets[selectedVoice]);
 290              		.loc 13 59 9 view .LVU68
 291 004e 4A4A     		ldr	r2, .L17+20
  64:MyProj.cpp    ****                    myFreqs[selectedVoice] * myModRatios[selectedVoice]);
 292              		.loc 13 64 70 view .LVU69
 293 0050 05EB8005 		add	r5, r5, r0, lsl #2
  63:MyProj.cpp    ****                    myFreqs[selectedVoice] * myModRatios[selectedVoice]);
 294              		.loc 13 63 19 view .LVU70
 295 0054 494F     		ldr	r7, .L17+24
  59:MyProj.cpp    **** 
 296              		.loc 13 59 9 view .LVU71
 297 0056 1319     		adds	r3, r2, r4
 298              		.loc 13 64 41 view .LVU72
 299 0058 02EB8002 		add	r2, r2, r0, lsl #2
  63:MyProj.cpp    ****                    myFreqs[selectedVoice] * myModRatios[selectedVoice]);
 300              		.loc 13 63 19 view .LVU73
 301 005c D5ED007A 		vldr.32	s15, [r5]
 302 0060 07EB8000 		add	r0, r7, r0, lsl #2
  59:MyProj.cpp    **** 
 303              		.loc 13 59 9 view .LVU74
 304 0064 83ED000A 		vstr.32	s0, [r3]
  63:MyProj.cpp    ****                    myFreqs[selectedVoice] * myModRatios[selectedVoice]);
 305              		.loc 13 63 5 is_stmt 1 view .LVU75
  63:MyProj.cpp    ****                    myFreqs[selectedVoice] * myModRatios[selectedVoice]);
 306              		.loc 13 63 19 is_stmt 0 view .LVU76
 307 0068 92ED000A 		vldr.32	s0, [r2]
 308 006c 20EE270A 		vmul.f32	s0, s0, s15
 309 0070 FFF7FEFF 		bl	tCycle_setFreq
 310              	.LVL7:
  65:MyProj.cpp    **** 
  66:MyProj.cpp    **** 
  67:MyProj.cpp    ****     // now here's the per sample stuff
  68:MyProj.cpp    ****     for(size_t i = 0; i < size; i++)
 311              		.loc 13 68 5 is_stmt 1 view .LVU77
 312              	.LBB311:
 313              		.loc 13 68 25 view .LVU78
 314 0074 019B     		ldr	r3, [sp, #4]
 315 0076 C3B3     		cbz	r3, .L6
 316              		.loc 13 68 16 is_stmt 0 view .LVU79
 317 0078 0026     		movs	r6, #0
 318 007a DFF81481 		ldr	r8, .L17+44
 319              	.LVL8:
 320              	.L9:
 321              		.loc 13 68 16 view .LVU80
ARM GAS  /var/folders/ky/97y1n_614tj15gjp3pmt3wd00000gn/T//cc3mVKw2.s 			page 20


 322 007e DFF808A1 		ldr	r10, .L17+36
 323 0082 0024     		movs	r4, #0
 324 0084 3C4D     		ldr	r5, .L17+20
 325 0086 DFF804B1 		ldr	fp, .L17+40
 326              	.LBB312:
  69:MyProj.cpp    ****     {
  70:MyProj.cpp    ****         float mySample = 0.0f;
 327              		.loc 13 70 15 view .LVU81
 328 008a 9FED3D8A 		vldr.32	s16, .L17+28
 329              	.L10:
 330              	.LVL9:
 331              	.LBB313:
 332              	.LBB314:
  71:MyProj.cpp    **** 
  72:MyProj.cpp    ****         for(int j = 0; j < 3; j++)
  73:MyProj.cpp    ****         {
  74:MyProj.cpp    ****             // sample the modulating operator
  75:MyProj.cpp    ****             float myModSample
 333              		.loc 13 75 13 is_stmt 1 discriminator 2 view .LVU82
  76:MyProj.cpp    ****                 = myModStrength[j] * tCycle_tick(&myModulators[j]);
 334              		.loc 13 76 49 is_stmt 0 discriminator 2 view .LVU83
 335 008e 3819     		adds	r0, r7, r4
 336              		.loc 13 76 34 discriminator 2 view .LVU84
 337 0090 FAEC018A 		vldmia.32	r10!, {s17}
 338              		.loc 13 76 49 discriminator 2 view .LVU85
 339 0094 FFF7FEFF 		bl	tCycle_tick
 340              	.LVL10:
  77:MyProj.cpp    **** 
  78:MyProj.cpp    ****             // update carrier frequency and sample
  79:MyProj.cpp    ****             tCycle_setFreq(&myCarriers[j], myFreqs[j] * (myModSample + 1));
 341              		.loc 13 79 13 is_stmt 1 discriminator 2 view .LVU86
 342              		.loc 13 79 70 is_stmt 0 discriminator 2 view .LVU87
 343 0098 F7EE007A 		vmov.f32	s15, #1.0e+0
 344              		.loc 13 79 53 discriminator 2 view .LVU88
 345 009c B5EC017A 		vldmia.32	r5!, {s14}
 346 00a0 08EB0400 		add	r0, r8, r4
 347              	.LBE314:
  72:MyProj.cpp    ****         {
 348              		.loc 13 72 26 discriminator 2 view .LVU89
 349 00a4 0434     		adds	r4, r4, #4
 350              	.LBB315:
 351              		.loc 13 79 70 discriminator 2 view .LVU90
 352 00a6 E8EE807A 		vfma.f32	s15, s17, s0
 353              		.loc 13 79 27 discriminator 2 view .LVU91
 354 00aa 0090     		str	r0, [sp]
 355 00ac 27EE270A 		vmul.f32	s0, s14, s15
 356              	.LVL11:
 357              		.loc 13 79 27 discriminator 2 view .LVU92
 358 00b0 FFF7FEFF 		bl	tCycle_setFreq
 359              	.LVL12:
  80:MyProj.cpp    ****             mySample += tCycle_tick(&myCarriers[j]) * myVolumes[j];
 360              		.loc 13 80 13 is_stmt 1 discriminator 2 view .LVU93
 361              		.loc 13 80 36 is_stmt 0 discriminator 2 view .LVU94
 362 00b4 0098     		ldr	r0, [sp]
 363 00b6 FFF7FEFF 		bl	tCycle_tick
 364              	.LVL13:
 365              		.loc 13 80 66 discriminator 2 view .LVU95
ARM GAS  /var/folders/ky/97y1n_614tj15gjp3pmt3wd00000gn/T//cc3mVKw2.s 			page 21


 366 00ba FBEC017A 		vldmia.32	fp!, {s15}
 367              	.LBE315:
  72:MyProj.cpp    ****         {
 368              		.loc 13 72 26 discriminator 2 view .LVU96
 369 00be 0C2C     		cmp	r4, #12
 370              	.LBB316:
 371              		.loc 13 80 22 discriminator 2 view .LVU97
 372 00c0 A0EE278A 		vfma.f32	s16, s0, s15
 373              	.LVL14:
 374              		.loc 13 80 22 discriminator 2 view .LVU98
 375              	.LBE316:
  72:MyProj.cpp    ****         {
 376              		.loc 13 72 9 is_stmt 1 discriminator 2 view .LVU99
  72:MyProj.cpp    ****         {
 377              		.loc 13 72 26 discriminator 2 view .LVU100
 378 00c4 E3D1     		bne	.L10
 379              	.LBE313:
  81:MyProj.cpp    ****         }
  82:MyProj.cpp    **** 
  83:MyProj.cpp    ****         // keep gain at 0-1
  84:MyProj.cpp    ****         mySample /= 3.0f;
 380              		.loc 13 84 9 discriminator 2 view .LVU101
 381              		.loc 13 84 18 is_stmt 0 discriminator 2 view .LVU102
 382 00c6 B0EE087A 		vmov.f32	s14, #3.0e+0
  85:MyProj.cpp    **** 
  86:MyProj.cpp    ****         out[0][i] = mySample;
  87:MyProj.cpp    ****         out[1][i] = mySample;
 383              		.loc 13 87 19 discriminator 2 view .LVU103
 384 00ca D9E90023 		ldrd	r2, r3, [r9]
  84:MyProj.cpp    **** 
 385              		.loc 13 84 18 discriminator 2 view .LVU104
 386 00ce C8EE077A 		vdiv.f32	s15, s16, s14
 387              	.LVL15:
  86:MyProj.cpp    ****         out[1][i] = mySample;
 388              		.loc 13 86 9 is_stmt 1 discriminator 2 view .LVU105
 389              		.loc 13 87 19 is_stmt 0 discriminator 2 view .LVU106
 390 00d2 03EB8603 		add	r3, r3, r6, lsl #2
  86:MyProj.cpp    ****         out[1][i] = mySample;
 391              		.loc 13 86 19 discriminator 2 view .LVU107
 392 00d6 02EB8602 		add	r2, r2, r6, lsl #2
 393              	.LBE312:
  68:MyProj.cpp    ****     {
 394              		.loc 13 68 5 discriminator 2 view .LVU108
 395 00da 0136     		adds	r6, r6, #1
 396              	.LVL16:
 397              	.LBB317:
  86:MyProj.cpp    ****         out[1][i] = mySample;
 398              		.loc 13 86 19 discriminator 2 view .LVU109
 399 00dc C2ED007A 		vstr.32	s15, [r2]
 400              		.loc 13 87 9 is_stmt 1 discriminator 2 view .LVU110
 401              		.loc 13 87 19 is_stmt 0 discriminator 2 view .LVU111
 402 00e0 C3ED007A 		vstr.32	s15, [r3]
 403              	.LBE317:
  68:MyProj.cpp    ****     {
 404              		.loc 13 68 5 is_stmt 1 discriminator 2 view .LVU112
 405              	.LVL17:
  68:MyProj.cpp    ****     {
ARM GAS  /var/folders/ky/97y1n_614tj15gjp3pmt3wd00000gn/T//cc3mVKw2.s 			page 22


 406              		.loc 13 68 25 discriminator 2 view .LVU113
 407 00e4 019B     		ldr	r3, [sp, #4]
 408 00e6 B342     		cmp	r3, r6
 409 00e8 C9D1     		bne	.L9
 410              	.LVL18:
 411              	.L6:
  68:MyProj.cpp    ****     {
 412              		.loc 13 68 25 is_stmt 0 discriminator 2 view .LVU114
 413              	.LBE311:
  88:MyProj.cpp    ****     }
  89:MyProj.cpp    **** }
 414              		.loc 13 89 1 view .LVU115
 415 00ea 03B0     		add	sp, sp, #12
 416              		.cfi_remember_state
 417              		.cfi_def_cfa_offset 44
 418              		@ sp needed
 419 00ec BDEC028B 		vldm	sp!, {d8}
 420              		.cfi_restore 80
 421              		.cfi_restore 81
 422              		.cfi_def_cfa_offset 36
 423 00f0 BDE8F08F 		pop	{r4, r5, r6, r7, r8, r9, r10, fp, pc}
 424              	.LVL19:
 425              	.L15:
 426              		.cfi_restore_state
  45:MyProj.cpp    ****         {
 427              		.loc 13 45 9 is_stmt 1 view .LVU116
  45:MyProj.cpp    ****         {
 428              		.loc 13 45 12 is_stmt 0 view .LVU117
 429 00f4 234B     		ldr	r3, .L17+32
  45:MyProj.cpp    ****         {
 430              		.loc 13 45 9 view .LVU118
 431 00f6 1978     		ldrb	r1, [r3]	@ zero_extendqisi2
 432 00f8 C9B1     		cbz	r1, .L8
  47:MyProj.cpp    ****             myModStrength[selectedVoice] = hw.GetKnobValue(hw.KNOB_2);
 433              		.loc 13 47 13 is_stmt 1 view .LVU119
  47:MyProj.cpp    ****             myModStrength[selectedVoice] = hw.GetKnobValue(hw.KNOB_2);
 434              		.loc 13 47 59 is_stmt 0 view .LVU120
 435 00fa 2046     		mov	r0, r4
 436 00fc 0021     		movs	r1, #0
 437 00fe FFF7FEFF 		bl	_ZN5daisy8DaisyPod12GetKnobValueENS0_4KnobE
 438              	.LVL20:
  47:MyProj.cpp    ****             myModStrength[selectedVoice] = hw.GetKnobValue(hw.KNOB_2);
 439              		.loc 13 47 38 view .LVU121
 440 0102 194F     		ldr	r7, .L17+4
  47:MyProj.cpp    ****             myModStrength[selectedVoice] = hw.GetKnobValue(hw.KNOB_2);
 441              		.loc 13 47 71 view .LVU122
 442 0104 F1EE087A 		vmov.f32	s15, #6.0e+0
  47:MyProj.cpp    ****             myModStrength[selectedVoice] = hw.GetKnobValue(hw.KNOB_2);
 443              		.loc 13 47 42 view .LVU123
 444 0108 184D     		ldr	r5, .L17+8
  47:MyProj.cpp    ****             myModStrength[selectedVoice] = hw.GetKnobValue(hw.KNOB_2);
 445              		.loc 13 47 38 view .LVU124
 446 010a 3B68     		ldr	r3, [r7]
  48:MyProj.cpp    ****         }
 447              		.loc 13 48 59 view .LVU125
 448 010c 2046     		mov	r0, r4
 449 010e 0121     		movs	r1, #1
ARM GAS  /var/folders/ky/97y1n_614tj15gjp3pmt3wd00000gn/T//cc3mVKw2.s 			page 23


 450 0110 174E     		ldr	r6, .L17+12
  47:MyProj.cpp    ****             myModStrength[selectedVoice] = hw.GetKnobValue(hw.KNOB_2);
 451              		.loc 13 47 71 view .LVU126
 452 0112 20EE270A 		vmul.f32	s0, s0, s15
  47:MyProj.cpp    ****             myModStrength[selectedVoice] = hw.GetKnobValue(hw.KNOB_2);
 453              		.loc 13 47 42 view .LVU127
 454 0116 9C00     		lsls	r4, r3, #2
 455 0118 05EB8303 		add	r3, r5, r3, lsl #2
 456 011c 83ED000A 		vstr.32	s0, [r3]
  48:MyProj.cpp    ****         }
 457              		.loc 13 48 13 is_stmt 1 view .LVU128
  48:MyProj.cpp    ****         }
 458              		.loc 13 48 59 is_stmt 0 view .LVU129
 459 0120 FFF7FEFF 		bl	_ZN5daisy8DaisyPod12GetKnobValueENS0_4KnobE
 460              	.LVL21:
  48:MyProj.cpp    ****         }
 461              		.loc 13 48 42 view .LVU130
 462 0124 184B     		ldr	r3, .L17+36
 463 0126 2344     		add	r3, r3, r4
 464 0128 83ED000A 		vstr.32	s0, [r3]
 465 012c 7DE7     		b	.L7
 466              	.L8:
  52:MyProj.cpp    ****             myVolumes[selectedVoice] = hw.GetKnobValue(hw.KNOB_2);
 467              		.loc 13 52 13 is_stmt 1 view .LVU131
  52:MyProj.cpp    ****             myVolumes[selectedVoice] = hw.GetKnobValue(hw.KNOB_2);
 468              		.loc 13 52 55 is_stmt 0 view .LVU132
 469 012e 2046     		mov	r0, r4
  52:MyProj.cpp    ****             myVolumes[selectedVoice] = hw.GetKnobValue(hw.KNOB_2);
 470              		.loc 13 52 36 view .LVU133
 471 0130 0D4F     		ldr	r7, .L17+4
  52:MyProj.cpp    ****             myVolumes[selectedVoice] = hw.GetKnobValue(hw.KNOB_2);
 472              		.loc 13 52 55 view .LVU134
 473 0132 FFF7FEFF 		bl	_ZN5daisy8DaisyPod12GetKnobValueENS0_4KnobE
 474              	.LVL22:
  52:MyProj.cpp    ****             myVolumes[selectedVoice] = hw.GetKnobValue(hw.KNOB_2);
 475              		.loc 13 52 71 view .LVU135
 476 0136 B0EE007A 		vmov.f32	s14, #2.0e+0
 477 013a FFEE007A 		vmov.f32	s15, #-1.0e+0
  53:MyProj.cpp    ****         }
 478              		.loc 13 53 55 view .LVU136
 479 013e 2046     		mov	r0, r4
  52:MyProj.cpp    ****             myVolumes[selectedVoice] = hw.GetKnobValue(hw.KNOB_2);
 480              		.loc 13 52 38 view .LVU137
 481 0140 0B4E     		ldr	r6, .L17+12
  53:MyProj.cpp    ****         }
 482              		.loc 13 53 55 view .LVU138
 483 0142 0121     		movs	r1, #1
  52:MyProj.cpp    ****             myVolumes[selectedVoice] = hw.GetKnobValue(hw.KNOB_2);
 484              		.loc 13 52 36 view .LVU139
 485 0144 3C68     		ldr	r4, [r7]
  52:MyProj.cpp    ****             myVolumes[selectedVoice] = hw.GetKnobValue(hw.KNOB_2);
 486              		.loc 13 52 71 view .LVU140
 487 0146 E0EE077A 		vfma.f32	s15, s0, s14
 488 014a 084D     		ldr	r5, .L17+8
  52:MyProj.cpp    ****             myVolumes[selectedVoice] = hw.GetKnobValue(hw.KNOB_2);
 489              		.loc 13 52 38 view .LVU141
 490 014c 06EB8402 		add	r2, r6, r4, lsl #2
ARM GAS  /var/folders/ky/97y1n_614tj15gjp3pmt3wd00000gn/T//cc3mVKw2.s 			page 24


 491 0150 A400     		lsls	r4, r4, #2
 492 0152 C2ED007A 		vstr.32	s15, [r2]
  53:MyProj.cpp    ****         }
 493              		.loc 13 53 13 is_stmt 1 view .LVU142
  53:MyProj.cpp    ****         }
 494              		.loc 13 53 55 is_stmt 0 view .LVU143
 495 0156 FFF7FEFF 		bl	_ZN5daisy8DaisyPod12GetKnobValueENS0_4KnobE
 496              	.LVL23:
  53:MyProj.cpp    ****         }
 497              		.loc 13 53 38 view .LVU144
 498 015a 0C4B     		ldr	r3, .L17+40
 499 015c 2344     		add	r3, r3, r4
 500 015e 83ED000A 		vstr.32	s0, [r3]
 501 0162 62E7     		b	.L7
 502              	.L18:
 503              		.align	2
 504              	.L17:
 505 0164 00000000 		.word	hw
 506 0168 00000000 		.word	.LANCHOR1
 507 016c 00000000 		.word	.LANCHOR2
 508 0170 00000000 		.word	.LANCHOR4
 509 0174 00000000 		.word	.LANCHOR6
 510 0178 00000000 		.word	.LANCHOR7
 511 017c 00000000 		.word	.LANCHOR8
 512 0180 00000000 		.word	0
 513 0184 00000000 		.word	.LANCHOR0
 514 0188 00000000 		.word	.LANCHOR3
 515 018c 00000000 		.word	.LANCHOR5
 516 0190 00000000 		.word	.LANCHOR9
 517              		.cfi_endproc
 518              	.LFE2542:
 520              		.section	.text.startup.main,"ax",%progbits
 521              		.align	1
 522              		.p2align 2,,3
 523              		.global	main
 524              		.syntax unified
 525              		.thumb
 526              		.thumb_func
 528              	main:
 529              	.LFB2543:
  90:MyProj.cpp    **** 
  91:MyProj.cpp    **** int main(void)
  92:MyProj.cpp    **** {
 530              		.loc 13 92 1 is_stmt 1 view -0
 531              		.cfi_startproc
 532              		@ args = 0, pretend = 0, frame = 0
 533              		@ frame_needed = 0, uses_anonymous_args = 0
  93:MyProj.cpp    ****     hw.Init();
 534              		.loc 13 93 5 view .LVU146
  92:MyProj.cpp    ****     hw.Init();
 535              		.loc 13 92 1 is_stmt 0 view .LVU147
 536 0000 F8B5     		push	{r3, r4, r5, r6, r7, lr}
 537              		.cfi_def_cfa_offset 24
 538              		.cfi_offset 3, -24
 539              		.cfi_offset 4, -20
 540              		.cfi_offset 5, -16
 541              		.cfi_offset 6, -12
ARM GAS  /var/folders/ky/97y1n_614tj15gjp3pmt3wd00000gn/T//cc3mVKw2.s 			page 25


 542              		.cfi_offset 7, -8
 543              		.cfi_offset 14, -4
 544              		.loc 13 93 12 view .LVU148
 545 0002 0021     		movs	r1, #0
 546 0004 6048     		ldr	r0, .L57
 547 0006 FFF7FEFF 		bl	_ZN5daisy8DaisyPod4InitEb
 548              	.LVL24:
  94:MyProj.cpp    ****     hw.SetAudioBlockSize(4); // number of samples handled per callback
 549              		.loc 13 94 5 is_stmt 1 view .LVU149
 550              		.loc 13 94 25 is_stmt 0 view .LVU150
 551 000a 0421     		movs	r1, #4
 552 000c 5E48     		ldr	r0, .L57
 553 000e FFF7FEFF 		bl	_ZN5daisy8DaisyPod17SetAudioBlockSizeEj
 554              	.LVL25:
  95:MyProj.cpp    ****     hw.SetAudioSampleRate(SaiHandle::Config::SampleRate::SAI_48KHZ);
 555              		.loc 13 95 5 is_stmt 1 view .LVU151
 556 0012 5E4C     		ldr	r4, .L57+4
 557              		.loc 13 95 26 is_stmt 0 view .LVU152
 558 0014 0321     		movs	r1, #3
 559 0016 5C48     		ldr	r0, .L57
 560 0018 FFF7FEFF 		bl	_ZN5daisy8DaisyPod18SetAudioSampleRateENS_9SaiHandle6Config10SampleRateE
 561              	.LVL26:
  96:MyProj.cpp    ****     hw.StartAdc();
 562              		.loc 13 96 5 is_stmt 1 view .LVU153
 563              		.loc 13 96 16 is_stmt 0 view .LVU154
 564 001c 5A48     		ldr	r0, .L57
 565 001e FFF7FEFF 		bl	_ZN5daisy8DaisyPod8StartAdcEv
 566              	.LVL27:
  97:MyProj.cpp    ****     hw.StartAudio(AudioCallback);
 567              		.loc 13 97 5 is_stmt 1 view .LVU155
 568 0022 5B4D     		ldr	r5, .L57+8
 569              		.loc 13 97 18 is_stmt 0 view .LVU156
 570 0024 5B49     		ldr	r1, .L57+12
 571 0026 04F10C06 		add	r6, r4, #12
 572 002a 5748     		ldr	r0, .L57
 573 002c FFF7FEFF 		bl	_ZN5daisy8DaisyPod10StartAudioEPFvPKPKfPPfjE
 574              	.LVL28:
  98:MyProj.cpp    ****     LEAF_init(&leaf, 48000, leafMemory, 65535, randomNumber);
 575              		.loc 13 98 5 is_stmt 1 view .LVU157
 576              		.loc 13 98 14 is_stmt 0 view .LVU158
 577 0030 594B     		ldr	r3, .L57+16
 578 0032 4FF6FF72 		movw	r2, #65535
 579 0036 5949     		ldr	r1, .L57+20
 580 0038 9FED590A 		vldr.32	s0, .L57+24
 581 003c 5948     		ldr	r0, .L57+28
 582 003e FFF7FEFF 		bl	LEAF_init
 583              	.LVL29:
  99:MyProj.cpp    **** 
 100:MyProj.cpp    ****     for(int i = 0; i < 3; i++)
 584              		.loc 13 100 5 is_stmt 1 view .LVU159
 585              	.LBB318:
 586              		.loc 13 100 22 view .LVU160
 587              	.L20:
 101:MyProj.cpp    ****     {
 102:MyProj.cpp    ****         tCycle_init(&myCarriers[i], &leaf);
 588              		.loc 13 102 9 discriminator 2 view .LVU161
 589              		.loc 13 102 20 is_stmt 0 discriminator 2 view .LVU162
ARM GAS  /var/folders/ky/97y1n_614tj15gjp3pmt3wd00000gn/T//cc3mVKw2.s 			page 26


 590 0042 2046     		mov	r0, r4
 591 0044 5749     		ldr	r1, .L57+28
 100:MyProj.cpp    ****     {
 592              		.loc 13 100 22 discriminator 2 view .LVU163
 593 0046 0434     		adds	r4, r4, #4
 594              		.loc 13 102 20 discriminator 2 view .LVU164
 595 0048 FFF7FEFF 		bl	tCycle_init
 596              	.LVL30:
 103:MyProj.cpp    ****         tCycle_init(&myModulators[i], &leaf);
 597              		.loc 13 103 9 is_stmt 1 discriminator 2 view .LVU165
 598              		.loc 13 103 20 is_stmt 0 discriminator 2 view .LVU166
 599 004c 2846     		mov	r0, r5
 600 004e 5549     		ldr	r1, .L57+28
 601 0050 FFF7FEFF 		bl	tCycle_init
 602              	.LVL31:
 100:MyProj.cpp    ****     {
 603              		.loc 13 100 5 is_stmt 1 discriminator 2 view .LVU167
 100:MyProj.cpp    ****     {
 604              		.loc 13 100 22 discriminator 2 view .LVU168
 605 0054 A642     		cmp	r6, r4
 606 0056 05F10405 		add	r5, r5, #4
 607 005a F2D1     		bne	.L20
 608 005c 4A4C     		ldr	r4, .L57
 609 005e 524D     		ldr	r5, .L57+32
 610 0060 524F     		ldr	r7, .L57+36
 611 0062 534E     		ldr	r6, .L57+40
 612 0064 33E0     		b	.L41
 613              	.LVL32:
 614              	.L21:
 100:MyProj.cpp    ****     {
 615              		.loc 13 100 22 is_stmt 0 discriminator 2 view .LVU169
 616              	.LBE318:
 104:MyProj.cpp    ****     }
 105:MyProj.cpp    **** 
 106:MyProj.cpp    ****     while(1)
 107:MyProj.cpp    ****     {
 108:MyProj.cpp    ****         hw.button1.Debounce();
 109:MyProj.cpp    ****         hw.encoder.Debounce();
 110:MyProj.cpp    **** 
 111:MyProj.cpp    ****         // button 1 cycles through selected voices
 112:MyProj.cpp    ****         if(hw.button1.RisingEdge())
 617              		.loc 13 112 9 view .LVU170
 618 0066 94F8B630 		ldrb	r3, [r4, #182]	@ zero_extendqisi2
 619 006a 7F2B     		cmp	r3, #127
 620 006c 39D1     		bne	.L23
 113:MyProj.cpp    ****         {
 114:MyProj.cpp    ****             selectedVoice += 1;
 621              		.loc 13 114 13 is_stmt 1 view .LVU171
 622              		.loc 13 114 27 is_stmt 0 view .LVU172
 623 006e 2B68     		ldr	r3, [r5]
 624 0070 0133     		adds	r3, r3, #1
 115:MyProj.cpp    ****             if(selectedVoice > 2)
 625              		.loc 13 115 13 is_stmt 1 view .LVU173
 626 0072 022B     		cmp	r3, #2
 627 0074 77DC     		bgt	.L24
 114:MyProj.cpp    ****             if(selectedVoice > 2)
 628              		.loc 13 114 27 is_stmt 0 view .LVU174
ARM GAS  /var/folders/ky/97y1n_614tj15gjp3pmt3wd00000gn/T//cc3mVKw2.s 			page 27


 629 0076 2B60     		str	r3, [r5]
 630              	.L22:
 116:MyProj.cpp    ****             {
 117:MyProj.cpp    ****                 selectedVoice = 0;
 118:MyProj.cpp    ****             }
 119:MyProj.cpp    ****         }
 120:MyProj.cpp    **** 
 121:MyProj.cpp    ****         // encoder button switches knob modes
 122:MyProj.cpp    ****         if(hw.encoder.RisingEdge())
 631              		.loc 13 122 9 is_stmt 1 view .LVU175
 632              	.LVL33:
 633              	.LBB319:
 634              	.LBI319:
  22:../../libDaisy//src/hid/encoder.h **** 
  23:../../libDaisy//src/hid/encoder.h ****     /** Initializes the encoder with the specified hardware pins.
  24:../../libDaisy//src/hid/encoder.h ****      * Update rate is to be deprecated in a future release
  25:../../libDaisy//src/hid/encoder.h ****      */
  26:../../libDaisy//src/hid/encoder.h ****     void Init(dsy_gpio_pin a,
  27:../../libDaisy//src/hid/encoder.h ****               dsy_gpio_pin b,
  28:../../libDaisy//src/hid/encoder.h ****               dsy_gpio_pin click,
  29:../../libDaisy//src/hid/encoder.h ****               float        update_rate = 0.f);
  30:../../libDaisy//src/hid/encoder.h ****     /** Called at update_rate to debounce and handle timing for the switch.
  31:../../libDaisy//src/hid/encoder.h ****      * In order for events not to be missed, its important that the Edge/Pressed checks be made at 
  32:../../libDaisy//src/hid/encoder.h ****      */
  33:../../libDaisy//src/hid/encoder.h ****     void Debounce();
  34:../../libDaisy//src/hid/encoder.h **** 
  35:../../libDaisy//src/hid/encoder.h ****     /** Returns +1 if the encoder was turned clockwise, -1 if it was turned counter-clockwise, or 0
  36:../../libDaisy//src/hid/encoder.h ****     inline int32_t Increment() const { return updated_ ? inc_ : 0; }
  37:../../libDaisy//src/hid/encoder.h **** 
  38:../../libDaisy//src/hid/encoder.h ****     /** Returns true if the encoder was just pressed. */
  39:../../libDaisy//src/hid/encoder.h ****     inline bool RisingEdge() const { return sw_.RisingEdge(); }
 635              		.loc 7 39 17 view .LVU176
 636              	.LBE319:
 637              		.loc 7 39 38 view .LVU177
 638              	.LBB326:
 639              	.LBB320:
 640              	.LBI320:
  70:../../libDaisy//src/hid/switch.h **** 
 641              		.loc 5 70 17 view .LVU178
 642              	.LBB321:
  70:../../libDaisy//src/hid/switch.h **** 
 643              		.loc 5 70 38 view .LVU179
  70:../../libDaisy//src/hid/switch.h **** 
 644              		.loc 5 70 54 is_stmt 0 view .LVU180
 645 0078 94F84820 		ldrb	r2, [r4, #72]	@ zero_extendqisi2
 646 007c 002A     		cmp	r2, #0
 647 007e 35D0     		beq	.L28
 648              	.L25:
 649              	.LVL34:
  70:../../libDaisy//src/hid/switch.h **** 
 650              		.loc 5 70 54 view .LVU181
 651              	.LBE321:
 652              	.LBE320:
 653              	.LBE326:
 654              		.loc 13 122 9 view .LVU182
 655 0080 94F84E20 		ldrb	r2, [r4, #78]	@ zero_extendqisi2
 656 0084 7F2A     		cmp	r2, #127
ARM GAS  /var/folders/ky/97y1n_614tj15gjp3pmt3wd00000gn/T//cc3mVKw2.s 			page 28


 657 0086 31D1     		bne	.L28
 123:MyProj.cpp    ****         {
 124:MyProj.cpp    ****             switch(inputMode)
 658              		.loc 13 124 13 is_stmt 1 view .LVU183
 659              		.loc 13 124 20 is_stmt 0 view .LVU184
 660 0088 3978     		ldrb	r1, [r7]	@ zero_extendqisi2
 661              		.loc 13 124 13 view .LVU185
 662 008a 0029     		cmp	r1, #0
 663 008c 6FD0     		beq	.L29
 664 008e 0129     		cmp	r1, #1
 665 0090 64D1     		bne	.L54
 125:MyProj.cpp    ****             {
 126:MyProj.cpp    ****                 case Frequency: inputMode = Timbre; break;
 127:MyProj.cpp    ****                 case Timbre: inputMode = Frequency; break;
 666              		.loc 13 127 17 is_stmt 1 view .LVU186
 667              		.loc 13 127 30 view .LVU187
 668              		.loc 13 127 40 is_stmt 0 view .LVU188
 669 0092 0021     		movs	r1, #0
 670              	.LBB327:
 671              	.LBB328:
  36:../../libDaisy//src/hid/encoder.h **** 
 672              		.loc 7 36 56 view .LVU189
 673 0094 94F84020 		ldrb	r2, [r4, #64]	@ zero_extendqisi2
 674              	.LBE328:
 675              	.LBE327:
 676              		.loc 13 127 40 view .LVU190
 677 0098 3970     		strb	r1, [r7]
 678              		.loc 13 127 53 is_stmt 1 view .LVU191
 128:MyProj.cpp    ****             }
 129:MyProj.cpp    ****         }
 130:MyProj.cpp    **** 
 131:MyProj.cpp    ****         // encoder wheel shifts midi note of voice
 132:MyProj.cpp    ****         myNotes[selectedVoice] += hw.encoder.Increment();
 679              		.loc 13 132 9 view .LVU192
 680              	.LVL35:
 681              	.LBB335:
 682              	.LBI327:
  36:../../libDaisy//src/hid/encoder.h **** 
 683              		.loc 7 36 20 view .LVU193
 684              	.LBB329:
  36:../../libDaisy//src/hid/encoder.h **** 
 685              		.loc 7 36 40 view .LVU194
  36:../../libDaisy//src/hid/encoder.h **** 
 686              		.loc 7 36 56 is_stmt 0 view .LVU195
 687 009a 2AB1     		cbz	r2, .L35
 688              	.LVL36:
  36:../../libDaisy//src/hid/encoder.h **** 
 689              		.loc 7 36 56 view .LVU196
 690              	.LBE329:
 691              	.LBE335:
 692              		.loc 13 132 32 view .LVU197
 693 009c 56F82310 		ldr	r1, [r6, r3, lsl #2]
 694 00a0 226E     		ldr	r2, [r4, #96]
 695 00a2 0A44     		add	r2, r2, r1
 696 00a4 46F82320 		str	r2, [r6, r3, lsl #2]
 133:MyProj.cpp    **** 
 134:MyProj.cpp    ****         // update LED 2 based on input mode
ARM GAS  /var/folders/ky/97y1n_614tj15gjp3pmt3wd00000gn/T//cc3mVKw2.s 			page 29


 135:MyProj.cpp    ****         // tuning/volume mode = magenta
 136:MyProj.cpp    ****         // fm/timbre mode     = yellow
 137:MyProj.cpp    ****         switch(inputMode)
 697              		.loc 13 137 9 is_stmt 1 view .LVU198
 698              	.L35:
 138:MyProj.cpp    ****         {
 139:MyProj.cpp    ****             case Frequency: hw.led2.Set(1, 0, 1); break;
 699              		.loc 13 139 13 view .LVU199
 700              		.loc 13 139 29 view .LVU200
 701              		.loc 13 139 40 is_stmt 0 view .LVU201
 702 00a8 B7EE001A 		vmov.f32	s2, #1.0e+0
 703 00ac DFED410A 		vldr.32	s1, .L57+44
 704 00b0 4148     		ldr	r0, .L57+48
 705 00b2 B0EE410A 		vmov.f32	s0, s2
 706 00b6 FFF7FEFF 		bl	_ZN5daisy6RgbLed3SetEfff
 707              	.LVL37:
 708              		.loc 13 139 51 is_stmt 1 view .LVU202
 140:MyProj.cpp    ****             case Timbre: hw.led2.Set(1, 1, 0); break;
 141:MyProj.cpp    ****         }
 142:MyProj.cpp    **** 
 143:MyProj.cpp    ****         // update LED 1 based on selected voice
 144:MyProj.cpp    ****         // voice 0 = red
 145:MyProj.cpp    ****         // voice 1 = green
 146:MyProj.cpp    ****         // voice 2 = blue
 147:MyProj.cpp    ****         switch(selectedVoice)
 709              		.loc 13 147 9 is_stmt 0 view .LVU203
 710 00ba 2B68     		ldr	r3, [r5]
 711              	.L37:
 712              		.loc 13 147 9 is_stmt 1 view .LVU204
 713 00bc 012B     		cmp	r3, #1
 714 00be 2FD0     		beq	.L38
 715              	.L56:
 716 00c0 022B     		cmp	r3, #2
 717 00c2 37D0     		beq	.L39
 718 00c4 002B     		cmp	r3, #0
 719 00c6 3FD0     		beq	.L55
 720              	.L40:
 148:MyProj.cpp    ****         {
 149:MyProj.cpp    ****             case 0: hw.led1.Set(1, 0, 0); break;
 150:MyProj.cpp    ****             case 1: hw.led1.Set(0, 1, 0); break;
 151:MyProj.cpp    ****             case 2: hw.led1.Set(0, 0, 1); break;
 152:MyProj.cpp    ****         }
 153:MyProj.cpp    **** 
 154:MyProj.cpp    ****         hw.UpdateLeds();
 721              		.loc 13 154 9 view .LVU205
 722              		.loc 13 154 22 is_stmt 0 view .LVU206
 723 00c8 2F48     		ldr	r0, .L57
 724 00ca FFF7FEFF 		bl	_ZN5daisy8DaisyPod10UpdateLedsEv
 725              	.LVL38:
 106:MyProj.cpp    ****     {
 726              		.loc 13 106 5 is_stmt 1 view .LVU207
 727              	.L41:
 106:MyProj.cpp    ****     {
 728              		.loc 13 106 5 view .LVU208
 108:MyProj.cpp    ****         hw.encoder.Debounce();
 729              		.loc 13 108 9 view .LVU209
 108:MyProj.cpp    ****         hw.encoder.Debounce();
ARM GAS  /var/folders/ky/97y1n_614tj15gjp3pmt3wd00000gn/T//cc3mVKw2.s 			page 30


 730              		.loc 13 108 28 is_stmt 0 view .LVU210
 731 00ce 3B48     		ldr	r0, .L57+52
 732 00d0 FFF7FEFF 		bl	_ZN5daisy6Switch8DebounceEv
 733              	.LVL39:
 109:MyProj.cpp    **** 
 734              		.loc 13 109 9 is_stmt 1 view .LVU211
 109:MyProj.cpp    **** 
 735              		.loc 13 109 28 is_stmt 0 view .LVU212
 736 00d4 3A48     		ldr	r0, .L57+56
 737 00d6 FFF7FEFF 		bl	_ZN5daisy7Encoder8DebounceEv
 738              	.LVL40:
 112:MyProj.cpp    ****         {
 739              		.loc 13 112 9 is_stmt 1 view .LVU213
 740              	.LBB336:
 741              	.LBI336:
  70:../../libDaisy//src/hid/switch.h **** 
 742              		.loc 5 70 17 view .LVU214
 743              	.LBB337:
  70:../../libDaisy//src/hid/switch.h **** 
 744              		.loc 5 70 38 view .LVU215
  70:../../libDaisy//src/hid/switch.h **** 
 745              		.loc 5 70 54 is_stmt 0 view .LVU216
 746 00da 94F8B030 		ldrb	r3, [r4, #176]	@ zero_extendqisi2
 747 00de 002B     		cmp	r3, #0
 748 00e0 C1D1     		bne	.L21
 749              	.LVL41:
 750              	.L23:
  70:../../libDaisy//src/hid/switch.h **** 
 751              		.loc 5 70 54 view .LVU217
 752              	.LBE337:
 753              	.LBE336:
 754              	.LBB338:
 755              	.LBB324:
 756              	.LBB322:
 757 00e2 94F84820 		ldrb	r2, [r4, #72]	@ zero_extendqisi2
 758              	.LBE322:
 759              	.LBE324:
 760              	.LBE338:
 132:MyProj.cpp    **** 
 761              		.loc 13 132 32 view .LVU218
 762 00e6 2B68     		ldr	r3, [r5]
 122:MyProj.cpp    ****         {
 763              		.loc 13 122 9 is_stmt 1 view .LVU219
 764              	.LVL42:
 765              	.LBB339:
 766              		.loc 7 39 17 view .LVU220
 767              	.LBE339:
 768              		.loc 7 39 38 view .LVU221
 769              	.LBB340:
 770              	.LBB325:
  70:../../libDaisy//src/hid/switch.h **** 
 771              		.loc 5 70 17 view .LVU222
 772              	.LBB323:
  70:../../libDaisy//src/hid/switch.h **** 
 773              		.loc 5 70 38 view .LVU223
  70:../../libDaisy//src/hid/switch.h **** 
 774              		.loc 5 70 54 is_stmt 0 view .LVU224
ARM GAS  /var/folders/ky/97y1n_614tj15gjp3pmt3wd00000gn/T//cc3mVKw2.s 			page 31


 775 00e8 002A     		cmp	r2, #0
 776 00ea C9D1     		bne	.L25
 777              	.LVL43:
 778              	.L28:
  70:../../libDaisy//src/hid/switch.h **** 
 779              		.loc 5 70 54 view .LVU225
 780              	.LBE323:
 781              	.LBE325:
 782              	.LBE340:
 783              	.LBB341:
 784              	.LBB330:
  36:../../libDaisy//src/hid/encoder.h **** 
 785              		.loc 7 36 56 view .LVU226
 786 00ec 94F84020 		ldrb	r2, [r4, #64]	@ zero_extendqisi2
 787              	.LBE330:
 788              	.LBE341:
 137:MyProj.cpp    ****         {
 789              		.loc 13 137 16 view .LVU227
 790 00f0 3978     		ldrb	r1, [r7]	@ zero_extendqisi2
 132:MyProj.cpp    **** 
 791              		.loc 13 132 9 is_stmt 1 view .LVU228
 792              	.LVL44:
 793              	.LBB342:
  36:../../libDaisy//src/hid/encoder.h **** 
 794              		.loc 7 36 20 view .LVU229
 795              	.LBB331:
  36:../../libDaisy//src/hid/encoder.h **** 
 796              		.loc 7 36 40 view .LVU230
  36:../../libDaisy//src/hid/encoder.h **** 
 797              		.loc 7 36 56 is_stmt 0 view .LVU231
 798 00f2 02B1     		cbz	r2, .L27
 799              	.L26:
 800 00f4 226E     		ldr	r2, [r4, #96]
 801              	.L27:
 802              	.LVL45:
  36:../../libDaisy//src/hid/encoder.h **** 
 803              		.loc 7 36 56 view .LVU232
 804              	.LBE331:
 805              	.LBE342:
 132:MyProj.cpp    **** 
 806              		.loc 13 132 32 view .LVU233
 807 00f6 56F82300 		ldr	r0, [r6, r3, lsl #2]
 808 00fa 0244     		add	r2, r2, r0
 809 00fc 46F82320 		str	r2, [r6, r3, lsl #2]
 137:MyProj.cpp    ****         {
 810              		.loc 13 137 9 is_stmt 1 view .LVU234
 811 0100 0029     		cmp	r1, #0
 812 0102 D1D0     		beq	.L35
 813 0104 0129     		cmp	r1, #1
 814 0106 D9D1     		bne	.L37
 815              	.L36:
 140:MyProj.cpp    ****         }
 816              		.loc 13 140 13 view .LVU235
 140:MyProj.cpp    ****         }
 817              		.loc 13 140 26 view .LVU236
 140:MyProj.cpp    ****         }
 818              		.loc 13 140 37 is_stmt 0 view .LVU237
ARM GAS  /var/folders/ky/97y1n_614tj15gjp3pmt3wd00000gn/T//cc3mVKw2.s 			page 32


 819 0108 F7EE000A 		vmov.f32	s1, #1.0e+0
 820 010c 9FED291A 		vldr.32	s2, .L57+44
 821 0110 2948     		ldr	r0, .L57+48
 822 0112 B0EE600A 		vmov.f32	s0, s1
 823 0116 FFF7FEFF 		bl	_ZN5daisy6RgbLed3SetEfff
 824              	.LVL46:
 140:MyProj.cpp    ****         }
 825              		.loc 13 140 48 is_stmt 1 view .LVU238
 147:MyProj.cpp    ****         {
 826              		.loc 13 147 9 is_stmt 0 view .LVU239
 827 011a 2B68     		ldr	r3, [r5]
 147:MyProj.cpp    ****         {
 828              		.loc 13 147 9 is_stmt 1 view .LVU240
 829 011c 012B     		cmp	r3, #1
 830 011e CFD1     		bne	.L56
 831              	.L38:
 150:MyProj.cpp    ****             case 2: hw.led1.Set(0, 0, 1); break;
 832              		.loc 13 150 13 view .LVU241
 150:MyProj.cpp    ****             case 2: hw.led1.Set(0, 0, 1); break;
 833              		.loc 13 150 21 view .LVU242
 150:MyProj.cpp    ****             case 2: hw.led1.Set(0, 0, 1); break;
 834              		.loc 13 150 32 is_stmt 0 view .LVU243
 835 0120 9FED241A 		vldr.32	s2, .L57+44
 836 0124 F7EE000A 		vmov.f32	s1, #1.0e+0
 837 0128 2648     		ldr	r0, .L57+60
 838 012a B0EE410A 		vmov.f32	s0, s2
 839 012e FFF7FEFF 		bl	_ZN5daisy6RgbLed3SetEfff
 840              	.LVL47:
 150:MyProj.cpp    ****             case 2: hw.led1.Set(0, 0, 1); break;
 841              		.loc 13 150 43 is_stmt 1 view .LVU244
 842 0132 C9E7     		b	.L40
 843              	.L39:
 151:MyProj.cpp    ****         }
 844              		.loc 13 151 13 view .LVU245
 151:MyProj.cpp    ****         }
 845              		.loc 13 151 21 view .LVU246
 151:MyProj.cpp    ****         }
 846              		.loc 13 151 32 is_stmt 0 view .LVU247
 847 0134 DFED1F0A 		vldr.32	s1, .L57+44
 848 0138 B7EE001A 		vmov.f32	s2, #1.0e+0
 849 013c 2148     		ldr	r0, .L57+60
 850 013e B0EE600A 		vmov.f32	s0, s1
 851 0142 FFF7FEFF 		bl	_ZN5daisy6RgbLed3SetEfff
 852              	.LVL48:
 151:MyProj.cpp    ****         }
 853              		.loc 13 151 43 is_stmt 1 view .LVU248
 854 0146 BFE7     		b	.L40
 855              	.L55:
 149:MyProj.cpp    ****             case 1: hw.led1.Set(0, 1, 0); break;
 856              		.loc 13 149 13 view .LVU249
 149:MyProj.cpp    ****             case 1: hw.led1.Set(0, 1, 0); break;
 857              		.loc 13 149 21 view .LVU250
 149:MyProj.cpp    ****             case 1: hw.led1.Set(0, 1, 0); break;
 858              		.loc 13 149 32 is_stmt 0 view .LVU251
 859 0148 9FED1A1A 		vldr.32	s2, .L57+44
 860 014c B7EE000A 		vmov.f32	s0, #1.0e+0
 861 0150 1C48     		ldr	r0, .L57+60
ARM GAS  /var/folders/ky/97y1n_614tj15gjp3pmt3wd00000gn/T//cc3mVKw2.s 			page 33


 862 0152 F0EE410A 		vmov.f32	s1, s2
 863 0156 FFF7FEFF 		bl	_ZN5daisy6RgbLed3SetEfff
 864              	.LVL49:
 149:MyProj.cpp    ****             case 1: hw.led1.Set(0, 1, 0); break;
 865              		.loc 13 149 43 is_stmt 1 view .LVU252
 866 015a B5E7     		b	.L40
 867              	.L54:
 132:MyProj.cpp    **** 
 868              		.loc 13 132 9 view .LVU253
 869              	.LVL50:
 870              	.LBB343:
  36:../../libDaisy//src/hid/encoder.h **** 
 871              		.loc 7 36 20 view .LVU254
 872              	.LBB332:
  36:../../libDaisy//src/hid/encoder.h **** 
 873              		.loc 7 36 40 view .LVU255
  36:../../libDaisy//src/hid/encoder.h **** 
 874              		.loc 7 36 56 is_stmt 0 view .LVU256
 875 015c 94F84020 		ldrb	r2, [r4, #64]	@ zero_extendqisi2
 876 0160 002A     		cmp	r2, #0
 877 0162 C7D1     		bne	.L26
 878 0164 AAE7     		b	.L37
 879              	.LVL51:
 880              	.L24:
  36:../../libDaisy//src/hid/encoder.h **** 
 881              		.loc 7 36 56 view .LVU257
 882              	.LBE332:
 883              	.LBE343:
 117:MyProj.cpp    ****             }
 884              		.loc 13 117 17 is_stmt 1 view .LVU258
 117:MyProj.cpp    ****             }
 885              		.loc 13 117 31 is_stmt 0 view .LVU259
 886 0166 0022     		movs	r2, #0
 887 0168 1346     		mov	r3, r2
 888 016a 2A60     		str	r2, [r5]
 889 016c 84E7     		b	.L22
 890              	.L29:
 126:MyProj.cpp    ****                 case Timbre: inputMode = Frequency; break;
 891              		.loc 13 126 17 is_stmt 1 view .LVU260
 126:MyProj.cpp    ****                 case Timbre: inputMode = Frequency; break;
 892              		.loc 13 126 33 view .LVU261
 126:MyProj.cpp    ****                 case Timbre: inputMode = Frequency; break;
 893              		.loc 13 126 43 is_stmt 0 view .LVU262
 894 016e 0121     		movs	r1, #1
 895              	.LBB344:
 896              	.LBB333:
  36:../../libDaisy//src/hid/encoder.h **** 
 897              		.loc 7 36 56 view .LVU263
 898 0170 94F84020 		ldrb	r2, [r4, #64]	@ zero_extendqisi2
 899              	.LBE333:
 900              	.LBE344:
 126:MyProj.cpp    ****                 case Timbre: inputMode = Frequency; break;
 901              		.loc 13 126 43 view .LVU264
 902 0174 3970     		strb	r1, [r7]
 126:MyProj.cpp    ****                 case Timbre: inputMode = Frequency; break;
 903              		.loc 13 126 53 is_stmt 1 view .LVU265
 132:MyProj.cpp    **** 
ARM GAS  /var/folders/ky/97y1n_614tj15gjp3pmt3wd00000gn/T//cc3mVKw2.s 			page 34


 904              		.loc 13 132 9 view .LVU266
 905              	.LVL52:
 906              	.LBB345:
  36:../../libDaisy//src/hid/encoder.h **** 
 907              		.loc 7 36 20 view .LVU267
 908              	.LBB334:
  36:../../libDaisy//src/hid/encoder.h **** 
 909              		.loc 7 36 40 view .LVU268
  36:../../libDaisy//src/hid/encoder.h **** 
 910              		.loc 7 36 56 is_stmt 0 view .LVU269
 911 0176 002A     		cmp	r2, #0
 912 0178 C6D0     		beq	.L36
 913              	.LVL53:
  36:../../libDaisy//src/hid/encoder.h **** 
 914              		.loc 7 36 56 view .LVU270
 915              	.LBE334:
 916              	.LBE345:
 132:MyProj.cpp    **** 
 917              		.loc 13 132 32 view .LVU271
 918 017a 56F82310 		ldr	r1, [r6, r3, lsl #2]
 919 017e 226E     		ldr	r2, [r4, #96]
 920 0180 0A44     		add	r2, r2, r1
 921 0182 46F82320 		str	r2, [r6, r3, lsl #2]
 137:MyProj.cpp    ****         {
 922              		.loc 13 137 9 is_stmt 1 view .LVU272
 923 0186 BFE7     		b	.L36
 924              	.L58:
 925              		.align	2
 926              	.L57:
 927 0188 00000000 		.word	hw
 928 018c 00000000 		.word	.LANCHOR9
 929 0190 00000000 		.word	.LANCHOR8
 930 0194 00000000 		.word	_Z13AudioCallbackPKPKfPPfj
 931 0198 00000000 		.word	_Z12randomNumberv
 932 019c 00000000 		.word	leafMemory
 933 01a0 00803B47 		.word	1195081728
 934 01a4 00000000 		.word	.LANCHOR10
 935 01a8 00000000 		.word	.LANCHOR1
 936 01ac 00000000 		.word	.LANCHOR0
 937 01b0 00000000 		.word	.LANCHOR6
 938 01b4 00000000 		.word	0
 939 01b8 28010000 		.word	hw+296
 940 01bc AC000000 		.word	hw+172
 941 01c0 3C000000 		.word	hw+60
 942 01c4 D4000000 		.word	hw+212
 943              		.cfi_endproc
 944              	.LFE2543:
 946              		.section	.text.startup._GLOBAL__sub_I_leaf,"ax",%progbits
 947              		.align	1
 948              		.p2align 2,,3
 949              		.syntax unified
 950              		.thumb
 951              		.thumb_func
 953              	_GLOBAL__sub_I_leaf:
 954              	.LFB2571:
 155:MyProj.cpp    ****     }
 156:MyProj.cpp    **** }
ARM GAS  /var/folders/ky/97y1n_614tj15gjp3pmt3wd00000gn/T//cc3mVKw2.s 			page 35


 955              		.loc 13 156 1 view -0
 956              		.cfi_startproc
 957              		@ args = 0, pretend = 0, frame = 0
 958              		@ frame_needed = 0, uses_anonymous_args = 0
 959              	.LBB411:
 960              	.LBI411:
 961              		.loc 13 156 1 view .LVU274
 962              	.LVL54:
 963              	.LBB412:
 964              	.LBB413:
 965              	.LBI413:
  35:../../libDaisy//src/daisy_pod.h ****     ~DaisyPod() {}
 966              		.loc 1 35 5 view .LVU275
 967              	.LBB414:
 968              	.LBB415:
 969              	.LBI415:
  21:../../libDaisy//src/daisy_seed.h ****     ~DaisySeed() {}
 970              		.loc 8 21 5 view .LVU276
 971              	.LBB416:
 972              	.LBB417:
 973              	.LBI417:
 974              		.file 14 "../../libDaisy//src/per/qspi.h"
   1:../../libDaisy//src/per/qspi.h **** #ifndef DSY_QSPI
   2:../../libDaisy//src/per/qspi.h **** #define DSY_QSPI /**< Macro */
   3:../../libDaisy//src/per/qspi.h **** 
   4:../../libDaisy//src/per/qspi.h **** #ifndef UNIT_TEST // for unit tests, a dummy implementation
   5:../../libDaisy//src/per/qspi.h **** 
   6:../../libDaisy//src/per/qspi.h **** #include <cstdint>
   7:../../libDaisy//src/per/qspi.h **** #include "daisy_core.h" // Added for dsy_gpio_pin typedef
   8:../../libDaisy//src/per/qspi.h **** 
   9:../../libDaisy//src/per/qspi.h **** #define DSY_QSPI_TEXT       \
  10:../../libDaisy//src/per/qspi.h ****     __attribute__((section( \
  11:../../libDaisy//src/per/qspi.h ****         ".qspiflash_text"))) /**< used for reading memory in memory_mapped mode. */
  12:../../libDaisy//src/per/qspi.h **** #define DSY_QSPI_DATA       \
  13:../../libDaisy//src/per/qspi.h ****     __attribute__((section( \
  14:../../libDaisy//src/per/qspi.h ****         ".qspiflash_data"))) /**< used for reading memory in memory_mapped mode. */
  15:../../libDaisy//src/per/qspi.h **** #define DSY_QSPI_BSS        \
  16:../../libDaisy//src/per/qspi.h ****     __attribute__((section( \
  17:../../libDaisy//src/per/qspi.h ****         ".qspiflash_bss"))) /**< used for reading memory in memory_mapped mode. */
  18:../../libDaisy//src/per/qspi.h **** 
  19:../../libDaisy//src/per/qspi.h **** namespace daisy
  20:../../libDaisy//src/per/qspi.h **** {
  21:../../libDaisy//src/per/qspi.h **** /** @addtogroup serial
  22:../../libDaisy//src/per/qspi.h **** @{
  23:../../libDaisy//src/per/qspi.h **** */
  24:../../libDaisy//src/per/qspi.h **** 
  25:../../libDaisy//src/per/qspi.h **** /** 
  26:../../libDaisy//src/per/qspi.h ****  Driver for QSPI peripheral to interface with external flash memory. \n 
  27:../../libDaisy//src/per/qspi.h ****     Currently supported QSPI Devices: \n 
  28:../../libDaisy//src/per/qspi.h ****     * IS25LP080D
  29:../../libDaisy//src/per/qspi.h **** */
  30:../../libDaisy//src/per/qspi.h **** class QSPIHandle
  31:../../libDaisy//src/per/qspi.h **** {
  32:../../libDaisy//src/per/qspi.h ****   public:
  33:../../libDaisy//src/per/qspi.h ****     enum Result
  34:../../libDaisy//src/per/qspi.h ****     {
  35:../../libDaisy//src/per/qspi.h ****         OK = 0,
ARM GAS  /var/folders/ky/97y1n_614tj15gjp3pmt3wd00000gn/T//cc3mVKw2.s 			page 36


  36:../../libDaisy//src/per/qspi.h ****         ERR
  37:../../libDaisy//src/per/qspi.h ****     };
  38:../../libDaisy//src/per/qspi.h **** 
  39:../../libDaisy//src/per/qspi.h ****     /** Indicates the current status of the module. 
  40:../../libDaisy//src/per/qspi.h ****          *  Warnings are indicated by a leading W.
  41:../../libDaisy//src/per/qspi.h ****          *  Errors are indicated by a leading E and cause an immediate exit.
  42:../../libDaisy//src/per/qspi.h ****          * 
  43:../../libDaisy//src/per/qspi.h ****          *  \param GOOD - No errors have been reported.
  44:../../libDaisy//src/per/qspi.h ****          *  \param E_HAL_ERROR - HAL code did not return HAL_OK.
  45:../../libDaisy//src/per/qspi.h ****          *  \param E_SWITCHING_MODES - An error was encountered while switching QSPI peripheral mod
  46:../../libDaisy//src/per/qspi.h ****          *  \param E_INVALID_MODE - QSPI should not be written to while the program is executing fr
  47:../../libDaisy//src/per/qspi.h ****          */
  48:../../libDaisy//src/per/qspi.h ****     enum Status
  49:../../libDaisy//src/per/qspi.h ****     {
  50:../../libDaisy//src/per/qspi.h ****         GOOD = 0,
  51:../../libDaisy//src/per/qspi.h ****         E_HAL_ERROR,
  52:../../libDaisy//src/per/qspi.h ****         E_SWITCHING_MODES,
  53:../../libDaisy//src/per/qspi.h ****         E_INVALID_MODE,
  54:../../libDaisy//src/per/qspi.h ****     };
  55:../../libDaisy//src/per/qspi.h **** 
  56:../../libDaisy//src/per/qspi.h ****     /** Configuration structure for interfacing with QSPI Driver */
  57:../../libDaisy//src/per/qspi.h ****     struct Config
  58:../../libDaisy//src/per/qspi.h ****     {
  59:../../libDaisy//src/per/qspi.h ****         /** Flash Devices supported. (Both of these are more-or-less the same, just different sizes
  60:../../libDaisy//src/per/qspi.h ****         enum Device
  61:../../libDaisy//src/per/qspi.h ****         {
  62:../../libDaisy//src/per/qspi.h ****             IS25LP080D,  /**< & */
  63:../../libDaisy//src/per/qspi.h ****             IS25LP064A,  /**< & */
  64:../../libDaisy//src/per/qspi.h ****             DEVICE_LAST, /**< & */
  65:../../libDaisy//src/per/qspi.h ****         };
  66:../../libDaisy//src/per/qspi.h **** 
  67:../../libDaisy//src/per/qspi.h ****         /** 
  68:../../libDaisy//src/per/qspi.h ****         Modes of operation.
  69:../../libDaisy//src/per/qspi.h ****         Memory Mapped mode: QSPI configured so that the QSPI can be
  70:../../libDaisy//src/per/qspi.h ****         read from starting address 0x90000000. Writing is not
  71:../../libDaisy//src/per/qspi.h ****         possible in this mode. \n 
  72:../../libDaisy//src/per/qspi.h ****         Indirect Polling mode: Device driver enabled. 
  73:../../libDaisy//src/per/qspi.h ****         */
  74:../../libDaisy//src/per/qspi.h ****         enum Mode
  75:../../libDaisy//src/per/qspi.h ****         {
  76:../../libDaisy//src/per/qspi.h ****             MEMORY_MAPPED,    /**< & */
  77:../../libDaisy//src/per/qspi.h ****             INDIRECT_POLLING, /**< & */
  78:../../libDaisy//src/per/qspi.h ****             MODE_LAST,
  79:../../libDaisy//src/per/qspi.h ****         };
  80:../../libDaisy//src/per/qspi.h **** 
  81:../../libDaisy//src/per/qspi.h ****         //SCK,  CE# (active low)
  82:../../libDaisy//src/per/qspi.h ****         struct
  83:../../libDaisy//src/per/qspi.h ****         {
  84:../../libDaisy//src/per/qspi.h ****             dsy_gpio_pin io0; /**< & */
  85:../../libDaisy//src/per/qspi.h ****             dsy_gpio_pin io1; /**< & */
  86:../../libDaisy//src/per/qspi.h ****             dsy_gpio_pin io2; /**< & */
  87:../../libDaisy//src/per/qspi.h ****             dsy_gpio_pin io3; /**< & */
  88:../../libDaisy//src/per/qspi.h ****             dsy_gpio_pin clk; /**< & */
  89:../../libDaisy//src/per/qspi.h ****             dsy_gpio_pin ncs; /**< & */
  90:../../libDaisy//src/per/qspi.h ****         } pin_config;
  91:../../libDaisy//src/per/qspi.h **** 
  92:../../libDaisy//src/per/qspi.h ****         Device device;
ARM GAS  /var/folders/ky/97y1n_614tj15gjp3pmt3wd00000gn/T//cc3mVKw2.s 			page 37


  93:../../libDaisy//src/per/qspi.h ****         Mode   mode;
  94:../../libDaisy//src/per/qspi.h ****     };
  95:../../libDaisy//src/per/qspi.h **** 
  96:../../libDaisy//src/per/qspi.h ****     /** 
  97:../../libDaisy//src/per/qspi.h ****         Initializes QSPI peripheral, and Resets, and prepares memory for access.
  98:../../libDaisy//src/per/qspi.h ****         \param config should be populated with the mode, device and pin_config before calling this 
  99:../../libDaisy//src/per/qspi.h ****         \return Result::OK or Result::ERR
 100:../../libDaisy//src/per/qspi.h ****         */
 101:../../libDaisy//src/per/qspi.h ****     Result Init(const Config& config);
 102:../../libDaisy//src/per/qspi.h **** 
 103:../../libDaisy//src/per/qspi.h ****     /** Returns the current config. */
 104:../../libDaisy//src/per/qspi.h ****     const Config& GetConfig() const;
 105:../../libDaisy//src/per/qspi.h **** 
 106:../../libDaisy//src/per/qspi.h ****     // Couldn't this just be called before anything else in init? That
 107:../../libDaisy//src/per/qspi.h ****     // would make manually calling it unnecessary.
 108:../../libDaisy//src/per/qspi.h ****     /** 
 109:../../libDaisy//src/per/qspi.h ****         Deinitializes the peripheral
 110:../../libDaisy//src/per/qspi.h ****         This should be called before reinitializing QSPI in a different mode.
 111:../../libDaisy//src/per/qspi.h ****         \return Result::OK or Result::ERR
 112:../../libDaisy//src/per/qspi.h ****         */
 113:../../libDaisy//src/per/qspi.h ****     Result DeInit();
 114:../../libDaisy//src/per/qspi.h **** 
 115:../../libDaisy//src/per/qspi.h ****     /** 
 116:../../libDaisy//src/per/qspi.h ****         Writes a single page to to the specified address on the QSPI chip.
 117:../../libDaisy//src/per/qspi.h ****         For IS25LP*, page size is 256 bytes.
 118:../../libDaisy//src/per/qspi.h ****         \param address Address to write to
 119:../../libDaisy//src/per/qspi.h ****         \param size Buffer size
 120:../../libDaisy//src/per/qspi.h ****         \param buffer Buffer to write
 121:../../libDaisy//src/per/qspi.h ****         \return Result::OK or Result::ERR
 122:../../libDaisy//src/per/qspi.h ****         */
 123:../../libDaisy//src/per/qspi.h ****     Result WritePage(uint32_t address, uint32_t size, uint8_t* buffer);
 124:../../libDaisy//src/per/qspi.h **** 
 125:../../libDaisy//src/per/qspi.h ****     /** 
 126:../../libDaisy//src/per/qspi.h ****         Writes data in buffer to to the QSPI. Starting at address to address+size 
 127:../../libDaisy//src/per/qspi.h ****         \param address Address to write to
 128:../../libDaisy//src/per/qspi.h ****         \param size Buffer size
 129:../../libDaisy//src/per/qspi.h ****         \param buffer Buffer to write
 130:../../libDaisy//src/per/qspi.h ****         \return Result::OK or Result::ERR
 131:../../libDaisy//src/per/qspi.h ****         */
 132:../../libDaisy//src/per/qspi.h ****     Result Write(uint32_t address, uint32_t size, uint8_t* buffer);
 133:../../libDaisy//src/per/qspi.h **** 
 134:../../libDaisy//src/per/qspi.h ****     /** 
 135:../../libDaisy//src/per/qspi.h ****         Erases the area specified on the chip.
 136:../../libDaisy//src/per/qspi.h ****         Erasures will happen by 4K, 32K or 64K increments.
 137:../../libDaisy//src/per/qspi.h ****         Smallest erase possible is 4kB at a time. (on IS25LP*)
 138:../../libDaisy//src/per/qspi.h ****         \param start_addr Address to begin erasing from
 139:../../libDaisy//src/per/qspi.h ****         \param end_addr  Address to stop erasing at
 140:../../libDaisy//src/per/qspi.h ****         \return Result::OK or Result::ERR
 141:../../libDaisy//src/per/qspi.h ****         */
 142:../../libDaisy//src/per/qspi.h ****     Result Erase(uint32_t start_addr, uint32_t end_addr);
 143:../../libDaisy//src/per/qspi.h **** 
 144:../../libDaisy//src/per/qspi.h ****     /**  
 145:../../libDaisy//src/per/qspi.h ****          Erases a single sector of the chip.  
 146:../../libDaisy//src/per/qspi.h ****         TODO: Document the size of this function. 
 147:../../libDaisy//src/per/qspi.h ****         \param address Address of sector to erase
 148:../../libDaisy//src/per/qspi.h ****         \return Result::OK or Result::ERR
 149:../../libDaisy//src/per/qspi.h ****         */
ARM GAS  /var/folders/ky/97y1n_614tj15gjp3pmt3wd00000gn/T//cc3mVKw2.s 			page 38


 150:../../libDaisy//src/per/qspi.h ****     Result EraseSector(uint32_t address);
 151:../../libDaisy//src/per/qspi.h **** 
 152:../../libDaisy//src/per/qspi.h ****     /** Returns the current class status. Useful for debugging.
 153:../../libDaisy//src/per/qspi.h ****      *  \returns Status
 154:../../libDaisy//src/per/qspi.h ****      */
 155:../../libDaisy//src/per/qspi.h ****     Status GetStatus();
 156:../../libDaisy//src/per/qspi.h **** 
 157:../../libDaisy//src/per/qspi.h ****     /** Returns a pointer to the actual memory used 
 158:../../libDaisy//src/per/qspi.h ****      *  The memory at this address is read-only
 159:../../libDaisy//src/per/qspi.h ****      *  to write to it use the Write function.
 160:../../libDaisy//src/per/qspi.h ****      * 
 161:../../libDaisy//src/per/qspi.h ****      *  \param offset returns the pointer starting this 
 162:../../libDaisy//src/per/qspi.h ****      *                many bytes into the memory
 163:../../libDaisy//src/per/qspi.h ****     */
 164:../../libDaisy//src/per/qspi.h ****     void* GetData(uint32_t offset = 0);
 165:../../libDaisy//src/per/qspi.h **** 
 166:../../libDaisy//src/per/qspi.h ****     QSPIHandle() : pimpl_(nullptr) {}
 975              		.loc 14 166 5 view .LVU277
 976              	.LBB418:
 977              	.LBB419:
 978              		.loc 14 166 34 is_stmt 0 view .LVU278
 979 0000 1348     		ldr	r0, .L61
 980 0002 0022     		movs	r2, #0
 981              	.LBE419:
 982              	.LBE418:
 983              	.LBE417:
 984              	.LBE416:
 985              	.LBE415:
 986              	.LBB435:
 987              	.LBB436:
 988              	.LBB437:
 989              	.LBB438:
 990              	.LBB439:
 991              	.LBB440:
 992              	.LBB441:
  37:../../libDaisy//src/hid/midi.h ****             tx     = {DSY_GPIOB, 6};
 993              		.loc 2 37 20 view .LVU279
 994 0004 1349     		ldr	r1, .L61+4
  36:../../libDaisy//src/hid/midi.h ****             rx     = {DSY_GPIOB, 7};
 995              		.loc 2 36 20 view .LVU280
 996 0006 00F51043 		add	r3, r0, #36864
  38:../../libDaisy//src/hid/midi.h ****         }
 997              		.loc 2 38 20 view .LVU281
 998 000a B1F804C0 		ldrh	ip, [r1, #4]
 999              	.LBE441:
 1000              	.LBE440:
 1001              	.LBE439:
 1002              	.LBE438:
 1003              	.LBE437:
 1004              	.LBE436:
 1005              	.LBE435:
 1006              	.LBE414:
 1007              	.LBE413:
 1008              	.LBE412:
 1009              	.LBE411:
 1010              		.loc 13 156 1 view .LVU282
 1011 000e 00B5     		push	{lr}
ARM GAS  /var/folders/ky/97y1n_614tj15gjp3pmt3wd00000gn/T//cc3mVKw2.s 			page 39


 1012              		.cfi_def_cfa_offset 4
 1013              		.cfi_offset 14, -4
 1014              	.LBB496:
 1015              	.LBB494:
 1016              	.LBB493:
 1017              	.LBB492:
 1018              	.LBB470:
 1019              	.LBB467:
 1020              	.LBB464:
 1021              	.LBB451:
 1022              	.LBB448:
 1023              	.LBB445:
 1024              	.LBB442:
  37:../../libDaisy//src/hid/midi.h ****             tx     = {DSY_GPIOB, 6};
 1025              		.loc 2 37 20 view .LVU283
 1026 0010 B1F800E0 		ldrh	lr, [r1]
 1027              	.LBE442:
 1028              	.LBE445:
 1029              	.LBE448:
 1030              	.LBE451:
 1031              	.LBE464:
 1032              	.LBE467:
 1033              	.LBE470:
 1034              	.LBB471:
 1035              	.LBB433:
 1036              	.LBB422:
 1037              	.LBB421:
 1038              	.LBB420:
 1039              		.loc 14 166 34 view .LVU284
 1040 0014 0260     		str	r2, [r0]
 1041              	.LVL55:
 1042              		.loc 14 166 34 view .LVU285
 1043              	.LBE420:
 1044              	.LBE421:
 1045              	.LBE422:
 1046              	.LBB423:
 1047              	.LBI423:
  95:../../libDaisy//src/hid/audio.h ****     ~AudioHandle() {}
 1048              		.loc 12 95 5 is_stmt 1 view .LVU286
 1049              	.LBE423:
 1050              	.LBE433:
 1051              	.LBE471:
 1052              	.LBB472:
 1053              	.LBB468:
 1054              	.LBB465:
  84:../../libDaisy//src/hid/midi.h ****     ~MidiHandler() {}
 1055              		.loc 2 84 19 is_stmt 0 view .LVU287
 1056 0016 1049     		ldr	r1, .L61+8
 1057              	.LBE465:
 1058              	.LBE468:
 1059              	.LBE472:
 1060              	.LBB473:
 1061              	.LBB434:
 1062              	.LBB426:
 1063              	.LBB424:
 1064              	.LBB425:
  95:../../libDaisy//src/hid/audio.h ****     ~AudioHandle() {}
ARM GAS  /var/folders/ky/97y1n_614tj15gjp3pmt3wd00000gn/T//cc3mVKw2.s 			page 40


 1065              		.loc 12 95 35 view .LVU288
 1066 0018 4261     		str	r2, [r0, #20]
 1067              	.LVL56:
  95:../../libDaisy//src/hid/audio.h ****     ~AudioHandle() {}
 1068              		.loc 12 95 35 view .LVU289
 1069              	.LBE425:
 1070              	.LBE424:
 1071              	.LBE426:
 1072              	.LBB427:
 1073              	.LBI427:
  92:../../libDaisy//src/per/adc.h ****     ~AdcHandle() {}
 1074              		.loc 11 92 5 is_stmt 1 view .LVU290
  92:../../libDaisy//src/per/adc.h ****     ~AdcHandle() {}
 1075              		.loc 11 92 5 is_stmt 0 view .LVU291
 1076              	.LBE427:
 1077              	.LBB428:
 1078              	.LBI428:
 1079              		.file 15 "../../libDaisy//src/per/dac.h"
   1:../../libDaisy//src/per/dac.h **** #pragma once
   2:../../libDaisy//src/per/dac.h **** #ifndef DSY_DAC_H
   3:../../libDaisy//src/per/dac.h **** #define DSY_DAC_H
   4:../../libDaisy//src/per/dac.h **** 
   5:../../libDaisy//src/per/dac.h **** #include "daisy_core.h"
   6:../../libDaisy//src/per/dac.h **** 
   7:../../libDaisy//src/per/dac.h **** namespace daisy
   8:../../libDaisy//src/per/dac.h **** {
   9:../../libDaisy//src/per/dac.h **** /** @brief DAC handle for Built-in DAC Peripheral 
  10:../../libDaisy//src/per/dac.h ****  *  @ingroup per_analog
  11:../../libDaisy//src/per/dac.h ****  ** 
  12:../../libDaisy//src/per/dac.h ****  ** For now only Normal Mode is supported,
  13:../../libDaisy//src/per/dac.h ****  ** Sample and hold mode provides reduced power consumption, but requires a bit more setup.
  14:../../libDaisy//src/per/dac.h ****  **
  15:../../libDaisy//src/per/dac.h ****  ** For now connecting the DAC through other internal peripherals is also not supported.
  16:../../libDaisy//src/per/dac.h ****  **
  17:../../libDaisy//src/per/dac.h ****  ** Since the DAC channels have dedicated pins we don't need to pass in a pin config like with
  18:../../libDaisy//src/per/dac.h ****  ** other modules. However, it is still important to not try to use the DAC pins for anything else.
  19:../../libDaisy//src/per/dac.h ****  ** DAC Channel 1 is on PA4, and DAC Channel 2 is on PA5
  20:../../libDaisy//src/per/dac.h ****  ***/
  21:../../libDaisy//src/per/dac.h **** class DacHandle
  22:../../libDaisy//src/per/dac.h **** {
  23:../../libDaisy//src/per/dac.h ****   public:
  24:../../libDaisy//src/per/dac.h ****     /** Return Values for the DacHandle class */
  25:../../libDaisy//src/per/dac.h ****     enum class Result
  26:../../libDaisy//src/per/dac.h ****     {
  27:../../libDaisy//src/per/dac.h ****         OK,
  28:../../libDaisy//src/per/dac.h ****         ERR,
  29:../../libDaisy//src/per/dac.h ****     };
  30:../../libDaisy//src/per/dac.h **** 
  31:../../libDaisy//src/per/dac.h ****     /** Selects which channel(s) will be configured for use. */
  32:../../libDaisy//src/per/dac.h ****     enum class Channel
  33:../../libDaisy//src/per/dac.h ****     {
  34:../../libDaisy//src/per/dac.h ****         ONE,
  35:../../libDaisy//src/per/dac.h ****         TWO,
  36:../../libDaisy//src/per/dac.h ****         BOTH,
  37:../../libDaisy//src/per/dac.h ****     };
  38:../../libDaisy//src/per/dac.h **** 
  39:../../libDaisy//src/per/dac.h ****     /** Sets the Mode for the DAC channels.
ARM GAS  /var/folders/ky/97y1n_614tj15gjp3pmt3wd00000gn/T//cc3mVKw2.s 			page 41


  40:../../libDaisy//src/per/dac.h ****      **
  41:../../libDaisy//src/per/dac.h ****      ** Polling mode uses the blocking mode to transmit a single value at a time.
  42:../../libDaisy//src/per/dac.h ****      **
  43:../../libDaisy//src/per/dac.h ****      ** DMA mode uses a buffer, and periodically transmits it triggering a 
  44:../../libDaisy//src/per/dac.h ****      ** callback to fill the buffer when it is ready for more samples.
  45:../../libDaisy//src/per/dac.h ****      ***/
  46:../../libDaisy//src/per/dac.h ****     enum class Mode
  47:../../libDaisy//src/per/dac.h ****     {
  48:../../libDaisy//src/per/dac.h ****         POLLING,
  49:../../libDaisy//src/per/dac.h ****         DMA,
  50:../../libDaisy//src/per/dac.h ****     };
  51:../../libDaisy//src/per/dac.h **** 
  52:../../libDaisy//src/per/dac.h ****     /** Sets the number of bits per sample transmitted out of the DAC.
  53:../../libDaisy//src/per/dac.h ****      ** The output range will be: 0V - VDDA
  54:../../libDaisy//src/per/dac.h ****      ** The resolution will be roughly: bitdepth / (VDDA - 0V) 
  55:../../libDaisy//src/per/dac.h ****      ***/
  56:../../libDaisy//src/per/dac.h ****     enum class BitDepth
  57:../../libDaisy//src/per/dac.h ****     {
  58:../../libDaisy//src/per/dac.h ****         BITS_8,
  59:../../libDaisy//src/per/dac.h ****         BITS_12
  60:../../libDaisy//src/per/dac.h ****     };
  61:../../libDaisy//src/per/dac.h **** 
  62:../../libDaisy//src/per/dac.h ****     /** Sets whether the DAC output is buffered for higher drive ability. */
  63:../../libDaisy//src/per/dac.h ****     enum class BufferState
  64:../../libDaisy//src/per/dac.h ****     {
  65:../../libDaisy//src/per/dac.h ****         ENABLED,
  66:../../libDaisy//src/per/dac.h ****         DISABLED,
  67:../../libDaisy//src/per/dac.h ****     };
  68:../../libDaisy//src/per/dac.h **** 
  69:../../libDaisy//src/per/dac.h ****     /** Configuration structure for initializing the DAC structure. */
  70:../../libDaisy//src/per/dac.h ****     struct Config
  71:../../libDaisy//src/per/dac.h ****     {
  72:../../libDaisy//src/per/dac.h ****         /** Target Samplerate in Hz used to configure the internal 
  73:../../libDaisy//src/per/dac.h ****          ** timebase for DMA mode. Does nothing in POLLING mode.
  74:../../libDaisy//src/per/dac.h ****          ** If the value is 0 at Init time this will default to 48000Hz 
  75:../../libDaisy//src/per/dac.h ****          ** otherwise the driver will attempt meet the target.*/
  76:../../libDaisy//src/per/dac.h ****         uint32_t target_samplerate;
  77:../../libDaisy//src/per/dac.h **** 
  78:../../libDaisy//src/per/dac.h ****         Channel     chn;
  79:../../libDaisy//src/per/dac.h ****         Mode        mode;
  80:../../libDaisy//src/per/dac.h ****         BitDepth    bitdepth;
  81:../../libDaisy//src/per/dac.h ****         BufferState buff_state;
  82:../../libDaisy//src/per/dac.h ****     };
  83:../../libDaisy//src/per/dac.h **** 
  84:../../libDaisy//src/per/dac.h ****     DacHandle() : pimpl_(nullptr) {}
 1080              		.loc 15 84 5 is_stmt 1 view .LVU292
 1081              	.LBB429:
 1082              	.LBB430:
 1083              		.loc 15 84 33 is_stmt 0 view .LVU293
 1084 001a 0262     		str	r2, [r0, #32]
 1085              	.LVL57:
 1086              		.loc 15 84 33 view .LVU294
 1087              	.LBE430:
 1088              	.LBE429:
 1089              	.LBE428:
 1090              	.LBB431:
 1091              	.LBI431:
ARM GAS  /var/folders/ky/97y1n_614tj15gjp3pmt3wd00000gn/T//cc3mVKw2.s 			page 42


  40:../../libDaisy//src/hid/usb.h **** 
 1092              		.loc 10 40 5 is_stmt 1 view .LVU295
  40:../../libDaisy//src/hid/usb.h **** 
 1093              		.loc 10 40 5 is_stmt 0 view .LVU296
 1094              	.LBE431:
 1095              	.LBB432:
 1096              	.LBI432:
  77:../../libDaisy//src/sys/system.h ****     ~System() {}
 1097              		.loc 9 77 5 is_stmt 1 view .LVU297
  77:../../libDaisy//src/sys/system.h ****     ~System() {}
 1098              		.loc 9 77 5 is_stmt 0 view .LVU298
 1099              	.LBE432:
 1100              	.LBE434:
 1101              	.LBE473:
 1102              	.LBB474:
 1103              	.LBI474:
  20:../../libDaisy//src/hid/encoder.h ****     ~Encoder() {}
 1104              		.loc 7 20 5 is_stmt 1 view .LVU299
 1105              	.LBB475:
 1106              	.LBB476:
 1107              	.LBI476:
  41:../../libDaisy//src/hid/switch.h ****     ~Switch() {}
 1108              		.loc 5 41 5 view .LVU300
  41:../../libDaisy//src/hid/switch.h ****     ~Switch() {}
 1109              		.loc 5 41 5 is_stmt 0 view .LVU301
 1110              	.LBE476:
 1111              	.LBE475:
 1112              	.LBE474:
 1113              	.LBB477:
 1114              	.LBI477:
  21:../../libDaisy//src/hid/ctrl.h ****     /** destructor */
 1115              		.loc 6 21 5 is_stmt 1 view .LVU302
  21:../../libDaisy//src/hid/ctrl.h ****     /** destructor */
 1116              		.loc 6 21 5 is_stmt 0 view .LVU303
 1117              	.LBE477:
 1118              	.LBB478:
 1119              	.LBI478:
  21:../../libDaisy//src/hid/ctrl.h ****     /** destructor */
 1120              		.loc 6 21 5 is_stmt 1 view .LVU304
  21:../../libDaisy//src/hid/ctrl.h ****     /** destructor */
 1121              		.loc 6 21 5 is_stmt 0 view .LVU305
 1122              	.LBE478:
 1123              	.LBB479:
 1124              	.LBI479:
  41:../../libDaisy//src/hid/switch.h ****     ~Switch() {}
 1125              		.loc 5 41 5 is_stmt 1 view .LVU306
  41:../../libDaisy//src/hid/switch.h ****     ~Switch() {}
 1126              		.loc 5 41 5 is_stmt 0 view .LVU307
 1127              	.LBE479:
 1128              	.LBB480:
 1129              	.LBI480:
  41:../../libDaisy//src/hid/switch.h ****     ~Switch() {}
 1130              		.loc 5 41 5 is_stmt 1 view .LVU308
  41:../../libDaisy//src/hid/switch.h ****     ~Switch() {}
 1131              		.loc 5 41 5 is_stmt 0 view .LVU309
 1132              	.LBE480:
 1133              	.LBB481:
ARM GAS  /var/folders/ky/97y1n_614tj15gjp3pmt3wd00000gn/T//cc3mVKw2.s 			page 43


 1134              	.LBI481:
  17:../../libDaisy//src/hid/rgb_led.h ****     ~RgbLed() {}
 1135              		.loc 3 17 5 is_stmt 1 view .LVU310
 1136              	.LBB482:
 1137              	.LBB483:
 1138              	.LBI483:
  24:../../libDaisy//src/hid/led.h ****     ~Led() {}
 1139              		.loc 4 24 5 view .LVU311
  24:../../libDaisy//src/hid/led.h ****     ~Led() {}
 1140              		.loc 4 24 5 is_stmt 0 view .LVU312
 1141              	.LBE483:
 1142              	.LBB484:
 1143              	.LBI484:
  24:../../libDaisy//src/hid/led.h ****     ~Led() {}
 1144              		.loc 4 24 5 is_stmt 1 view .LVU313
  24:../../libDaisy//src/hid/led.h ****     ~Led() {}
 1145              		.loc 4 24 5 is_stmt 0 view .LVU314
 1146              	.LBE484:
 1147              	.LBB485:
 1148              	.LBI485:
  24:../../libDaisy//src/hid/led.h ****     ~Led() {}
 1149              		.loc 4 24 5 is_stmt 1 view .LVU315
  24:../../libDaisy//src/hid/led.h ****     ~Led() {}
 1150              		.loc 4 24 5 is_stmt 0 view .LVU316
 1151              	.LBE485:
 1152              	.LBE482:
 1153              	.LBE481:
 1154              	.LBB486:
 1155              	.LBI486:
  17:../../libDaisy//src/hid/rgb_led.h ****     ~RgbLed() {}
 1156              		.loc 3 17 5 is_stmt 1 view .LVU317
 1157              	.LBB487:
 1158              	.LBB488:
 1159              	.LBI488:
  24:../../libDaisy//src/hid/led.h ****     ~Led() {}
 1160              		.loc 4 24 5 view .LVU318
  24:../../libDaisy//src/hid/led.h ****     ~Led() {}
 1161              		.loc 4 24 5 is_stmt 0 view .LVU319
 1162              	.LBE488:
 1163              	.LBB489:
 1164              	.LBI489:
  24:../../libDaisy//src/hid/led.h ****     ~Led() {}
 1165              		.loc 4 24 5 is_stmt 1 view .LVU320
  24:../../libDaisy//src/hid/led.h ****     ~Led() {}
 1166              		.loc 4 24 5 is_stmt 0 view .LVU321
 1167              	.LBE489:
 1168              	.LBB490:
 1169              	.LBI490:
  24:../../libDaisy//src/hid/led.h ****     ~Led() {}
 1170              		.loc 4 24 5 is_stmt 1 view .LVU322
  24:../../libDaisy//src/hid/led.h ****     ~Led() {}
 1171              		.loc 4 24 5 is_stmt 0 view .LVU323
 1172              	.LBE490:
 1173              	.LBE487:
 1174              	.LBE486:
 1175              	.LBB491:
 1176              	.LBI435:
ARM GAS  /var/folders/ky/97y1n_614tj15gjp3pmt3wd00000gn/T//cc3mVKw2.s 			page 44


  84:../../libDaisy//src/hid/midi.h ****     ~MidiHandler() {}
 1177              		.loc 2 84 5 is_stmt 1 view .LVU324
 1178              	.LBB469:
 1179              	.LBB466:
 1180              	.LBB452:
 1181              	.LBI452:
 1182              		.file 16 "../../libDaisy//src/per/uart.h"
   1:../../libDaisy//src/per/uart.h **** /* 
   2:../../libDaisy//src/per/uart.h **** TODO
   3:../../libDaisy//src/per/uart.h **** - UART1 defaults to DMA, add flexible config for DMA on all periphs
   4:../../libDaisy//src/per/uart.h **** - Transmit function improvements.
   5:../../libDaisy//src/per/uart.h **** - Overflow handling, etc. for Rx Queue.
   6:../../libDaisy//src/per/uart.h **** */
   7:../../libDaisy//src/per/uart.h **** 
   8:../../libDaisy//src/per/uart.h **** #pragma once
   9:../../libDaisy//src/per/uart.h **** #ifndef DSY_UART_H
  10:../../libDaisy//src/per/uart.h **** #define DSY_UART_H /**< macro */
  11:../../libDaisy//src/per/uart.h **** #include "daisy_core.h"
  12:../../libDaisy//src/per/uart.h **** 
  13:../../libDaisy//src/per/uart.h **** 
  14:../../libDaisy//src/per/uart.h **** namespace daisy
  15:../../libDaisy//src/per/uart.h **** {
  16:../../libDaisy//src/per/uart.h **** /** @addtogroup serial
  17:../../libDaisy//src/per/uart.h ****     @{
  18:../../libDaisy//src/per/uart.h ****     */
  19:../../libDaisy//src/per/uart.h **** 
  20:../../libDaisy//src/per/uart.h **** /** 
  21:../../libDaisy//src/per/uart.h ****     Uart Peripheral
  22:../../libDaisy//src/per/uart.h ****     @author shensley
  23:../../libDaisy//src/per/uart.h ****     @date March 2020
  24:../../libDaisy//src/per/uart.h ****     */
  25:../../libDaisy//src/per/uart.h **** class UartHandler
  26:../../libDaisy//src/per/uart.h **** {
  27:../../libDaisy//src/per/uart.h ****   public:
  28:../../libDaisy//src/per/uart.h ****     struct Config
  29:../../libDaisy//src/per/uart.h ****     {
  30:../../libDaisy//src/per/uart.h ****         enum class Peripheral
  31:../../libDaisy//src/per/uart.h ****         {
  32:../../libDaisy//src/per/uart.h ****             USART_1,
  33:../../libDaisy//src/per/uart.h ****             USART_2,
  34:../../libDaisy//src/per/uart.h ****             USART_3,
  35:../../libDaisy//src/per/uart.h ****             UART_4,
  36:../../libDaisy//src/per/uart.h ****             UART_5,
  37:../../libDaisy//src/per/uart.h ****             USART_6,
  38:../../libDaisy//src/per/uart.h ****             UART_7,
  39:../../libDaisy//src/per/uart.h ****             UART_8,
  40:../../libDaisy//src/per/uart.h ****             LPUART_1,
  41:../../libDaisy//src/per/uart.h ****         };
  42:../../libDaisy//src/per/uart.h **** 
  43:../../libDaisy//src/per/uart.h ****         enum class StopBits
  44:../../libDaisy//src/per/uart.h ****         {
  45:../../libDaisy//src/per/uart.h ****             BITS_0_5,
  46:../../libDaisy//src/per/uart.h ****             BITS_1,
  47:../../libDaisy//src/per/uart.h ****             BITS_1_5,
  48:../../libDaisy//src/per/uart.h ****             BITS_2,
  49:../../libDaisy//src/per/uart.h ****         };
  50:../../libDaisy//src/per/uart.h **** 
ARM GAS  /var/folders/ky/97y1n_614tj15gjp3pmt3wd00000gn/T//cc3mVKw2.s 			page 45


  51:../../libDaisy//src/per/uart.h ****         enum class Parity
  52:../../libDaisy//src/per/uart.h ****         {
  53:../../libDaisy//src/per/uart.h ****             NONE,
  54:../../libDaisy//src/per/uart.h ****             EVEN,
  55:../../libDaisy//src/per/uart.h ****             ODD,
  56:../../libDaisy//src/per/uart.h ****         };
  57:../../libDaisy//src/per/uart.h **** 
  58:../../libDaisy//src/per/uart.h ****         enum class Mode
  59:../../libDaisy//src/per/uart.h ****         {
  60:../../libDaisy//src/per/uart.h ****             RX,
  61:../../libDaisy//src/per/uart.h ****             TX,
  62:../../libDaisy//src/per/uart.h ****             TX_RX,
  63:../../libDaisy//src/per/uart.h ****         };
  64:../../libDaisy//src/per/uart.h **** 
  65:../../libDaisy//src/per/uart.h ****         enum class WordLength
  66:../../libDaisy//src/per/uart.h ****         {
  67:../../libDaisy//src/per/uart.h ****             BITS_7,
  68:../../libDaisy//src/per/uart.h ****             BITS_8,
  69:../../libDaisy//src/per/uart.h ****             BITS_9,
  70:../../libDaisy//src/per/uart.h ****         };
  71:../../libDaisy//src/per/uart.h **** 
  72:../../libDaisy//src/per/uart.h ****         struct
  73:../../libDaisy//src/per/uart.h ****         {
  74:../../libDaisy//src/per/uart.h ****             dsy_gpio_pin tx; /**< & */
  75:../../libDaisy//src/per/uart.h ****             dsy_gpio_pin rx; /**< & */
  76:../../libDaisy//src/per/uart.h ****         } pin_config;        /**< & */
  77:../../libDaisy//src/per/uart.h **** 
  78:../../libDaisy//src/per/uart.h ****         Config()
  79:../../libDaisy//src/per/uart.h ****         {
  80:../../libDaisy//src/per/uart.h ****             // user must init periph, pin_config, and mode
  81:../../libDaisy//src/per/uart.h ****             stopbits   = StopBits::BITS_1;
  82:../../libDaisy//src/per/uart.h ****             parity     = Parity::NONE;
  83:../../libDaisy//src/per/uart.h ****             wordlength = WordLength::BITS_8;
  84:../../libDaisy//src/per/uart.h ****             baudrate   = 4800;
  85:../../libDaisy//src/per/uart.h ****             // baudrate   = 31250;
  86:../../libDaisy//src/per/uart.h ****         }
  87:../../libDaisy//src/per/uart.h **** 
  88:../../libDaisy//src/per/uart.h ****         Peripheral periph;
  89:../../libDaisy//src/per/uart.h ****         StopBits   stopbits;
  90:../../libDaisy//src/per/uart.h ****         Parity     parity;
  91:../../libDaisy//src/per/uart.h ****         Mode       mode;
  92:../../libDaisy//src/per/uart.h ****         WordLength wordlength;
  93:../../libDaisy//src/per/uart.h ****         uint32_t   baudrate;
  94:../../libDaisy//src/per/uart.h ****     };
  95:../../libDaisy//src/per/uart.h **** 
  96:../../libDaisy//src/per/uart.h **** 
  97:../../libDaisy//src/per/uart.h ****     UartHandler() : pimpl_(nullptr) {}
 1183              		.loc 16 97 5 view .LVU325
 1184              	.LBB453:
 1185              	.LBB454:
 1186              		.loc 16 97 35 is_stmt 0 view .LVU326
 1187 001c C0F87C21 		str	r2, [r0, #380]
 1188              	.LVL58:
 1189              		.loc 16 97 35 view .LVU327
 1190              	.LBE454:
 1191              	.LBE453:
 1192              	.LBE452:
ARM GAS  /var/folders/ky/97y1n_614tj15gjp3pmt3wd00000gn/T//cc3mVKw2.s 			page 46


 1193              	.LBB455:
 1194              	.LBI455:
 1195              		.file 17 "../../libDaisy//src/util/ringbuffer.h"
   1:../../libDaisy//src/util/ringbuffer.h **** #pragma once
   2:../../libDaisy//src/util/ringbuffer.h **** #ifndef DSY_RINGBUFFER_H
   3:../../libDaisy//src/util/ringbuffer.h **** #define DSY_RINGBUFFER_H
   4:../../libDaisy//src/util/ringbuffer.h **** 
   5:../../libDaisy//src/util/ringbuffer.h **** #include <algorithm>
   6:../../libDaisy//src/util/ringbuffer.h **** 
   7:../../libDaisy//src/util/ringbuffer.h **** namespace daisy
   8:../../libDaisy//src/util/ringbuffer.h **** {
   9:../../libDaisy//src/util/ringbuffer.h **** /** @addtogroup utility
  10:../../libDaisy//src/util/ringbuffer.h ****     @{
  11:../../libDaisy//src/util/ringbuffer.h **** */
  12:../../libDaisy//src/util/ringbuffer.h **** 
  13:../../libDaisy//src/util/ringbuffer.h **** /**
  14:../../libDaisy//src/util/ringbuffer.h **** Utility Ring Buffer \n 
  15:../../libDaisy//src/util/ringbuffer.h **** imported from pichenettes/stmlib
  16:../../libDaisy//src/util/ringbuffer.h **** */
  17:../../libDaisy//src/util/ringbuffer.h **** template <typename T, size_t size>
  18:../../libDaisy//src/util/ringbuffer.h **** class RingBuffer
  19:../../libDaisy//src/util/ringbuffer.h **** {
  20:../../libDaisy//src/util/ringbuffer.h ****   public:
  21:../../libDaisy//src/util/ringbuffer.h ****     RingBuffer() {}
 1196              		.loc 17 21 5 is_stmt 1 view .LVU328
 1197              		.loc 17 21 5 is_stmt 0 view .LVU329
 1198              	.LBE455:
 1199              	.LBB456:
 1200              	.LBI438:
  86:../../libDaisy//src/hid/midi.h **** 
  87:../../libDaisy//src/hid/midi.h ****     struct Config
 1201              		.loc 2 87 12 is_stmt 1 view .LVU330
 1202              	.LBB449:
 1203              	.LBI439:
  34:../../libDaisy//src/hid/midi.h ****         {
 1204              		.loc 2 34 9 view .LVU331
 1205              	.LBB446:
 1206              	.LBB443:
  36:../../libDaisy//src/hid/midi.h ****             rx     = {DSY_GPIOB, 7};
 1207              		.loc 2 36 13 view .LVU332
  36:../../libDaisy//src/hid/midi.h ****             rx     = {DSY_GPIOB, 7};
 1208              		.loc 2 36 20 is_stmt 0 view .LVU333
 1209 0020 C3F82422 		str	r2, [r3, #548]
  37:../../libDaisy//src/hid/midi.h ****             tx     = {DSY_GPIOB, 6};
 1210              		.loc 2 37 13 is_stmt 1 view .LVU334
  38:../../libDaisy//src/hid/midi.h ****         }
 1211              		.loc 2 38 20 is_stmt 0 view .LVU335
 1212 0024 A3F82AC2 		strh	ip, [r3, #554]	@ movhi
 1213              	.LBE443:
 1214              	.LBE446:
 1215              	.LBE449:
 1216              	.LBE456:
  84:../../libDaisy//src/hid/midi.h ****     ~MidiHandler() {}
 1217              		.loc 2 84 19 view .LVU336
 1218 0028 4FF0070C 		mov	ip, #7
 1219              	.LBB457:
 1220              	.LBB458:
ARM GAS  /var/folders/ky/97y1n_614tj15gjp3pmt3wd00000gn/T//cc3mVKw2.s 			page 47


 1221              	.LBB459:
 1222              	.LBB460:
 1223              		.loc 16 97 35 view .LVU337
 1224 002c C3F82C22 		str	r2, [r3, #556]
 1225              	.LBE460:
 1226              	.LBE459:
 1227              	.LBE458:
 1228              	.LBE457:
  84:../../libDaisy//src/hid/midi.h ****     ~MidiHandler() {}
 1229              		.loc 2 84 19 view .LVU338
 1230 0030 4FF60F02 		movw	r2, #63503
 1231 0034 C3F83012 		str	r1, [r3, #560]
 1232 0038 A3F83422 		strh	r2, [r3, #564]	@ movhi
 1233 003c 83F836C2 		strb	ip, [r3, #566]
 1234              	.LBB462:
 1235              	.LBB450:
 1236              	.LBB447:
 1237              	.LBB444:
  37:../../libDaisy//src/hid/midi.h ****             tx     = {DSY_GPIOB, 6};
 1238              		.loc 2 37 20 view .LVU339
 1239 0040 A3F828E2 		strh	lr, [r3, #552]	@ movhi
  38:../../libDaisy//src/hid/midi.h ****         }
 1240              		.loc 2 38 13 is_stmt 1 view .LVU340
 1241              	.LVL59:
  38:../../libDaisy//src/hid/midi.h ****         }
 1242              		.loc 2 38 13 is_stmt 0 view .LVU341
 1243              	.LBE444:
 1244              	.LBE447:
 1245              	.LBE450:
 1246              	.LBE462:
 1247              	.LBB463:
 1248              	.LBI457:
  25:../../libDaisy//src/hid/midi.h ****     ~MidiUartTransport() {}
 1249              		.loc 2 25 5 is_stmt 1 view .LVU342
 1250              	.LBB461:
 1251              	.LBI458:
 1252              		.loc 16 97 5 view .LVU343
 1253              		.loc 16 97 5 is_stmt 0 view .LVU344
 1254              	.LBE461:
 1255              	.LBE463:
 1256              	.LBE466:
 1257              	.LBE469:
 1258              	.LBE491:
 1259              	.LBE492:
 1260              	.LBE493:
  14:MyProj.cpp    **** 
 1261              		.loc 13 14 10 view .LVU345
 1262 0044 054A     		ldr	r2, .L61+12
 1263 0046 0649     		ldr	r1, .L61+16
 1264              	.LBE494:
 1265              	.LBE496:
 1266              		.loc 13 156 1 view .LVU346
 1267 0048 5DF804EB 		ldr	lr, [sp], #4
 1268              		.cfi_restore 14
 1269              		.cfi_def_cfa_offset 0
 1270              	.LBB497:
 1271              	.LBB495:
ARM GAS  /var/folders/ky/97y1n_614tj15gjp3pmt3wd00000gn/T//cc3mVKw2.s 			page 48


  14:MyProj.cpp    **** 
 1272              		.loc 13 14 10 view .LVU347
 1273 004c FFF7FEBF 		b	__aeabi_atexit
 1274              	.LVL60:
 1275              	.L62:
 1276              		.align	2
 1277              	.L61:
 1278 0050 00000000 		.word	hw
 1279 0054 00000000 		.word	.LANCHOR11
 1280 0058 80707FF0 		.word	-260083584
 1281 005c 00000000 		.word	__dso_handle
 1282 0060 00000000 		.word	_ZN5daisy8DaisyPodD1Ev
 1283              	.LBE495:
 1284              	.LBE497:
 1285              		.cfi_endproc
 1286              	.LFE2571:
 1288              		.section	.init_array,"aw",%init_array
 1289              		.align	2
 1290 0000 00000000 		.word	_GLOBAL__sub_I_leaf(target1)
 1291              		.global	inputMode
 1292              		.global	myModRatios
 1293              		.global	myModStrength
 1294              		.global	myVolumes
 1295              		.global	myNotes
 1296              		.global	myOffsets
 1297              		.global	myFreqs
 1298              		.global	selectedVoice
 1299              		.global	myModulators
 1300              		.global	myCarriers
 1301              		.global	hw
 1302              		.global	leafMemory
 1303              		.global	leaf
 1304              		.section	.rodata
 1305              		.align	2
 1306              		.set	.LANCHOR11,. + 0
 1307              	.LC0:
 1308 0000 01       		.byte	1
 1309 0001 07       		.byte	7
 1310 0002 0000     		.space	2
 1311              	.LC1:
 1312 0004 01       		.byte	1
 1313 0005 06       		.byte	6
 1314              		.section	.bss.hw,"aw",%nobits
 1315              		.align	2
 1318              	hw:
 1319 0000 00000000 		.space	37432
 1319      00000000 
 1319      00000000 
 1319      00000000 
 1319      00000000 
 1320              		.section	.bss.inputMode,"aw",%nobits
 1321              		.set	.LANCHOR0,. + 0
 1324              	inputMode:
 1325 0000 00       		.space	1
 1326              		.section	.bss.leaf,"aw",%nobits
 1327              		.align	2
 1328              		.set	.LANCHOR10,. + 0
ARM GAS  /var/folders/ky/97y1n_614tj15gjp3pmt3wd00000gn/T//cc3mVKw2.s 			page 49


 1331              	leaf:
 1332 0000 00000000 		.space	80
 1332      00000000 
 1332      00000000 
 1332      00000000 
 1332      00000000 
 1333              		.section	.bss.leafMemory,"aw",%nobits
 1334              		.align	2
 1337              	leafMemory:
 1338 0000 00000000 		.space	65535
 1338      00000000 
 1338      00000000 
 1338      00000000 
 1338      00000000 
 1339              		.section	.bss.myCarriers,"aw",%nobits
 1340              		.align	2
 1341              		.set	.LANCHOR9,. + 0
 1344              	myCarriers:
 1345 0000 00000000 		.space	12
 1345      00000000 
 1345      00000000 
 1346              		.section	.bss.myModRatios,"aw",%nobits
 1347              		.align	2
 1348              		.set	.LANCHOR2,. + 0
 1351              	myModRatios:
 1352 0000 00000000 		.space	12
 1352      00000000 
 1352      00000000 
 1353              		.section	.bss.myModStrength,"aw",%nobits
 1354              		.align	2
 1355              		.set	.LANCHOR3,. + 0
 1358              	myModStrength:
 1359 0000 00000000 		.space	12
 1359      00000000 
 1359      00000000 
 1360              		.section	.bss.myModulators,"aw",%nobits
 1361              		.align	2
 1362              		.set	.LANCHOR8,. + 0
 1365              	myModulators:
 1366 0000 00000000 		.space	12
 1366      00000000 
 1366      00000000 
 1367              		.section	.bss.myOffsets,"aw",%nobits
 1368              		.align	2
 1369              		.set	.LANCHOR4,. + 0
 1372              	myOffsets:
 1373 0000 00000000 		.space	12
 1373      00000000 
 1373      00000000 
 1374              		.section	.bss.myVolumes,"aw",%nobits
 1375              		.align	2
 1376              		.set	.LANCHOR5,. + 0
 1379              	myVolumes:
 1380 0000 00000000 		.space	12
 1380      00000000 
 1380      00000000 
 1381              		.section	.bss.selectedVoice,"aw",%nobits
ARM GAS  /var/folders/ky/97y1n_614tj15gjp3pmt3wd00000gn/T//cc3mVKw2.s 			page 50


 1382              		.align	2
 1383              		.set	.LANCHOR1,. + 0
 1386              	selectedVoice:
 1387 0000 00000000 		.space	4
 1388              		.section	.data.myFreqs,"aw"
 1389              		.align	2
 1390              		.set	.LANCHOR7,. + 0
 1393              	myFreqs:
 1394 0000 0000DC43 		.word	1138491392
 1395 0004 0000DC43 		.word	1138491392
 1396 0008 0000DC43 		.word	1138491392
 1397              		.section	.data.myNotes,"aw"
 1398              		.align	2
 1399              		.set	.LANCHOR6,. + 0
 1402              	myNotes:
 1403 0000 3C000000 		.word	60
 1404 0004 3C000000 		.word	60
 1405 0008 3C000000 		.word	60
 1406              		.text
 1407              	.Letext0:
 1408              		.file 18 "/Library/DaisyToolchain/0.2.0/arm/arm-none-eabi/include/machine/_default_types.h"
 1409              		.file 19 "/Library/DaisyToolchain/0.2.0/arm/arm-none-eabi/include/sys/_stdint.h"
 1410              		.file 20 "/Library/DaisyToolchain/0.2.0/arm/arm-none-eabi/include/stdint.h"
 1411              		.file 21 "/Library/DaisyToolchain/0.2.0/arm/lib/gcc/arm-none-eabi/10.3.1/include/stddef.h"
 1412              		.file 22 "/Library/DaisyToolchain/0.2.0/arm/arm-none-eabi/include/c++/10.3.1/cmath"
 1413              		.file 23 "/Library/DaisyToolchain/0.2.0/arm/arm-none-eabi/include/c++/10.3.1/bits/std_abs.h"
 1414              		.file 24 "/Library/DaisyToolchain/0.2.0/arm/arm-none-eabi/include/c++/10.3.1/cstdlib"
 1415              		.file 25 "/Library/DaisyToolchain/0.2.0/arm/arm-none-eabi/include/c++/10.3.1/cstdint"
 1416              		.file 26 "/Library/DaisyToolchain/0.2.0/arm/arm-none-eabi/include/c++/10.3.1/type_traits"
 1417              		.file 27 "/Library/DaisyToolchain/0.2.0/arm/arm-none-eabi/include/c++/10.3.1/debug/debug.h"
 1418              		.file 28 "/Library/DaisyToolchain/0.2.0/arm/arm-none-eabi/include/c++/10.3.1/arm-none-eabi/thumb/v
 1419              		.file 29 "/Library/DaisyToolchain/0.2.0/arm/arm-none-eabi/include/c++/10.3.1/bits/algorithmfwd.h"
 1420              		.file 30 "/Library/DaisyToolchain/0.2.0/arm/arm-none-eabi/include/c++/10.3.1/bits/stl_pair.h"
 1421              		.file 31 "/Library/DaisyToolchain/0.2.0/arm/arm-none-eabi/include/c++/10.3.1/bits/exception_ptr.h"
 1422              		.file 32 "/Library/DaisyToolchain/0.2.0/arm/arm-none-eabi/include/c++/10.3.1/cstdarg"
 1423              		.file 33 "/Library/DaisyToolchain/0.2.0/arm/arm-none-eabi/include/c++/10.3.1/cstdio"
 1424              		.file 34 "/Library/DaisyToolchain/0.2.0/arm/arm-none-eabi/include/c++/10.3.1/cstring"
 1425              		.file 35 "/Library/DaisyToolchain/0.2.0/arm/arm-none-eabi/include/c++/10.3.1/bits/predefined_ops.h
 1426              		.file 36 "/Library/DaisyToolchain/0.2.0/arm/arm-none-eabi/include/sys/_types.h"
 1427              		.file 37 "/Library/DaisyToolchain/0.2.0/arm/arm-none-eabi/include/sys/reent.h"
 1428              		.file 38 "/Library/DaisyToolchain/0.2.0/arm/arm-none-eabi/include/sys/lock.h"
 1429              		.file 39 "/Library/DaisyToolchain/0.2.0/arm/arm-none-eabi/include/math.h"
 1430              		.file 40 "/Library/DaisyToolchain/0.2.0/arm/arm-none-eabi/include/stdlib.h"
 1431              		.file 41 "/Library/DaisyToolchain/0.2.0/arm/arm-none-eabi/include/c++/10.3.1/math.h"
 1432              		.file 42 "/Library/DaisyToolchain/0.2.0/arm/arm-none-eabi/include/c++/10.3.1/stdlib.h"
 1433              		.file 43 "../../libDaisy//src/daisy_core.h"
 1434              		.file 44 "../../libDaisy//src/per/tim.h"
 1435              		.file 45 "../../libDaisy//src/per/sai.h"
 1436              		.file 46 "../../libDaisy//src/hid/MidiEvent.h"
 1437              		.file 47 "../../libDaisy//src/per/rng.h"
 1438              		.file 48 "../../libDaisy//src/util/wav_format.h"
 1439              		.file 49 "../../libDaisy//src/util/color.h"
 1440              		.file 50 "../../libDaisy//src/dev/max11300.h"
 1441              		.file 51 "../../libDaisy//src/per/gpio.h"
 1442              		.file 52 "../../libDaisy//src/dev/sdram.h"
 1443              		.file 53 "/Library/DaisyToolchain/0.2.0/arm/lib/gcc/arm-none-eabi/10.3.1/include/stdarg.h"
 1444              		.file 54 "/Library/DaisyToolchain/0.2.0/arm/arm-none-eabi/include/stdio.h"
ARM GAS  /var/folders/ky/97y1n_614tj15gjp3pmt3wd00000gn/T//cc3mVKw2.s 			page 51


 1445              		.file 55 "/Library/DaisyToolchain/0.2.0/arm/arm-none-eabi/include/string.h"
 1446              		.file 56 "../../../LEAF/leaf/./Inc/leaf-mempool.h"
 1447              		.file 57 "../../../LEAF/leaf/./Inc/leaf-global.h"
 1448              		.file 58 "../../../LEAF/leaf/./Inc/leaf-oscillators.h"
 1449              		.file 59 "../../../LEAF/leaf/leaf.h"
 1450              		.file 60 "../../../LEAF/leaf/./Inc/leaf-math.h"
 1451              		.file 61 "<built-in>"
 1452              		.file 62 "../../libDaisy//src/dev/sr_595.h"
ARM GAS  /var/folders/ky/97y1n_614tj15gjp3pmt3wd00000gn/T//cc3mVKw2.s 			page 52

