ARM GAS  /var/folders/ky/97y1n_614tj15gjp3pmt3wd00000gn/T//ccpV02iO.s 			page 1


   1              		.cpu cortex-m7
   2              		.arch armv7e-m
   3              		.fpu fpv5-d16
   4              		.eabi_attribute 28, 1
   5              		.eabi_attribute 20, 1
   6              		.eabi_attribute 21, 1
   7              		.eabi_attribute 23, 3
   8              		.eabi_attribute 24, 1
   9              		.eabi_attribute 25, 1
  10              		.eabi_attribute 26, 1
  11              		.eabi_attribute 30, 2
  12              		.eabi_attribute 34, 1
  13              		.eabi_attribute 18, 4
  14              		.file	"MyProj.cpp"
  15              		.text
  16              	.Ltext0:
  17              		.cfi_sections	.debug_frame
  18              		.section	.text._ZN5daisy8DaisyPodD2Ev,"axG",%progbits,_ZN5daisy8DaisyPodD5Ev,comdat
  19              		.align	1
  20              		.p2align 2,,3
  21              		.weak	_ZN5daisy8DaisyPodD2Ev
  22              		.syntax unified
  23              		.thumb
  24              		.thumb_func
  26              	_ZN5daisy8DaisyPodD2Ev:
  27              	.LVL0:
  28              	.LFB2538:
  29              		.file 1 "../../libDaisy//src/daisy_pod.h"
   1:../../libDaisy//src/daisy_pod.h **** #pragma once
   2:../../libDaisy//src/daisy_pod.h **** #ifndef DSY_POD_BSP_H
   3:../../libDaisy//src/daisy_pod.h **** #define DSY_POD_BSP_H
   4:../../libDaisy//src/daisy_pod.h **** 
   5:../../libDaisy//src/daisy_pod.h **** #include "daisy_seed.h"
   6:../../libDaisy//src/daisy_pod.h **** 
   7:../../libDaisy//src/daisy_pod.h **** namespace daisy
   8:../../libDaisy//src/daisy_pod.h **** {
   9:../../libDaisy//src/daisy_pod.h **** /**
  10:../../libDaisy//src/daisy_pod.h ****     @brief Class that handles initializing all of the hardware specific to the Daisy Patch Board. \
  11:../../libDaisy//src/daisy_pod.h ****     Helper funtions are also in place to provide easy access to built-in controls and peripherals.
  12:../../libDaisy//src/daisy_pod.h ****     @author Stephen Hensley
  13:../../libDaisy//src/daisy_pod.h ****     @date November 2019
  14:../../libDaisy//src/daisy_pod.h ****     @ingroup boards
  15:../../libDaisy//src/daisy_pod.h **** */
  16:../../libDaisy//src/daisy_pod.h **** class DaisyPod
  17:../../libDaisy//src/daisy_pod.h **** {
  18:../../libDaisy//src/daisy_pod.h ****   public:
  19:../../libDaisy//src/daisy_pod.h ****     /** Switches */
  20:../../libDaisy//src/daisy_pod.h ****     enum Sw
  21:../../libDaisy//src/daisy_pod.h ****     {
  22:../../libDaisy//src/daisy_pod.h ****         BUTTON_1,    /** & */
  23:../../libDaisy//src/daisy_pod.h ****         BUTTON_2,    /** & */
  24:../../libDaisy//src/daisy_pod.h ****         BUTTON_LAST, /** &  */
  25:../../libDaisy//src/daisy_pod.h ****     };
  26:../../libDaisy//src/daisy_pod.h **** 
  27:../../libDaisy//src/daisy_pod.h ****     /** Knobs */
  28:../../libDaisy//src/daisy_pod.h ****     enum Knob
  29:../../libDaisy//src/daisy_pod.h ****     {
ARM GAS  /var/folders/ky/97y1n_614tj15gjp3pmt3wd00000gn/T//ccpV02iO.s 			page 2


  30:../../libDaisy//src/daisy_pod.h ****         KNOB_1,    /** &  */
  31:../../libDaisy//src/daisy_pod.h ****         KNOB_2,    /** & */
  32:../../libDaisy//src/daisy_pod.h ****         KNOB_LAST, /** & */
  33:../../libDaisy//src/daisy_pod.h ****     };
  34:../../libDaisy//src/daisy_pod.h **** 
  35:../../libDaisy//src/daisy_pod.h ****     DaisyPod() {}
  36:../../libDaisy//src/daisy_pod.h ****     ~DaisyPod() {}
  30              		.loc 1 36 5 view -0
  31              		.cfi_startproc
  32              		@ args = 0, pretend = 0, frame = 0
  33              		@ frame_needed = 0, uses_anonymous_args = 0
  34              		@ link register save eliminated.
  35              	.LBB296:
  36              	.LBI296:
  37              		.file 2 "../../libDaisy//src/hid/midi.h"
   1:../../libDaisy//src/hid/midi.h **** #pragma once
   2:../../libDaisy//src/hid/midi.h **** #ifndef DSY_MIDI_H
   3:../../libDaisy//src/hid/midi.h **** #define DSY_MIDI_H
   4:../../libDaisy//src/hid/midi.h **** 
   5:../../libDaisy//src/hid/midi.h **** // TODO: make this adjustable
   6:../../libDaisy//src/hid/midi.h **** #define SYSEX_BUFFER_LEN 128
   7:../../libDaisy//src/hid/midi.h **** 
   8:../../libDaisy//src/hid/midi.h **** #include <stdint.h>
   9:../../libDaisy//src/hid/midi.h **** #include <stdlib.h>
  10:../../libDaisy//src/hid/midi.h **** #include "per/uart.h"
  11:../../libDaisy//src/hid/midi.h **** #include "util/ringbuffer.h"
  12:../../libDaisy//src/hid/midi.h **** #include "hid/MidiEvent.h"
  13:../../libDaisy//src/hid/midi.h **** #include "hid/usb_midi.h"
  14:../../libDaisy//src/hid/midi.h **** #include "sys/system.h"
  15:../../libDaisy//src/hid/midi.h **** 
  16:../../libDaisy//src/hid/midi.h **** namespace daisy
  17:../../libDaisy//src/hid/midi.h **** {
  18:../../libDaisy//src/hid/midi.h **** /** @brief   Transport layer for sending and receiving MIDI data over UART 
  19:../../libDaisy//src/hid/midi.h ****  *  @details This is the mode of communication used for TRS and DIN MIDI
  20:../../libDaisy//src/hid/midi.h ****  *  @ingroup midi
  21:../../libDaisy//src/hid/midi.h **** */
  22:../../libDaisy//src/hid/midi.h **** class MidiUartTransport
  23:../../libDaisy//src/hid/midi.h **** {
  24:../../libDaisy//src/hid/midi.h ****   public:
  25:../../libDaisy//src/hid/midi.h ****     MidiUartTransport() {}
  26:../../libDaisy//src/hid/midi.h ****     ~MidiUartTransport() {}
  27:../../libDaisy//src/hid/midi.h **** 
  28:../../libDaisy//src/hid/midi.h ****     struct Config
  29:../../libDaisy//src/hid/midi.h ****     {
  30:../../libDaisy//src/hid/midi.h ****         UartHandler::Config::Peripheral periph;
  31:../../libDaisy//src/hid/midi.h ****         dsy_gpio_pin                    rx;
  32:../../libDaisy//src/hid/midi.h ****         dsy_gpio_pin                    tx;
  33:../../libDaisy//src/hid/midi.h **** 
  34:../../libDaisy//src/hid/midi.h ****         Config()
  35:../../libDaisy//src/hid/midi.h ****         {
  36:../../libDaisy//src/hid/midi.h ****             periph = UartHandler::Config::Peripheral::USART_1;
  37:../../libDaisy//src/hid/midi.h ****             rx     = {DSY_GPIOB, 7};
  38:../../libDaisy//src/hid/midi.h ****             tx     = {DSY_GPIOB, 6};
  39:../../libDaisy//src/hid/midi.h ****         }
  40:../../libDaisy//src/hid/midi.h ****     };
  41:../../libDaisy//src/hid/midi.h **** 
  42:../../libDaisy//src/hid/midi.h ****     inline void Init(Config config)
ARM GAS  /var/folders/ky/97y1n_614tj15gjp3pmt3wd00000gn/T//ccpV02iO.s 			page 3


  43:../../libDaisy//src/hid/midi.h ****     {
  44:../../libDaisy//src/hid/midi.h ****         UartHandler::Config uart_config;
  45:../../libDaisy//src/hid/midi.h **** 
  46:../../libDaisy//src/hid/midi.h ****         //defaults
  47:../../libDaisy//src/hid/midi.h ****         uart_config.baudrate   = 31250;
  48:../../libDaisy//src/hid/midi.h ****         uart_config.stopbits   = UartHandler::Config::StopBits::BITS_1;
  49:../../libDaisy//src/hid/midi.h ****         uart_config.parity     = UartHandler::Config::Parity::NONE;
  50:../../libDaisy//src/hid/midi.h ****         uart_config.mode       = UartHandler::Config::Mode::TX_RX;
  51:../../libDaisy//src/hid/midi.h ****         uart_config.wordlength = UartHandler::Config::WordLength::BITS_8;
  52:../../libDaisy//src/hid/midi.h **** 
  53:../../libDaisy//src/hid/midi.h ****         //user settings
  54:../../libDaisy//src/hid/midi.h ****         uart_config.periph        = config.periph;
  55:../../libDaisy//src/hid/midi.h ****         uart_config.pin_config.rx = config.rx;
  56:../../libDaisy//src/hid/midi.h ****         uart_config.pin_config.tx = config.tx;
  57:../../libDaisy//src/hid/midi.h **** 
  58:../../libDaisy//src/hid/midi.h ****         uart_.Init(uart_config);
  59:../../libDaisy//src/hid/midi.h ****     }
  60:../../libDaisy//src/hid/midi.h **** 
  61:../../libDaisy//src/hid/midi.h ****     inline void    StartRx() { uart_.StartRx(); }
  62:../../libDaisy//src/hid/midi.h ****     inline size_t  Readable() { return uart_.Readable(); }
  63:../../libDaisy//src/hid/midi.h ****     inline uint8_t Rx() { return uart_.PopRx(); }
  64:../../libDaisy//src/hid/midi.h ****     inline bool    RxActive() { return uart_.RxActive(); }
  65:../../libDaisy//src/hid/midi.h ****     inline void    FlushRx() { uart_.FlushRx(); }
  66:../../libDaisy//src/hid/midi.h ****     inline void    Tx(uint8_t* buff, size_t size) { uart_.PollTx(buff, size); }
  67:../../libDaisy//src/hid/midi.h **** 
  68:../../libDaisy//src/hid/midi.h ****   private:
  69:../../libDaisy//src/hid/midi.h ****     UartHandler uart_;
  70:../../libDaisy//src/hid/midi.h **** };
  71:../../libDaisy//src/hid/midi.h **** 
  72:../../libDaisy//src/hid/midi.h **** /** 
  73:../../libDaisy//src/hid/midi.h ****     @brief Simple MIDI Handler \n 
  74:../../libDaisy//src/hid/midi.h ****     Parses bytes from an input into valid MidiEvents. \n 
  75:../../libDaisy//src/hid/midi.h ****     The MidiEvents fill a FIFO queue that the user can pop messages from.
  76:../../libDaisy//src/hid/midi.h ****     @author shensley
  77:../../libDaisy//src/hid/midi.h ****     @date March 2020
  78:../../libDaisy//src/hid/midi.h ****     @ingroup midi
  79:../../libDaisy//src/hid/midi.h **** */
  80:../../libDaisy//src/hid/midi.h **** template <typename Transport>
  81:../../libDaisy//src/hid/midi.h **** class MidiHandler
  82:../../libDaisy//src/hid/midi.h **** {
  83:../../libDaisy//src/hid/midi.h ****   public:
  84:../../libDaisy//src/hid/midi.h ****     MidiHandler() {}
  85:../../libDaisy//src/hid/midi.h ****     ~MidiHandler() {}
  38              		.loc 2 85 5 view .LVU1
  39              	.LBB297:
  40              	.LBI297:
  26:../../libDaisy//src/hid/midi.h **** 
  41              		.loc 2 26 5 view .LVU2
  26:../../libDaisy//src/hid/midi.h **** 
  42              		.loc 2 26 5 is_stmt 0 view .LVU3
  43              	.LBE297:
  44              	.LBE296:
  45              	.LBB298:
  46              	.LBI298:
  47              		.file 3 "../../libDaisy//src/hid/rgb_led.h"
   1:../../libDaisy//src/hid/rgb_led.h **** #pragma once
   2:../../libDaisy//src/hid/rgb_led.h **** #ifndef DSY_RGB_LED_H
ARM GAS  /var/folders/ky/97y1n_614tj15gjp3pmt3wd00000gn/T//ccpV02iO.s 			page 4


   3:../../libDaisy//src/hid/rgb_led.h **** #define DSY_RGB_LED_H
   4:../../libDaisy//src/hid/rgb_led.h **** #include "hid/led.h"
   5:../../libDaisy//src/hid/rgb_led.h **** #include "util/color.h"
   6:../../libDaisy//src/hid/rgb_led.h **** 
   7:../../libDaisy//src/hid/rgb_led.h **** namespace daisy
   8:../../libDaisy//src/hid/rgb_led.h **** {
   9:../../libDaisy//src/hid/rgb_led.h **** /** @addtogroup feedback
  10:../../libDaisy//src/hid/rgb_led.h ****     @{
  11:../../libDaisy//src/hid/rgb_led.h **** */
  12:../../libDaisy//src/hid/rgb_led.h **** 
  13:../../libDaisy//src/hid/rgb_led.h **** /** 3x LEDs configured as an RGB for ease of use. */
  14:../../libDaisy//src/hid/rgb_led.h **** class RgbLed
  15:../../libDaisy//src/hid/rgb_led.h **** {
  16:../../libDaisy//src/hid/rgb_led.h ****   public:
  17:../../libDaisy//src/hid/rgb_led.h ****     RgbLed() {}
  18:../../libDaisy//src/hid/rgb_led.h ****     ~RgbLed() {}
  48              		.loc 3 18 5 is_stmt 1 view .LVU4
  49              	.LBB299:
  50              	.LBI299:
  51              		.file 4 "../../libDaisy//src/hid/led.h"
   1:../../libDaisy//src/hid/led.h **** 
   2:../../libDaisy//src/hid/led.h **** #pragma once
   3:../../libDaisy//src/hid/led.h **** #ifndef DSY_LED_H
   4:../../libDaisy//src/hid/led.h **** #define DSY_LED_H
   5:../../libDaisy//src/hid/led.h **** #include "daisy_core.h"
   6:../../libDaisy//src/hid/led.h **** #include "per/gpio.h"
   7:../../libDaisy//src/hid/led.h **** 
   8:../../libDaisy//src/hid/led.h **** /* TODO - Get this set up to work with the dev_leddriver stuff as well
   9:../../libDaisy//src/hid/led.h **** - Setup Hardware PWM for pins that have it
  10:../../libDaisy//src/hid/led.h **** */
  11:../../libDaisy//src/hid/led.h **** 
  12:../../libDaisy//src/hid/led.h **** namespace daisy
  13:../../libDaisy//src/hid/led.h **** {
  14:../../libDaisy//src/hid/led.h **** /**
  15:../../libDaisy//src/hid/led.h ****     @brief LED Class providing simple Software PWM ability, etc \n 
  16:../../libDaisy//src/hid/led.h ****     Eventually this will work with hardware PWM, and external LED Driver devices as well.
  17:../../libDaisy//src/hid/led.h ****     @author shensley
  18:../../libDaisy//src/hid/led.h ****     @date March 2020
  19:../../libDaisy//src/hid/led.h ****     @ingroup feedback
  20:../../libDaisy//src/hid/led.h **** */
  21:../../libDaisy//src/hid/led.h **** class Led
  22:../../libDaisy//src/hid/led.h **** {
  23:../../libDaisy//src/hid/led.h ****   public:
  24:../../libDaisy//src/hid/led.h ****     Led() {}
  25:../../libDaisy//src/hid/led.h ****     ~Led() {}
  52              		.loc 4 25 5 view .LVU5
  53              		.loc 4 25 5 is_stmt 0 view .LVU6
  54              	.LBE299:
  55              	.LBB300:
  56              	.LBI300:
  57              		.loc 4 25 5 is_stmt 1 view .LVU7
  58              		.loc 4 25 5 is_stmt 0 view .LVU8
  59              	.LBE300:
  60              	.LBB301:
  61              	.LBI301:
  62              		.loc 4 25 5 is_stmt 1 view .LVU9
  63              		.loc 4 25 5 is_stmt 0 view .LVU10
ARM GAS  /var/folders/ky/97y1n_614tj15gjp3pmt3wd00000gn/T//ccpV02iO.s 			page 5


  64              	.LBE301:
  65              	.LBE298:
  66              	.LBB302:
  67              	.LBI302:
  68              		.loc 3 18 5 is_stmt 1 view .LVU11
  69              	.LBB303:
  70              	.LBI303:
  71              		.loc 4 25 5 view .LVU12
  72              		.loc 4 25 5 is_stmt 0 view .LVU13
  73              	.LBE303:
  74              	.LBB304:
  75              	.LBI304:
  76              		.loc 4 25 5 is_stmt 1 view .LVU14
  77              		.loc 4 25 5 is_stmt 0 view .LVU15
  78              	.LBE304:
  79              	.LBB305:
  80              	.LBI305:
  81              		.loc 4 25 5 is_stmt 1 view .LVU16
  82              		.loc 4 25 5 is_stmt 0 view .LVU17
  83              	.LBE305:
  84              	.LBE302:
  85              	.LBB306:
  86              	.LBI306:
  87              		.file 5 "../../libDaisy//src/hid/switch.h"
   1:../../libDaisy//src/hid/switch.h **** #pragma once
   2:../../libDaisy//src/hid/switch.h **** #ifndef DSY_SWITCH_H
   3:../../libDaisy//src/hid/switch.h **** #define DSY_SWITCH_H
   4:../../libDaisy//src/hid/switch.h **** #include "daisy_core.h"
   5:../../libDaisy//src/hid/switch.h **** #include "per/gpio.h"
   6:../../libDaisy//src/hid/switch.h **** #include "sys/system.h"
   7:../../libDaisy//src/hid/switch.h **** 
   8:../../libDaisy//src/hid/switch.h **** namespace daisy
   9:../../libDaisy//src/hid/switch.h **** {
  10:../../libDaisy//src/hid/switch.h **** /** 
  11:../../libDaisy//src/hid/switch.h ****     Generic Class for handling momentary/latching switches \n 
  12:../../libDaisy//src/hid/switch.h ****     Inspired/influenced by Mutable Instruments (pichenettes) Switch classes
  13:../../libDaisy//src/hid/switch.h ****     @author Stephen Hensley
  14:../../libDaisy//src/hid/switch.h ****     @date December 2019
  15:../../libDaisy//src/hid/switch.h ****     @ingroup controls
  16:../../libDaisy//src/hid/switch.h **** */
  17:../../libDaisy//src/hid/switch.h **** class Switch
  18:../../libDaisy//src/hid/switch.h **** {
  19:../../libDaisy//src/hid/switch.h ****   public:
  20:../../libDaisy//src/hid/switch.h ****     /** Specifies the expected behavior of the switch */
  21:../../libDaisy//src/hid/switch.h ****     enum Type
  22:../../libDaisy//src/hid/switch.h ****     {
  23:../../libDaisy//src/hid/switch.h ****         TYPE_TOGGLE,    /**< & */
  24:../../libDaisy//src/hid/switch.h ****         TYPE_MOMENTARY, /**< & */
  25:../../libDaisy//src/hid/switch.h ****     };
  26:../../libDaisy//src/hid/switch.h ****     /** Specifies whether the pressed is HIGH or LOW. */
  27:../../libDaisy//src/hid/switch.h ****     enum Polarity
  28:../../libDaisy//src/hid/switch.h ****     {
  29:../../libDaisy//src/hid/switch.h ****         POLARITY_NORMAL,   /**< & */
  30:../../libDaisy//src/hid/switch.h ****         POLARITY_INVERTED, /**< & */
  31:../../libDaisy//src/hid/switch.h ****     };
  32:../../libDaisy//src/hid/switch.h **** 
  33:../../libDaisy//src/hid/switch.h ****     /** Specifies whether to use built-in Pull Up/Down resistors to hold button at a given state wh
ARM GAS  /var/folders/ky/97y1n_614tj15gjp3pmt3wd00000gn/T//ccpV02iO.s 			page 6


  34:../../libDaisy//src/hid/switch.h ****     enum Pull
  35:../../libDaisy//src/hid/switch.h ****     {
  36:../../libDaisy//src/hid/switch.h ****         PULL_UP,   /**< & */
  37:../../libDaisy//src/hid/switch.h ****         PULL_DOWN, /**< & */
  38:../../libDaisy//src/hid/switch.h ****         PULL_NONE, /**< & */
  39:../../libDaisy//src/hid/switch.h ****     };
  40:../../libDaisy//src/hid/switch.h **** 
  41:../../libDaisy//src/hid/switch.h ****     Switch() {}
  42:../../libDaisy//src/hid/switch.h ****     ~Switch() {}
  88              		.loc 5 42 5 is_stmt 1 view .LVU18
  89              		.loc 5 42 5 is_stmt 0 view .LVU19
  90              	.LBE306:
  91              	.LBB307:
  92              	.LBI307:
  93              		.loc 5 42 5 is_stmt 1 view .LVU20
  94              		.loc 5 42 5 is_stmt 0 view .LVU21
  95              	.LBE307:
  96              	.LBB308:
  97              	.LBI308:
  98              		.file 6 "../../libDaisy//src/hid/ctrl.h"
   1:../../libDaisy//src/hid/ctrl.h **** #pragma once
   2:../../libDaisy//src/hid/ctrl.h **** #ifndef DSY_KNOB_H
   3:../../libDaisy//src/hid/ctrl.h **** #define DSY_KNOB_H /**< & */
   4:../../libDaisy//src/hid/ctrl.h **** #include <stdint.h>
   5:../../libDaisy//src/hid/ctrl.h **** 
   6:../../libDaisy//src/hid/ctrl.h **** #ifdef __cplusplus
   7:../../libDaisy//src/hid/ctrl.h **** namespace daisy
   8:../../libDaisy//src/hid/ctrl.h **** {
   9:../../libDaisy//src/hid/ctrl.h **** /**
  10:../../libDaisy//src/hid/ctrl.h ****     @brief Hardware Interface for control inputs \n 
  11:../../libDaisy//src/hid/ctrl.h ****     Primarily designed for ADC input controls such as \n 
  12:../../libDaisy//src/hid/ctrl.h ****     potentiometers, and control voltage. \n 
  13:../../libDaisy//src/hid/ctrl.h ****     @author Stephen Hensley
  14:../../libDaisy//src/hid/ctrl.h ****     @date November 2019
  15:../../libDaisy//src/hid/ctrl.h ****     @ingroup controls
  16:../../libDaisy//src/hid/ctrl.h **** */
  17:../../libDaisy//src/hid/ctrl.h **** class AnalogControl
  18:../../libDaisy//src/hid/ctrl.h **** {
  19:../../libDaisy//src/hid/ctrl.h ****   public:
  20:../../libDaisy//src/hid/ctrl.h ****     /** Constructor */
  21:../../libDaisy//src/hid/ctrl.h ****     AnalogControl() {}
  22:../../libDaisy//src/hid/ctrl.h ****     /** destructor */
  23:../../libDaisy//src/hid/ctrl.h ****     ~AnalogControl() {}
  99              		.loc 6 23 5 is_stmt 1 view .LVU22
 100              		.loc 6 23 5 is_stmt 0 view .LVU23
 101              	.LBE308:
 102              	.LBB309:
 103              	.LBI309:
 104              		.loc 6 23 5 is_stmt 1 view .LVU24
 105              		.loc 6 23 5 is_stmt 0 view .LVU25
 106              	.LBE309:
 107              	.LBB310:
 108              	.LBI310:
 109              		.file 7 "../../libDaisy//src/hid/encoder.h"
   1:../../libDaisy//src/hid/encoder.h **** #pragma once
   2:../../libDaisy//src/hid/encoder.h **** #ifndef DSY_ENCODER_H
   3:../../libDaisy//src/hid/encoder.h **** #define DSY_ENCODER_H
ARM GAS  /var/folders/ky/97y1n_614tj15gjp3pmt3wd00000gn/T//ccpV02iO.s 			page 7


   4:../../libDaisy//src/hid/encoder.h **** #include "daisy_core.h"
   5:../../libDaisy//src/hid/encoder.h **** #include "per/gpio.h"
   6:../../libDaisy//src/hid/encoder.h **** #include "hid/switch.h"
   7:../../libDaisy//src/hid/encoder.h **** 
   8:../../libDaisy//src/hid/encoder.h **** namespace daisy
   9:../../libDaisy//src/hid/encoder.h **** {
  10:../../libDaisy//src/hid/encoder.h **** /** 
  11:../../libDaisy//src/hid/encoder.h ****     @brief Generic Class for handling Quadrature Encoders \n 
  12:../../libDaisy//src/hid/encoder.h ****     Inspired/influenced by Mutable Instruments (pichenettes) Encoder classes
  13:../../libDaisy//src/hid/encoder.h ****     @author Stephen Hensley
  14:../../libDaisy//src/hid/encoder.h ****     @date December 2019
  15:../../libDaisy//src/hid/encoder.h ****     @ingroup controls
  16:../../libDaisy//src/hid/encoder.h **** */
  17:../../libDaisy//src/hid/encoder.h **** class Encoder
  18:../../libDaisy//src/hid/encoder.h **** {
  19:../../libDaisy//src/hid/encoder.h ****   public:
  20:../../libDaisy//src/hid/encoder.h ****     Encoder() {}
  21:../../libDaisy//src/hid/encoder.h ****     ~Encoder() {}
 110              		.loc 7 21 5 is_stmt 1 view .LVU26
 111              	.LBB311:
 112              	.LBI311:
 113              		.loc 5 42 5 view .LVU27
 114              		.loc 5 42 5 is_stmt 0 view .LVU28
 115              	.LBE311:
 116              	.LBE310:
 117              	.LBB312:
 118              	.LBI312:
 119              		.file 8 "../../libDaisy//src/daisy_seed.h"
   1:../../libDaisy//src/daisy_seed.h **** #pragma once
   2:../../libDaisy//src/daisy_seed.h **** #ifndef DSY_SEED_H
   3:../../libDaisy//src/daisy_seed.h **** #define DSY_SEED_H
   4:../../libDaisy//src/daisy_seed.h **** 
   5:../../libDaisy//src/daisy_seed.h **** #include "daisy.h"
   6:../../libDaisy//src/daisy_seed.h **** 
   7:../../libDaisy//src/daisy_seed.h **** //Uncomment this out if you're still using the rev2 hardware
   8:../../libDaisy//src/daisy_seed.h **** //#define SEED_REV2
   9:../../libDaisy//src/daisy_seed.h **** 
  10:../../libDaisy//src/daisy_seed.h **** namespace daisy
  11:../../libDaisy//src/daisy_seed.h **** {
  12:../../libDaisy//src/daisy_seed.h **** /**
  13:../../libDaisy//src/daisy_seed.h ****    @brief This is the higher-level interface for the Daisy board. \n 
  14:../../libDaisy//src/daisy_seed.h ****     All basic peripheral configuration/initialization is setup here. \n
  15:../../libDaisy//src/daisy_seed.h **** 
  16:../../libDaisy//src/daisy_seed.h ****    @ingroup boards
  17:../../libDaisy//src/daisy_seed.h **** */
  18:../../libDaisy//src/daisy_seed.h **** class DaisySeed
  19:../../libDaisy//src/daisy_seed.h **** {
  20:../../libDaisy//src/daisy_seed.h ****   public:
  21:../../libDaisy//src/daisy_seed.h ****     DaisySeed() {}
  22:../../libDaisy//src/daisy_seed.h ****     ~DaisySeed() {}
 120              		.loc 8 22 5 is_stmt 1 view .LVU29
 121              	.LBB313:
 122              	.LBI313:
 123              		.file 9 "../../libDaisy//src/sys/system.h"
   1:../../libDaisy//src/sys/system.h **** #ifndef DSY_SYSTEM_H
   2:../../libDaisy//src/sys/system.h **** #define DSY_SYSTEM_H
   3:../../libDaisy//src/sys/system.h **** 
ARM GAS  /var/folders/ky/97y1n_614tj15gjp3pmt3wd00000gn/T//ccpV02iO.s 			page 8


   4:../../libDaisy//src/sys/system.h **** #ifndef UNIT_TEST // for unit tests, a dummy implementation is provided below
   5:../../libDaisy//src/sys/system.h **** 
   6:../../libDaisy//src/sys/system.h **** #include <cstdint>
   7:../../libDaisy//src/sys/system.h **** #include "per/tim.h"
   8:../../libDaisy//src/sys/system.h **** 
   9:../../libDaisy//src/sys/system.h **** namespace daisy
  10:../../libDaisy//src/sys/system.h **** {
  11:../../libDaisy//src/sys/system.h **** /** A handle for interacting with the Core System. 
  12:../../libDaisy//src/sys/system.h ****  ** This includes the Clock tree, MPU, global DMA initialization,
  13:../../libDaisy//src/sys/system.h ****  ** cache handling, and any other necessary global initiailzation
  14:../../libDaisy//src/sys/system.h ****  **
  15:../../libDaisy//src/sys/system.h ****  ** @author shensley
  16:../../libDaisy//src/sys/system.h ****  ** @ingroup system
  17:../../libDaisy//src/sys/system.h ****  */
  18:../../libDaisy//src/sys/system.h **** class System
  19:../../libDaisy//src/sys/system.h **** {
  20:../../libDaisy//src/sys/system.h ****   public:
  21:../../libDaisy//src/sys/system.h ****     /** Contains settings for initializing the System */
  22:../../libDaisy//src/sys/system.h ****     struct Config
  23:../../libDaisy//src/sys/system.h ****     {
  24:../../libDaisy//src/sys/system.h ****         /** Specifies the system clock frequency that feeds APB/AHB clocks, etc. */
  25:../../libDaisy//src/sys/system.h ****         enum class SysClkFreq
  26:../../libDaisy//src/sys/system.h ****         {
  27:../../libDaisy//src/sys/system.h ****             FREQ_400MHZ,
  28:../../libDaisy//src/sys/system.h ****             FREQ_480MHZ,
  29:../../libDaisy//src/sys/system.h ****         };
  30:../../libDaisy//src/sys/system.h **** 
  31:../../libDaisy//src/sys/system.h ****         /** Method to call on the struct to set to defaults
  32:../../libDaisy//src/sys/system.h ****          ** CPU Freq set to 400MHz
  33:../../libDaisy//src/sys/system.h ****          ** Cache Enabled 
  34:../../libDaisy//src/sys/system.h ****          ** */
  35:../../libDaisy//src/sys/system.h ****         void Defaults()
  36:../../libDaisy//src/sys/system.h ****         {
  37:../../libDaisy//src/sys/system.h ****             cpu_freq    = SysClkFreq::FREQ_400MHZ;
  38:../../libDaisy//src/sys/system.h ****             use_dcache  = true;
  39:../../libDaisy//src/sys/system.h ****             use_icache  = true;
  40:../../libDaisy//src/sys/system.h ****             skip_clocks = false;
  41:../../libDaisy//src/sys/system.h ****         }
  42:../../libDaisy//src/sys/system.h **** 
  43:../../libDaisy//src/sys/system.h ****         /** Method to call on the struct to set to boost mode:
  44:../../libDaisy//src/sys/system.h ****          ** CPU Freq set to 480MHz
  45:../../libDaisy//src/sys/system.h ****          ** Cache Enabled 
  46:../../libDaisy//src/sys/system.h ****          ** */
  47:../../libDaisy//src/sys/system.h ****         void Boost()
  48:../../libDaisy//src/sys/system.h ****         {
  49:../../libDaisy//src/sys/system.h ****             cpu_freq    = SysClkFreq::FREQ_480MHZ;
  50:../../libDaisy//src/sys/system.h ****             use_dcache  = true;
  51:../../libDaisy//src/sys/system.h ****             use_icache  = true;
  52:../../libDaisy//src/sys/system.h ****             skip_clocks = false;
  53:../../libDaisy//src/sys/system.h ****         }
  54:../../libDaisy//src/sys/system.h **** 
  55:../../libDaisy//src/sys/system.h ****         SysClkFreq cpu_freq;
  56:../../libDaisy//src/sys/system.h ****         bool       use_dcache;
  57:../../libDaisy//src/sys/system.h ****         bool       use_icache;
  58:../../libDaisy//src/sys/system.h ****         bool       skip_clocks;
  59:../../libDaisy//src/sys/system.h ****     };
  60:../../libDaisy//src/sys/system.h **** 
ARM GAS  /var/folders/ky/97y1n_614tj15gjp3pmt3wd00000gn/T//ccpV02iO.s 			page 9


  61:../../libDaisy//src/sys/system.h ****     /** Describes the different regions of memory available to the Daisy
  62:../../libDaisy//src/sys/system.h ****      * 
  63:../../libDaisy//src/sys/system.h ****      */
  64:../../libDaisy//src/sys/system.h ****     enum MemoryRegion
  65:../../libDaisy//src/sys/system.h ****     {
  66:../../libDaisy//src/sys/system.h ****         INTERNAL_FLASH = 0,
  67:../../libDaisy//src/sys/system.h ****         ITCMRAM,
  68:../../libDaisy//src/sys/system.h ****         DTCMRAM,
  69:../../libDaisy//src/sys/system.h ****         SRAM_D1,
  70:../../libDaisy//src/sys/system.h ****         SRAM_D2,
  71:../../libDaisy//src/sys/system.h ****         SRAM_D3,
  72:../../libDaisy//src/sys/system.h ****         SDRAM,
  73:../../libDaisy//src/sys/system.h ****         QSPI,
  74:../../libDaisy//src/sys/system.h ****         INVALID_ADDRESS,
  75:../../libDaisy//src/sys/system.h ****     };
  76:../../libDaisy//src/sys/system.h **** 
  77:../../libDaisy//src/sys/system.h ****     System() {}
  78:../../libDaisy//src/sys/system.h ****     ~System() {}
 124              		.loc 9 78 5 view .LVU30
 125              		.loc 9 78 5 is_stmt 0 view .LVU31
 126              	.LBE313:
 127              	.LBB314:
 128              	.LBI314:
 129              		.file 10 "../../libDaisy//src/hid/usb.h"
   1:../../libDaisy//src/hid/usb.h **** #pragma once
   2:../../libDaisy//src/hid/usb.h **** #ifndef DSY_HID_USB_H
   3:../../libDaisy//src/hid/usb.h **** #define DSY_HID_USB_H
   4:../../libDaisy//src/hid/usb.h **** #include <stdint.h>
   5:../../libDaisy//src/hid/usb.h **** #include <stdlib.h>
   6:../../libDaisy//src/hid/usb.h **** 
   7:../../libDaisy//src/hid/usb.h **** namespace daisy
   8:../../libDaisy//src/hid/usb.h **** /** @addtogroup human_interface
   9:../../libDaisy//src/hid/usb.h ****     @{
  10:../../libDaisy//src/hid/usb.h **** */
  11:../../libDaisy//src/hid/usb.h **** 
  12:../../libDaisy//src/hid/usb.h **** {
  13:../../libDaisy//src/hid/usb.h **** /** 
  14:../../libDaisy//src/hid/usb.h ****     @brief Interface for initializing and using the USB Peripherals on the daisy
  15:../../libDaisy//src/hid/usb.h ****     @author Stephen Hensley
  16:../../libDaisy//src/hid/usb.h ****     @date December 2019
  17:../../libDaisy//src/hid/usb.h **** */
  18:../../libDaisy//src/hid/usb.h **** class UsbHandle
  19:../../libDaisy//src/hid/usb.h **** {
  20:../../libDaisy//src/hid/usb.h ****   public:
  21:../../libDaisy//src/hid/usb.h ****     /** Return values for USBHandle Functions */
  22:../../libDaisy//src/hid/usb.h ****     enum class Result
  23:../../libDaisy//src/hid/usb.h ****     {
  24:../../libDaisy//src/hid/usb.h ****         OK,
  25:../../libDaisy//src/hid/usb.h ****         ERR,
  26:../../libDaisy//src/hid/usb.h ****     };
  27:../../libDaisy//src/hid/usb.h **** 
  28:../../libDaisy//src/hid/usb.h ****     /** Specified which of the two USB Peripherals to initialize. */
  29:../../libDaisy//src/hid/usb.h ****     enum UsbPeriph
  30:../../libDaisy//src/hid/usb.h ****     {
  31:../../libDaisy//src/hid/usb.h ****         FS_INTERNAL, /**< Internal pin */
  32:../../libDaisy//src/hid/usb.h ****         FS_EXTERNAL, /**< FS External D+ pin is Pin 38 (GPIO32). FS External D- pin is Pin 37 (GPIO
  33:../../libDaisy//src/hid/usb.h ****         FS_BOTH,     /**< Both */
ARM GAS  /var/folders/ky/97y1n_614tj15gjp3pmt3wd00000gn/T//ccpV02iO.s 			page 10


  34:../../libDaisy//src/hid/usb.h ****     };
  35:../../libDaisy//src/hid/usb.h **** 
  36:../../libDaisy//src/hid/usb.h **** 
  37:../../libDaisy//src/hid/usb.h ****     /** Function called upon reception of a buffer */
  38:../../libDaisy//src/hid/usb.h ****     typedef void (*ReceiveCallback)(uint8_t* buff, uint32_t* len);
  39:../../libDaisy//src/hid/usb.h **** 
  40:../../libDaisy//src/hid/usb.h ****     UsbHandle() {}
  41:../../libDaisy//src/hid/usb.h **** 
  42:../../libDaisy//src/hid/usb.h ****     ~UsbHandle() {}
 130              		.loc 10 42 5 is_stmt 1 view .LVU32
 131              		.loc 10 42 5 is_stmt 0 view .LVU33
 132              	.LBE314:
 133              	.LBB315:
 134              	.LBI315:
 135              		.file 11 "../../libDaisy//src/per/adc.h"
   1:../../libDaisy//src/per/adc.h **** #pragma once
   2:../../libDaisy//src/per/adc.h **** #ifndef DSY_ADC_H
   3:../../libDaisy//src/per/adc.h **** #define DSY_ADC_H /**< Macro */
   4:../../libDaisy//src/per/adc.h **** #include <stdint.h>
   5:../../libDaisy//src/per/adc.h **** #include <stdlib.h>
   6:../../libDaisy//src/per/adc.h **** #include "daisy_core.h"
   7:../../libDaisy//src/per/adc.h **** #include "per/gpio.h"
   8:../../libDaisy//src/per/adc.h **** 
   9:../../libDaisy//src/per/adc.h **** #define DSY_ADC_MAX_CHANNELS 16 /**< Maximum number of ADC channels */
  10:../../libDaisy//src/per/adc.h **** 
  11:../../libDaisy//src/per/adc.h **** namespace daisy
  12:../../libDaisy//src/per/adc.h **** {
  13:../../libDaisy//src/per/adc.h **** /** @addtogroup per_analog
  14:../../libDaisy//src/per/adc.h ****     @{
  15:../../libDaisy//src/per/adc.h **** */
  16:../../libDaisy//src/per/adc.h **** 
  17:../../libDaisy//src/per/adc.h **** /* While there may not be many configuration options here,
  18:../../libDaisy//src/per/adc.h **** using a struct like this allows us to add more configuration
  19:../../libDaisy//src/per/adc.h **** later without breaking existing functionality.
  20:../../libDaisy//src/per/adc.h **** */
  21:../../libDaisy//src/per/adc.h **** 
  22:../../libDaisy//src/per/adc.h **** /** @brief   Configuration Structure for an ADC Channel 
  23:../../libDaisy//src/per/adc.h ****  *  @details This can be used to configure a a single input, 
  24:../../libDaisy//src/per/adc.h ****  *           or a multiplexed input, allowing up to 8 inputs on 
  25:../../libDaisy//src/per/adc.h ****  *           one channel.
  26:../../libDaisy//src/per/adc.h ****  *  @note    Sharing data lines to multiple muxes _is_ possible, but
  27:../../libDaisy//src/per/adc.h ****  *           each channel sharing data lines must be set to the maximum
  28:../../libDaisy//src/per/adc.h ****  *           number of channels, even if some multiplexers have fewer
  29:../../libDaisy//src/per/adc.h ****  *           inputs connected.
  30:../../libDaisy//src/per/adc.h **** */
  31:../../libDaisy//src/per/adc.h **** struct AdcChannelConfig
  32:../../libDaisy//src/per/adc.h **** {
  33:../../libDaisy//src/per/adc.h ****     /** Which pin to use for multiplexing */
  34:../../libDaisy//src/per/adc.h ****     enum MuxPin
  35:../../libDaisy//src/per/adc.h ****     {
  36:../../libDaisy//src/per/adc.h ****         MUX_SEL_0,    /**< & */
  37:../../libDaisy//src/per/adc.h ****         MUX_SEL_1,    /**< & */
  38:../../libDaisy//src/per/adc.h ****         MUX_SEL_2,    /**< & */
  39:../../libDaisy//src/per/adc.h ****         MUX_SEL_LAST, /**< & */
  40:../../libDaisy//src/per/adc.h ****     };
  41:../../libDaisy//src/per/adc.h **** 
  42:../../libDaisy//src/per/adc.h ****     /** Initializes a single ADC pin as an ADC. 
ARM GAS  /var/folders/ky/97y1n_614tj15gjp3pmt3wd00000gn/T//ccpV02iO.s 			page 11


  43:../../libDaisy//src/per/adc.h ****     \param pin Pin to init.
  44:../../libDaisy//src/per/adc.h ****      */
  45:../../libDaisy//src/per/adc.h ****     void InitSingle(dsy_gpio_pin pin);
  46:../../libDaisy//src/per/adc.h **** 
  47:../../libDaisy//src/per/adc.h ****     /** 
  48:../../libDaisy//src/per/adc.h ****     Initializes a single ADC pin as a Multiplexed ADC.
  49:../../libDaisy//src/per/adc.h ****     Requires a CD405X Multiplexer connected to the pin.
  50:../../libDaisy//src/per/adc.h ****     You only need to supply the mux pins that are required,
  51:../../libDaisy//src/per/adc.h ****     e.g. a 4052 mux would only require mux_0 and mux_1.
  52:../../libDaisy//src/per/adc.h ****     Internal Callbacks handle the pin addressing.
  53:../../libDaisy//src/per/adc.h ****     \param mux_channels must be 1-8
  54:../../libDaisy//src/per/adc.h ****     \param mux_0 First mux pin
  55:../../libDaisy//src/per/adc.h ****     \param mux_1 Second mux pin
  56:../../libDaisy//src/per/adc.h ****     \param mux_2 Third mux pin
  57:../../libDaisy//src/per/adc.h ****     \param adc_pin &
  58:../../libDaisy//src/per/adc.h ****     */
  59:../../libDaisy//src/per/adc.h ****     void InitMux(dsy_gpio_pin adc_pin,
  60:../../libDaisy//src/per/adc.h ****                  size_t       mux_channels,
  61:../../libDaisy//src/per/adc.h ****                  dsy_gpio_pin mux_0,
  62:../../libDaisy//src/per/adc.h ****                  dsy_gpio_pin mux_1 = {DSY_GPIOX, 0},
  63:../../libDaisy//src/per/adc.h ****                  dsy_gpio_pin mux_2 = {DSY_GPIOX, 0});
  64:../../libDaisy//src/per/adc.h **** 
  65:../../libDaisy//src/per/adc.h ****     dsy_gpio pin_;                   /**< & */
  66:../../libDaisy//src/per/adc.h ****     dsy_gpio mux_pin_[MUX_SEL_LAST]; /**< & */
  67:../../libDaisy//src/per/adc.h ****     uint8_t  mux_channels_;          /**< & */
  68:../../libDaisy//src/per/adc.h **** };
  69:../../libDaisy//src/per/adc.h **** 
  70:../../libDaisy//src/per/adc.h **** /**
  71:../../libDaisy//src/per/adc.h ****    @brief Handler for analog to digital conversion
  72:../../libDaisy//src/per/adc.h **** */
  73:../../libDaisy//src/per/adc.h **** class AdcHandle
  74:../../libDaisy//src/per/adc.h **** {
  75:../../libDaisy//src/per/adc.h ****   public:
  76:../../libDaisy//src/per/adc.h ****     /** Supported oversampling amounts */
  77:../../libDaisy//src/per/adc.h ****     enum OverSampling
  78:../../libDaisy//src/per/adc.h ****     {
  79:../../libDaisy//src/per/adc.h ****         OVS_NONE, /**< & */
  80:../../libDaisy//src/per/adc.h ****         OVS_4,    /**< & */
  81:../../libDaisy//src/per/adc.h ****         OVS_8,    /**< & */
  82:../../libDaisy//src/per/adc.h ****         OVS_16,   /**< & */
  83:../../libDaisy//src/per/adc.h ****         OVS_32,   /**< & */
  84:../../libDaisy//src/per/adc.h ****         OVS_64,   /**< & */
  85:../../libDaisy//src/per/adc.h ****         OVS_128,  /**< & */
  86:../../libDaisy//src/per/adc.h ****         OVS_256,  /**< & */
  87:../../libDaisy//src/per/adc.h ****         OVS_512,  /**< & */
  88:../../libDaisy//src/per/adc.h ****         OVS_1024, /**< & */
  89:../../libDaisy//src/per/adc.h ****         OVS_LAST, /**< & */
  90:../../libDaisy//src/per/adc.h ****     };
  91:../../libDaisy//src/per/adc.h **** 
  92:../../libDaisy//src/per/adc.h ****     AdcHandle() {}
  93:../../libDaisy//src/per/adc.h ****     ~AdcHandle() {}
 136              		.loc 11 93 5 is_stmt 1 view .LVU34
 137              		.loc 11 93 5 is_stmt 0 view .LVU35
 138              	.LBE315:
 139              	.LBB316:
 140              	.LBI316:
 141              		.file 12 "../../libDaisy//src/hid/audio.h"
ARM GAS  /var/folders/ky/97y1n_614tj15gjp3pmt3wd00000gn/T//ccpV02iO.s 			page 12


   1:../../libDaisy//src/hid/audio.h **** #ifndef DSY_AUDIO_H
   2:../../libDaisy//src/hid/audio.h **** #define DSY_AUDIO_H /**< & */
   3:../../libDaisy//src/hid/audio.h **** 
   4:../../libDaisy//src/hid/audio.h **** #include "per/sai.h"
   5:../../libDaisy//src/hid/audio.h **** 
   6:../../libDaisy//src/hid/audio.h **** namespace daisy
   7:../../libDaisy//src/hid/audio.h **** {
   8:../../libDaisy//src/hid/audio.h **** /** @brief Audio Engine Handle
   9:../../libDaisy//src/hid/audio.h ****  *  @ingroup audio 
  10:../../libDaisy//src/hid/audio.h ****  *  @details This class allows for higher level access to an audio engine.
  11:../../libDaisy//src/hid/audio.h ****  *           If you're using a SOM like the DaisySeed or DaisyPatchSM (or any 
  12:../../libDaisy//src/hid/audio.h ****  *            board that includes one of those objects) then the intialization
  13:../../libDaisy//src/hid/audio.h ****  *            is already taken  care of.
  14:../../libDaisy//src/hid/audio.h ****  *           If you're setting up your own custom hardware, or need to make changes
  15:../../libDaisy//src/hid/audio.h ****  *           you will have to take the following steps:
  16:../../libDaisy//src/hid/audio.h ****  *             1. Create and Initialize an SaiHandle or two depending on your requirements
  17:../../libDaisy//src/hid/audio.h ****  *             2. Initialize the Audio Handle with the desired settings and the Initialized SaiHand
  18:../../libDaisy//src/hid/audio.h ****  *             3. If the connected codec requires special configuration or initialization, do so
  19:../../libDaisy//src/hid/audio.h ****  *             4. Write a callback method using either the AudioCallback or the InterleavingAudioCa
  20:../../libDaisy//src/hid/audio.h ****  *             5. Start the Audio using one of the StartAudio function
  21:../../libDaisy//src/hid/audio.h ****  */
  22:../../libDaisy//src/hid/audio.h **** class AudioHandle
  23:../../libDaisy//src/hid/audio.h **** {
  24:../../libDaisy//src/hid/audio.h ****   public:
  25:../../libDaisy//src/hid/audio.h ****     /** Manually configurable details about the Audio Engine */
  26:../../libDaisy//src/hid/audio.h ****     /** TODO: Figure out how to get samplerate in here. */
  27:../../libDaisy//src/hid/audio.h ****     struct Config
  28:../../libDaisy//src/hid/audio.h ****     {
  29:../../libDaisy//src/hid/audio.h ****         /** number of samples to process per callback */
  30:../../libDaisy//src/hid/audio.h ****         size_t blocksize;
  31:../../libDaisy//src/hid/audio.h **** 
  32:../../libDaisy//src/hid/audio.h ****         /**< Sample rate of audio */
  33:../../libDaisy//src/hid/audio.h ****         SaiHandle::Config::SampleRate samplerate;
  34:../../libDaisy//src/hid/audio.h **** 
  35:../../libDaisy//src/hid/audio.h ****         /** factor for adjustment before and after callback for hardware that may have extra headro
  36:../../libDaisy//src/hid/audio.h ****         float postgain;
  37:../../libDaisy//src/hid/audio.h **** 
  38:../../libDaisy//src/hid/audio.h ****         /** factor for additional one-sided compensation to audio path for hardware that may
  39:../../libDaisy//src/hid/audio.h ****          *  have unequal input/output ranges
  40:../../libDaisy//src/hid/audio.h ****          */
  41:../../libDaisy//src/hid/audio.h ****         float output_compensation;
  42:../../libDaisy//src/hid/audio.h **** 
  43:../../libDaisy//src/hid/audio.h ****         /** Sets default values for config struct */
  44:../../libDaisy//src/hid/audio.h ****         Config()
  45:../../libDaisy//src/hid/audio.h ****         : blocksize(48),
  46:../../libDaisy//src/hid/audio.h ****           samplerate(SaiHandle::Config::SampleRate::SAI_48KHZ),
  47:../../libDaisy//src/hid/audio.h ****           postgain(1.f),
  48:../../libDaisy//src/hid/audio.h ****           output_compensation(1.f)
  49:../../libDaisy//src/hid/audio.h ****         {
  50:../../libDaisy//src/hid/audio.h ****         }
  51:../../libDaisy//src/hid/audio.h ****     };
  52:../../libDaisy//src/hid/audio.h **** 
  53:../../libDaisy//src/hid/audio.h ****     enum class Result
  54:../../libDaisy//src/hid/audio.h ****     {
  55:../../libDaisy//src/hid/audio.h ****         OK,
  56:../../libDaisy//src/hid/audio.h ****         ERR,
  57:../../libDaisy//src/hid/audio.h ****     };
ARM GAS  /var/folders/ky/97y1n_614tj15gjp3pmt3wd00000gn/T//ccpV02iO.s 			page 13


  58:../../libDaisy//src/hid/audio.h **** 
  59:../../libDaisy//src/hid/audio.h ****     /** Non-Interleaving input buffer
  60:../../libDaisy//src/hid/audio.h ****      * Buffer arranged by float[chn][sample] 
  61:../../libDaisy//src/hid/audio.h ****      * const so that the user can't modify the input
  62:../../libDaisy//src/hid/audio.h ****      */
  63:../../libDaisy//src/hid/audio.h ****     typedef const float* const* InputBuffer;
  64:../../libDaisy//src/hid/audio.h **** 
  65:../../libDaisy//src/hid/audio.h ****     /** Non-Interleaving output buffer
  66:../../libDaisy//src/hid/audio.h ****      * Arranged by float[chn][sample] 
  67:../../libDaisy//src/hid/audio.h ****      */
  68:../../libDaisy//src/hid/audio.h ****     typedef float** OutputBuffer;
  69:../../libDaisy//src/hid/audio.h **** 
  70:../../libDaisy//src/hid/audio.h ****     /** Type for a Non-Interleaving audio callback 
  71:../../libDaisy//src/hid/audio.h ****      * Non-Interleaving audio callbacks in daisy will be of this type
  72:../../libDaisy//src/hid/audio.h ****      */
  73:../../libDaisy//src/hid/audio.h ****     typedef void (*AudioCallback)(InputBuffer  in,
  74:../../libDaisy//src/hid/audio.h ****                                   OutputBuffer out,
  75:../../libDaisy//src/hid/audio.h ****                                   size_t       size);
  76:../../libDaisy//src/hid/audio.h **** 
  77:../../libDaisy//src/hid/audio.h ****     /** Interleaving Input buffer
  78:../../libDaisy//src/hid/audio.h ****      ** audio is prepared as { L0, R0, L1, R1, . . . LN, RN }]
  79:../../libDaisy//src/hid/audio.h ****      ** this is const, as the user shouldn't modify it
  80:../../libDaisy//src/hid/audio.h ****     */
  81:../../libDaisy//src/hid/audio.h ****     typedef const float* InterleavingInputBuffer;
  82:../../libDaisy//src/hid/audio.h **** 
  83:../../libDaisy//src/hid/audio.h ****     /** Interleaving Output buffer 
  84:../../libDaisy//src/hid/audio.h ****      ** audio is prepared as { L0, R0, L1, R1, . . . LN, RN }
  85:../../libDaisy//src/hid/audio.h ****     */
  86:../../libDaisy//src/hid/audio.h ****     typedef float* InterleavingOutputBuffer;
  87:../../libDaisy//src/hid/audio.h **** 
  88:../../libDaisy//src/hid/audio.h ****     /** Interleaving Audio Callback 
  89:../../libDaisy//src/hid/audio.h ****      * Interleaving audio callbacks in daisy must be of this type
  90:../../libDaisy//src/hid/audio.h ****      */
  91:../../libDaisy//src/hid/audio.h ****     typedef void (*InterleavingAudioCallback)(InterleavingInputBuffer  in,
  92:../../libDaisy//src/hid/audio.h ****                                               InterleavingOutputBuffer out,
  93:../../libDaisy//src/hid/audio.h ****                                               size_t                   size);
  94:../../libDaisy//src/hid/audio.h **** 
  95:../../libDaisy//src/hid/audio.h ****     AudioHandle() : pimpl_(nullptr) {}
  96:../../libDaisy//src/hid/audio.h ****     ~AudioHandle() {}
 142              		.loc 12 96 5 is_stmt 1 view .LVU36
 143              		.loc 12 96 5 is_stmt 0 view .LVU37
 144              	.LBE316:
 145              	.LBE312:
 146              		.loc 1 36 18 view .LVU38
 147 0000 7047     		bx	lr
 148              		.cfi_endproc
 149              	.LFE2538:
 151              		.weak	_ZN5daisy8DaisyPodD1Ev
 152              		.thumb_set _ZN5daisy8DaisyPodD1Ev,_ZN5daisy8DaisyPodD2Ev
 153 0002 00BF     		.section	.text._Z12randomNumberv,"ax",%progbits
 154              		.align	1
 155              		.p2align 2,,3
 156              		.global	_Z12randomNumberv
 157              		.syntax unified
 158              		.thumb
 159              		.thumb_func
 161              	_Z12randomNumberv:
ARM GAS  /var/folders/ky/97y1n_614tj15gjp3pmt3wd00000gn/T//ccpV02iO.s 			page 14


 162              	.LFB2541:
 163              		.file 13 "MyProj.cpp"
   1:MyProj.cpp    **** #include "daisy_pod.h"
   2:MyProj.cpp    **** #include "leaf.h"
   3:MyProj.cpp    **** 
   4:MyProj.cpp    **** using namespace daisy;
   5:MyProj.cpp    **** 
   6:MyProj.cpp    **** /*  
   7:MyProj.cpp    ****     "we have
   8:MyProj.cpp    ****             MUTABLE INSTRUMENTS CLOUDS
   9:MyProj.cpp    ****                                       at home!"
  10:MyProj.cpp    ****                                       
  11:MyProj.cpp    ****     Author: Liam Esparraguera
  12:MyProj.cpp    ****     Controls:
  13:MyProj.cpp    ****         L Button - manually trigger grain
  14:MyProj.cpp    ****         L Knob   - grain crossfade
  15:MyProj.cpp    ****         R Knob   - grain size
  16:MyProj.cpp    ****         Encoder  - pitch shift
  17:MyProj.cpp    **** */
  18:MyProj.cpp    **** 
  19:MyProj.cpp    **** LEAF leaf;
  20:MyProj.cpp    **** char leafMemory[455355];
  21:MyProj.cpp    **** 
  22:MyProj.cpp    **** char bigMemory[67108864] DSY_SDRAM_BSS; //64 MB is 64 * 1024 * 1024 = 67108864
  23:MyProj.cpp    **** 
  24:MyProj.cpp    **** tMempool bigPool;
  25:MyProj.cpp    **** DaisyPod hw;
  26:MyProj.cpp    **** 
  27:MyProj.cpp    **** tBuffer  myBuffer;
  28:MyProj.cpp    **** tSampler mySampler;
  29:MyProj.cpp    **** tADSRS   myEnvelope;
  30:MyProj.cpp    **** tSampler mySampler2;
  31:MyProj.cpp    **** tADSRS   myEnvelope2;
  32:MyProj.cpp    **** 
  33:MyProj.cpp    **** // size of looping recording buffer, 5 sec
  34:MyProj.cpp    **** int bufferSize = 240000;
  35:MyProj.cpp    **** 
  36:MyProj.cpp    **** // how long is the current grain, in samples
  37:MyProj.cpp    **** int grainSize  = 8000;
  38:MyProj.cpp    **** int grainSize2 = 8000;
  39:MyProj.cpp    **** // at which sample did the last grain start?
  40:MyProj.cpp    **** int grainPosition  = 0;
  41:MyProj.cpp    **** int grainPosition2 = 0;
  42:MyProj.cpp    **** 
  43:MyProj.cpp    **** float playbackRate = 1.0; // playback rate of sampler
  44:MyProj.cpp    **** 
  45:MyProj.cpp    **** // how long, relative to each grain, is the envelope's attack/release? max is 0.5 = triangle envelo
  46:MyProj.cpp    **** float crossfadePercent = 0.0;
  47:MyProj.cpp    **** 
  48:MyProj.cpp    **** // are we currently in the release portion of the envelope?
  49:MyProj.cpp    **** bool isFading1 = 0;
  50:MyProj.cpp    **** bool isFading2 = 0;
  51:MyProj.cpp    **** 
  52:MyProj.cpp    **** float randomNumber()
  53:MyProj.cpp    **** {
 164              		.loc 13 53 1 is_stmt 1 view -0
 165              		.cfi_startproc
ARM GAS  /var/folders/ky/97y1n_614tj15gjp3pmt3wd00000gn/T//ccpV02iO.s 			page 15


 166              		@ args = 0, pretend = 0, frame = 0
 167              		@ frame_needed = 0, uses_anonymous_args = 0
 168              		@ link register save eliminated.
  54:MyProj.cpp    ****     return Random::GetFloat(0.0f, 1.0f);
 169              		.loc 13 54 5 view .LVU40
 170              		.loc 13 54 28 is_stmt 0 view .LVU41
 171 0000 F7EE000A 		vmov.f32	s1, #1.0e+0
 172 0004 9FED010A 		vldr.32	s0, .L4
 173 0008 FFF7FEBF 		b	_ZN5daisy6Random8GetFloatEff
 174              	.LVL1:
 175              	.L5:
 176              		.align	2
 177              	.L4:
 178 000c 00000000 		.word	0
 179              		.cfi_endproc
 180              	.LFE2541:
 182              		.section	.text._Z13AudioCallbackPKPKfPPfj,"ax",%progbits
 183              		.align	1
 184              		.p2align 2,,3
 185              		.global	_Z13AudioCallbackPKPKfPPfj
 186              		.syntax unified
 187              		.thumb
 188              		.thumb_func
 190              	_Z13AudioCallbackPKPKfPPfj:
 191              	.LVL2:
 192              	.LFB2542:
  55:MyProj.cpp    **** }
  56:MyProj.cpp    **** 
  57:MyProj.cpp    **** 
  58:MyProj.cpp    **** void AudioCallback(AudioHandle::InputBuffer  in,
  59:MyProj.cpp    ****                    AudioHandle::OutputBuffer out,
  60:MyProj.cpp    ****                    size_t                    size)
  61:MyProj.cpp    **** {
 193              		.loc 13 61 1 is_stmt 1 view -0
 194              		.cfi_startproc
 195              		@ args = 0, pretend = 0, frame = 16
 196              		@ frame_needed = 0, uses_anonymous_args = 0
  62:MyProj.cpp    ****     hw.ProcessAllControls();
 197              		.loc 13 62 5 view .LVU43
 198              	.LBB317:
 199              	.LBI317:
  37:../../libDaisy//src/daisy_pod.h **** 
  38:../../libDaisy//src/daisy_pod.h ****     /** Init related stuff. */
  39:../../libDaisy//src/daisy_pod.h ****     void Init(bool boost = false);
  40:../../libDaisy//src/daisy_pod.h **** 
  41:../../libDaisy//src/daisy_pod.h ****     /** Wait for a bit
  42:../../libDaisy//src/daisy_pod.h ****     \param del Time to wait in ms.
  43:../../libDaisy//src/daisy_pod.h ****     */
  44:../../libDaisy//src/daisy_pod.h ****     void DelayMs(size_t del);
  45:../../libDaisy//src/daisy_pod.h **** 
  46:../../libDaisy//src/daisy_pod.h ****     /** Starts the callback
  47:../../libDaisy//src/daisy_pod.h ****     \param cb Interleaved callback function
  48:../../libDaisy//src/daisy_pod.h ****     */
  49:../../libDaisy//src/daisy_pod.h ****     void StartAudio(AudioHandle::InterleavingAudioCallback cb);
  50:../../libDaisy//src/daisy_pod.h **** 
  51:../../libDaisy//src/daisy_pod.h ****     /** Starts the callback
  52:../../libDaisy//src/daisy_pod.h ****     \param cb multichannel callback function
ARM GAS  /var/folders/ky/97y1n_614tj15gjp3pmt3wd00000gn/T//ccpV02iO.s 			page 16


  53:../../libDaisy//src/daisy_pod.h ****     */
  54:../../libDaisy//src/daisy_pod.h ****     void StartAudio(AudioHandle::AudioCallback cb);
  55:../../libDaisy//src/daisy_pod.h **** 
  56:../../libDaisy//src/daisy_pod.h ****     /**
  57:../../libDaisy//src/daisy_pod.h ****        Switch callback functions
  58:../../libDaisy//src/daisy_pod.h ****        \param cb New interleaved callback function.
  59:../../libDaisy//src/daisy_pod.h ****     */
  60:../../libDaisy//src/daisy_pod.h ****     void ChangeAudioCallback(AudioHandle::InterleavingAudioCallback cb);
  61:../../libDaisy//src/daisy_pod.h **** 
  62:../../libDaisy//src/daisy_pod.h ****     /**
  63:../../libDaisy//src/daisy_pod.h ****        Switch callback functions
  64:../../libDaisy//src/daisy_pod.h ****        \param cb New multichannel callback function.
  65:../../libDaisy//src/daisy_pod.h ****     */
  66:../../libDaisy//src/daisy_pod.h ****     void ChangeAudioCallback(AudioHandle::AudioCallback cb);
  67:../../libDaisy//src/daisy_pod.h **** 
  68:../../libDaisy//src/daisy_pod.h ****     /** Stops the audio if it is running. */
  69:../../libDaisy//src/daisy_pod.h ****     void StopAudio();
  70:../../libDaisy//src/daisy_pod.h **** 
  71:../../libDaisy//src/daisy_pod.h ****     /** Updates the Audio Sample Rate, and reinitializes.
  72:../../libDaisy//src/daisy_pod.h ****      ** Audio must be stopped for this to work.
  73:../../libDaisy//src/daisy_pod.h ****      */
  74:../../libDaisy//src/daisy_pod.h ****     void SetAudioSampleRate(SaiHandle::Config::SampleRate samplerate);
  75:../../libDaisy//src/daisy_pod.h **** 
  76:../../libDaisy//src/daisy_pod.h ****     /** Returns the audio sample rate in Hz as a floating point number.
  77:../../libDaisy//src/daisy_pod.h ****      */
  78:../../libDaisy//src/daisy_pod.h ****     float AudioSampleRate();
  79:../../libDaisy//src/daisy_pod.h **** 
  80:../../libDaisy//src/daisy_pod.h ****     /** Sets the number of samples processed per channel by the audio callback.
  81:../../libDaisy//src/daisy_pod.h ****      */
  82:../../libDaisy//src/daisy_pod.h ****     void SetAudioBlockSize(size_t blocksize);
  83:../../libDaisy//src/daisy_pod.h **** 
  84:../../libDaisy//src/daisy_pod.h ****     /** Returns the number of samples per channel in a block of audio. */
  85:../../libDaisy//src/daisy_pod.h ****     size_t AudioBlockSize();
  86:../../libDaisy//src/daisy_pod.h **** 
  87:../../libDaisy//src/daisy_pod.h ****     /** Returns the rate in Hz that the Audio callback is called */
  88:../../libDaisy//src/daisy_pod.h ****     float AudioCallbackRate();
  89:../../libDaisy//src/daisy_pod.h **** 
  90:../../libDaisy//src/daisy_pod.h ****     /**
  91:../../libDaisy//src/daisy_pod.h ****        Start analog to digital conversion.
  92:../../libDaisy//src/daisy_pod.h ****      */
  93:../../libDaisy//src/daisy_pod.h ****     void StartAdc();
  94:../../libDaisy//src/daisy_pod.h **** 
  95:../../libDaisy//src/daisy_pod.h ****     /** Stops Transfering data from the ADC */
  96:../../libDaisy//src/daisy_pod.h ****     void StopAdc();
  97:../../libDaisy//src/daisy_pod.h **** 
  98:../../libDaisy//src/daisy_pod.h ****     /** Call at same rate as analog reads for smooth reading.*/
  99:../../libDaisy//src/daisy_pod.h ****     void ProcessAnalogControls();
 100:../../libDaisy//src/daisy_pod.h **** 
 101:../../libDaisy//src/daisy_pod.h ****     /** Process Analog and Digital Controls */
 102:../../libDaisy//src/daisy_pod.h ****     inline void ProcessAllControls()
 200              		.loc 1 102 17 view .LVU44
 201              	.LBB318:
 103:../../libDaisy//src/daisy_pod.h ****     {
 104:../../libDaisy//src/daisy_pod.h ****         ProcessAnalogControls();
 202              		.loc 1 104 9 view .LVU45
 203              	.LBE318:
 204              	.LBE317:
ARM GAS  /var/folders/ky/97y1n_614tj15gjp3pmt3wd00000gn/T//ccpV02iO.s 			page 17


  61:MyProj.cpp    ****     hw.ProcessAllControls();
 205              		.loc 13 61 1 is_stmt 0 view .LVU46
 206 0000 2DE9F04F 		push	{r4, r5, r6, r7, r8, r9, r10, fp, lr}
 207              		.cfi_def_cfa_offset 36
 208              		.cfi_offset 4, -36
 209              		.cfi_offset 5, -32
 210              		.cfi_offset 6, -28
 211              		.cfi_offset 7, -24
 212              		.cfi_offset 8, -20
 213              		.cfi_offset 9, -16
 214              		.cfi_offset 10, -12
 215              		.cfi_offset 11, -8
 216              		.cfi_offset 14, -4
 217 0004 0346     		mov	r3, r0
 218 0006 1446     		mov	r4, r2
 219              	.LBB321:
 220              	.LBB319:
 221              		.loc 1 104 30 view .LVU47
 222 0008 CD48     		ldr	r0, .L37+16
 223              	.LVL3:
 224              		.loc 1 104 30 view .LVU48
 225              	.LBE319:
 226              	.LBE321:
  61:MyProj.cpp    ****     hw.ProcessAllControls();
 227              		.loc 13 61 1 view .LVU49
 228 000a 0F46     		mov	r7, r1
 229 000c 2DED068B 		vpush.64	{d8, d9, d10}
 230              		.cfi_def_cfa_offset 60
 231              		.cfi_offset 80, -60
 232              		.cfi_offset 81, -56
 233              		.cfi_offset 82, -52
 234              		.cfi_offset 83, -48
 235              		.cfi_offset 84, -44
 236              		.cfi_offset 85, -40
 237 0010 85B0     		sub	sp, sp, #20
 238              		.cfi_def_cfa_offset 80
  61:MyProj.cpp    ****     hw.ProcessAllControls();
 239              		.loc 13 61 1 view .LVU50
 240 0012 CDE90132 		strd	r3, r2, [sp, #4]
 241              	.LBB322:
 242              	.LBB320:
 243              		.loc 1 104 30 view .LVU51
 244 0016 FFF7FEFF 		bl	_ZN5daisy8DaisyPod21ProcessAnalogControlsEv
 245              	.LVL4:
 105:../../libDaisy//src/daisy_pod.h ****         ProcessDigitalControls();
 246              		.loc 1 105 9 is_stmt 1 view .LVU52
 247              		.loc 1 105 31 is_stmt 0 view .LVU53
 248 001a C948     		ldr	r0, .L37+16
 249 001c FFF7FEFF 		bl	_ZN5daisy8DaisyPod22ProcessDigitalControlsEv
 250              	.LVL5:
 251              		.loc 1 105 31 view .LVU54
 252              	.LBE320:
 253              	.LBE322:
  63:MyProj.cpp    ****     //now here's the per sample stuff
  64:MyProj.cpp    ****     for(size_t i = 0; i < size; i++)
 254              		.loc 13 64 5 is_stmt 1 view .LVU55
 255              	.LBB323:
ARM GAS  /var/folders/ky/97y1n_614tj15gjp3pmt3wd00000gn/T//ccpV02iO.s 			page 18


 256              		.loc 13 64 25 view .LVU56
 257 0020 002C     		cmp	r4, #0
 258 0022 00F02C82 		beq	.L6
 259              		.loc 13 64 16 is_stmt 0 view .LVU57
 260 0026 0025     		movs	r5, #0
 261 0028 C54C     		ldr	r4, .L37+16
 262              	.LVL6:
 263              		.loc 13 64 16 view .LVU58
 264 002a DFF854A3 		ldr	r10, .L37+80
 265 002e B846     		mov	r8, r7
 266 0030 DFF85093 		ldr	r9, .L37+84
 267 0034 DFF850B3 		ldr	fp, .L37+88
 268 0038 9EE0     		b	.L16
 269              	.LVL7:
 270              	.L8:
 271              	.LBB324:
  65:MyProj.cpp    ****     {
  66:MyProj.cpp    ****         //get the next sample from the left channel of the input (right channel would be in[1][i])
  67:MyProj.cpp    ****         float myInputSample = in[0][i];
  68:MyProj.cpp    **** 
  69:MyProj.cpp    ****         if(int freqShift = hw.encoder.Increment())
  70:MyProj.cpp    ****         {
  71:MyProj.cpp    ****             playbackRate += 0.02 * freqShift;
  72:MyProj.cpp    ****             playbackRate = LEAF_clip(0.1, playbackRate, 4.0);
  73:MyProj.cpp    **** 
  74:MyProj.cpp    ****             tSampler_setRate(&mySampler, playbackRate);
  75:MyProj.cpp    ****             tSampler_setRate(&mySampler2, playbackRate);
  76:MyProj.cpp    ****         }
  77:MyProj.cpp    **** 
  78:MyProj.cpp    ****         crossfadePercent = hw.knob1.Value() / 2.0;
 272              		.loc 13 78 9 is_stmt 1 view .LVU59
 273              	.LBB325:
 274              	.LBI325:
  24:../../libDaisy//src/hid/ctrl.h **** 
  25:../../libDaisy//src/hid/ctrl.h ****     /** 
  26:../../libDaisy//src/hid/ctrl.h ****     Initializes the control
  27:../../libDaisy//src/hid/ctrl.h ****     \param *adcptr is a pointer to the raw adc read value -- This can be acquired with dsy_adc_get_
  28:../../libDaisy//src/hid/ctrl.h ****     \param sr is the samplerate in Hz that the Process function will be called at.
  29:../../libDaisy//src/hid/ctrl.h ****     \param flip determines whether the input is flipped (i.e. 1.f - input) or not before being proc
  30:../../libDaisy//src/hid/ctrl.h ****     \param invert determines whether the input is inverted (i.e. -1.f * input) or note before being
  31:../../libDaisy//src/hid/ctrl.h ****     \param slew_seconds is the slew time in seconds that it takes for the control to change to a ne
  32:../../libDaisy//src/hid/ctrl.h ****     */
  33:../../libDaisy//src/hid/ctrl.h ****     void Init(uint16_t *adcptr,
  34:../../libDaisy//src/hid/ctrl.h ****               float     sr,
  35:../../libDaisy//src/hid/ctrl.h ****               bool      flip         = false,
  36:../../libDaisy//src/hid/ctrl.h ****               bool      invert       = false,
  37:../../libDaisy//src/hid/ctrl.h ****               float     slew_seconds = 0.002f);
  38:../../libDaisy//src/hid/ctrl.h **** 
  39:../../libDaisy//src/hid/ctrl.h ****     /** 
  40:../../libDaisy//src/hid/ctrl.h ****     This Initializes the AnalogControl for a -5V to 5V inverted input
  41:../../libDaisy//src/hid/ctrl.h ****     All of the Init details are the same otherwise
  42:../../libDaisy//src/hid/ctrl.h ****     \param *adcptr Pointer to analog digital converter
  43:../../libDaisy//src/hid/ctrl.h ****     \param sr Audio engine sample rate
  44:../../libDaisy//src/hid/ctrl.h ****     */
  45:../../libDaisy//src/hid/ctrl.h ****     void InitBipolarCv(uint16_t *adcptr, float sr);
  46:../../libDaisy//src/hid/ctrl.h **** 
  47:../../libDaisy//src/hid/ctrl.h ****     /** 
ARM GAS  /var/folders/ky/97y1n_614tj15gjp3pmt3wd00000gn/T//ccpV02iO.s 			page 19


  48:../../libDaisy//src/hid/ctrl.h ****     Filters, and transforms a raw ADC read into a normalized range.
  49:../../libDaisy//src/hid/ctrl.h ****     this should be called at the rate of specified by samplerate at Init time.   
  50:../../libDaisy//src/hid/ctrl.h ****     Default Initializations will return 0.0 -> 1.0
  51:../../libDaisy//src/hid/ctrl.h ****     Bi-polar CV inputs will return -1.0 -> 1.0
  52:../../libDaisy//src/hid/ctrl.h ****     */
  53:../../libDaisy//src/hid/ctrl.h ****     float Process();
  54:../../libDaisy//src/hid/ctrl.h **** 
  55:../../libDaisy//src/hid/ctrl.h ****     /** Returns the current stored value, without reprocessing */
  56:../../libDaisy//src/hid/ctrl.h ****     inline float Value() const { return val_; }
 275              		.loc 6 56 18 view .LVU60
 276              	.LBB326:
 277              		.loc 6 56 34 view .LVU61
 278              		.loc 6 56 34 is_stmt 0 view .LVU62
 279              	.LBE326:
 280              	.LBE325:
  79:MyProj.cpp    **** 
  80:MyProj.cpp    ****         float newGrainSizeRaw
  81:MyProj.cpp    ****             = (hw.knob2.Value() * 0.98 + 0.02) * bufferSize * 0.5;
 281              		.loc 13 81 30 view .LVU63
 282 003a 94ED244A 		vldr.32	s8, [r4, #144]
 283              		.loc 13 81 61 view .LVU64
 284 003e B6EE003B 		vmov.f64	d3, #5.0e-1
 285              		.loc 13 81 48 view .LVU65
 286 0042 DBED006A 		vldr.32	s13, [fp]	@ int
 287 0046 F6EE002A 		vmov.f32	s5, #5.0e-1
 288              		.loc 13 81 30 view .LVU66
 289 004a B7EEC44A 		vcvt.f64.f32	d4, s8
  82:MyProj.cpp    **** 
  83:MyProj.cpp    ****         float newGrainSize = newGrainSizeRaw * playbackRate;
 290              		.loc 13 83 46 view .LVU67
 291 004e 9AED008A 		vldr.32	s16, [r10]
  81:MyProj.cpp    **** 
 292              		.loc 13 81 48 view .LVU68
 293 0052 B8EEE66B 		vcvt.f64.s32	d6, s13
  84:MyProj.cpp    ****         // clamp grain size to sample length
  85:MyProj.cpp    ****         if(newGrainSize > bufferSize)
 294              		.loc 13 85 25 view .LVU69
 295 0056 DBED005A 		vldr.32	s11, [fp]	@ int
  86:MyProj.cpp    ****             newGrainSize = bufferSize;
  87:MyProj.cpp    **** 
  88:MyProj.cpp    ****         int correction = 100 * playbackRate;
 296              		.loc 13 88 30 view .LVU70
 297 005a DFEDBA8A 		vldr.32	s17, .L37+20
  85:MyProj.cpp    ****             newGrainSize = bufferSize;
 298              		.loc 13 85 25 view .LVU71
 299 005e F8EEE55A 		vcvt.f32.s32	s11, s11
 300 0062 94ED1C5A 		vldr.32	s10, [r4, #112]
 301              		.loc 13 88 30 view .LVU72
 302 0066 68EE288A 		vmul.f32	s17, s16, s17
 303              	.LBB327:
  89:MyProj.cpp    **** 
  90:MyProj.cpp    ****         // if we have hit fade out for grain 1, play grain 2
  91:MyProj.cpp    ****         if(!isFading1
 304              		.loc 13 91 9 view .LVU73
 305 006a B74B     		ldr	r3, .L37+24
 306 006c 25EE225A 		vmul.f32	s10, s10, s5
 307 0070 1F78     		ldrb	r7, [r3]	@ zero_extendqisi2
ARM GAS  /var/folders/ky/97y1n_614tj15gjp3pmt3wd00000gn/T//ccpV02iO.s 			page 20


 308              	.LBE327:
  88:MyProj.cpp    **** 
 309              		.loc 13 88 13 view .LVU74
 310 0072 FDEEE88A 		vcvt.s32.f32	s17, s17
  78:MyProj.cpp    **** 
 311              		.loc 13 78 26 view .LVU75
 312 0076 89ED005A 		vstr.32	s10, [r9]
  80:MyProj.cpp    ****             = (hw.knob2.Value() * 0.98 + 0.02) * bufferSize * 0.5;
 313              		.loc 13 80 9 is_stmt 1 view .LVU76
 314              	.LVL8:
 315              	.LBB349:
 316              	.LBI349:
 317              		.loc 6 56 18 view .LVU77
 318              	.LBB350:
 319              		.loc 6 56 34 view .LVU78
 320              		.loc 6 56 34 is_stmt 0 view .LVU79
 321              	.LBE350:
 322              	.LBE349:
  81:MyProj.cpp    **** 
 323              		.loc 13 81 40 view .LVU80
 324 007a 9FEDAD1B 		vldr.64	d1, .L37
 325 007e 9FEDAE7B 		vldr.64	d7, .L37+8
 326 0082 A4EE017B 		vfma.f64	d7, d4, d1
 327              	.LVL9:
  83:MyProj.cpp    ****         // clamp grain size to sample length
 328              		.loc 13 83 9 is_stmt 1 view .LVU81
  81:MyProj.cpp    **** 
 329              		.loc 13 81 48 is_stmt 0 view .LVU82
 330 0086 26EE077B 		vmul.f64	d7, d6, d7
 331              	.LVL10:
  81:MyProj.cpp    **** 
 332              		.loc 13 81 61 view .LVU83
 333 008a 27EE037B 		vmul.f64	d7, d7, d3
  81:MyProj.cpp    **** 
 334              		.loc 13 81 63 view .LVU84
 335 008e B7EEC77B 		vcvt.f32.f64	s14, d7
  83:MyProj.cpp    ****         // clamp grain size to sample length
 336              		.loc 13 83 15 view .LVU85
 337 0092 27EE088A 		vmul.f32	s16, s14, s16
 338              	.LVL11:
  85:MyProj.cpp    ****             newGrainSize = bufferSize;
 339              		.loc 13 85 9 is_stmt 1 view .LVU86
  86:MyProj.cpp    **** 
 340              		.loc 13 86 26 is_stmt 0 view .LVU87
 341 0096 F4EE485A 		vcmp.f32	s11, s16
 342 009a F1EE10FA 		vmrs	APSR_nzcv, FPSCR
 343 009e 48BF     		it	mi
 344 00a0 B0EE658A 		vmovmi.f32	s16, s11
 345              	.LVL12:
  88:MyProj.cpp    **** 
 346              		.loc 13 88 9 is_stmt 1 view .LVU88
 347              		.loc 13 91 9 view .LVU89
 348              	.LBB351:
 349 00a4 C7B9     		cbnz	r7, .L11
  92:MyProj.cpp    ****            && mySampler->idx
 350              		.loc 13 92 26 is_stmt 0 view .LVU90
 351 00a6 A94B     		ldr	r3, .L37+28
ARM GAS  /var/folders/ky/97y1n_614tj15gjp3pmt3wd00000gn/T//ccpV02iO.s 			page 21


  93:MyProj.cpp    ****                   >= mySampler->end - grainSize * crossfadePercent - correction)
 352              		.loc 13 93 68 view .LVU91
 353 00a8 F8EEE87A 		vcvt.f32.s32	s15, s17
  92:MyProj.cpp    ****            && mySampler->idx
 354              		.loc 13 92 26 view .LVU92
 355 00ac 1B68     		ldr	r3, [r3]
  92:MyProj.cpp    ****            && mySampler->idx
 356              		.loc 13 92 12 view .LVU93
 357 00ae 93ED086A 		vldr.32	s12, [r3, #32]
 358              		.loc 13 93 37 view .LVU94
 359 00b2 93ED0F7A 		vldr.32	s14, [r3, #60]	@ int
 360              		.loc 13 93 49 view .LVU95
 361 00b6 A64B     		ldr	r3, .L37+32
 362              		.loc 13 93 37 view .LVU96
 363 00b8 B8EEC77A 		vcvt.f32.s32	s14, s14
 364              		.loc 13 93 49 view .LVU97
 365 00bc D3ED006A 		vldr.32	s13, [r3]	@ int
 366              	.LVL13:
 367              		.loc 13 93 49 view .LVU98
 368 00c0 F8EEE66A 		vcvt.f32.s32	s13, s13
 369              		.loc 13 93 37 view .LVU99
 370 00c4 A6EEC57A 		vfms.f32	s14, s13, s10
 371              		.loc 13 93 68 view .LVU100
 372 00c8 77EE677A 		vsub.f32	s15, s14, s15
  92:MyProj.cpp    ****            && mySampler->idx
 373              		.loc 13 92 12 view .LVU101
 374 00cc B4EEE76A 		vcmpe.f32	s12, s15
 375 00d0 F1EE10FA 		vmrs	APSR_nzcv, FPSCR
 376 00d4 80F2B580 		bge	.L34
 377              	.LVL14:
 378              	.L11:
  92:MyProj.cpp    ****            && mySampler->idx
 379              		.loc 13 92 12 view .LVU102
 380              	.LBE351:
  94:MyProj.cpp    ****         {
  95:MyProj.cpp    ****             tADSRS_off(&myEnvelope);
  96:MyProj.cpp    ****             isFading1 = true;
  97:MyProj.cpp    **** 
  98:MyProj.cpp    ****             // randomize grain position but make sure it can play all the way through
  99:MyProj.cpp    ****             grainSize2 = newGrainSize;
 100:MyProj.cpp    ****             grainPosition2
 101:MyProj.cpp    ****                 = fmodf(randomNumber(), 1.0) * (bufferSize - grainSize2);
 102:MyProj.cpp    **** 
 103:MyProj.cpp    ****             tSampler_setStart(&mySampler2, grainPosition2);
 104:MyProj.cpp    ****             tSampler_setEndUnsafe(&mySampler2, mySampler2->start + grainSize2);
 105:MyProj.cpp    **** 
 106:MyProj.cpp    ****             float crossfadeLength = (crossfadePercent * grainSize2) / 48.;
 107:MyProj.cpp    ****             tADSRS_setAttack(&myEnvelope2, crossfadeLength);
 108:MyProj.cpp    ****             tADSRS_setRelease(&myEnvelope2, crossfadeLength);
 109:MyProj.cpp    **** 
 110:MyProj.cpp    ****             tSampler_play(&mySampler2);
 111:MyProj.cpp    ****             tADSRS_on(&myEnvelope2, 1.0f);
 112:MyProj.cpp    **** 
 113:MyProj.cpp    ****             isFading2 = false;
 114:MyProj.cpp    **** 
 115:MyProj.cpp    ****             hw.led2.Set(randomNumber(), randomNumber(), randomNumber());
 116:MyProj.cpp    ****         }
ARM GAS  /var/folders/ky/97y1n_614tj15gjp3pmt3wd00000gn/T//ccpV02iO.s 			page 22


 117:MyProj.cpp    **** 
 118:MyProj.cpp    ****         // if we have hit fade out for grain 2, play grain 1
 119:MyProj.cpp    ****         if(!isFading2
 381              		.loc 13 119 9 is_stmt 1 view .LVU103
 382              	.LBB352:
 383 00d8 9E4B     		ldr	r3, .L37+36
 384 00da 1F78     		ldrb	r7, [r3]	@ zero_extendqisi2
 385 00dc D7B9     		cbnz	r7, .L13
 120:MyProj.cpp    ****            && mySampler2->idx >= mySampler2->end - grainSize2 * crossfadePercent
 386              		.loc 13 120 27 is_stmt 0 view .LVU104
 387 00de 9E4B     		ldr	r3, .L37+40
 121:MyProj.cpp    ****                                      - correction)
 388              		.loc 13 121 38 view .LVU105
 389 00e0 F8EEE87A 		vcvt.f32.s32	s15, s17
 120:MyProj.cpp    ****            && mySampler2->idx >= mySampler2->end - grainSize2 * crossfadePercent
 390              		.loc 13 120 50 view .LVU106
 391 00e4 99ED006A 		vldr.32	s12, [r9]
 120:MyProj.cpp    ****            && mySampler2->idx >= mySampler2->end - grainSize2 * crossfadePercent
 392              		.loc 13 120 27 view .LVU107
 393 00e8 1B68     		ldr	r3, [r3]
 120:MyProj.cpp    ****            && mySampler2->idx >= mySampler2->end - grainSize2 * crossfadePercent
 394              		.loc 13 120 12 view .LVU108
 395 00ea D3ED086A 		vldr.32	s13, [r3, #32]
 120:MyProj.cpp    ****            && mySampler2->idx >= mySampler2->end - grainSize2 * crossfadePercent
 396              		.loc 13 120 50 view .LVU109
 397 00ee D3ED0F8A 		vldr.32	s17, [r3, #60]	@ int
 398              	.LVL15:
 120:MyProj.cpp    ****            && mySampler2->idx >= mySampler2->end - grainSize2 * crossfadePercent
 399              		.loc 13 120 63 view .LVU110
 400 00f2 9A4B     		ldr	r3, .L37+44
 120:MyProj.cpp    ****            && mySampler2->idx >= mySampler2->end - grainSize2 * crossfadePercent
 401              		.loc 13 120 50 view .LVU111
 402 00f4 F8EEE88A 		vcvt.f32.s32	s17, s17
 120:MyProj.cpp    ****            && mySampler2->idx >= mySampler2->end - grainSize2 * crossfadePercent
 403              		.loc 13 120 63 view .LVU112
 404 00f8 93ED007A 		vldr.32	s14, [r3]	@ int
 405 00fc B8EEC77A 		vcvt.f32.s32	s14, s14
 120:MyProj.cpp    ****            && mySampler2->idx >= mySampler2->end - grainSize2 * crossfadePercent
 406              		.loc 13 120 50 view .LVU113
 407 0100 E7EE468A 		vfms.f32	s17, s14, s12
 408              		.loc 13 121 38 view .LVU114
 409 0104 78EEE78A 		vsub.f32	s17, s17, s15
 120:MyProj.cpp    ****            && mySampler2->idx >= mySampler2->end - grainSize2 * crossfadePercent
 410              		.loc 13 120 12 view .LVU115
 411 0108 F4EEE86A 		vcmpe.f32	s13, s17
 412 010c F1EE10FA 		vmrs	APSR_nzcv, FPSCR
 413 0110 80F23E81 		bge	.L35
 414              	.LVL16:
 415              	.L13:
 120:MyProj.cpp    ****            && mySampler2->idx >= mySampler2->end - grainSize2 * crossfadePercent
 416              		.loc 13 120 12 view .LVU116
 417              	.LBE352:
 122:MyProj.cpp    ****         {
 123:MyProj.cpp    ****             tADSRS_off(&myEnvelope2);
 124:MyProj.cpp    ****             isFading2 = true;
 125:MyProj.cpp    **** 
 126:MyProj.cpp    ****             // randomize grain position but make sure it can play all the way through
ARM GAS  /var/folders/ky/97y1n_614tj15gjp3pmt3wd00000gn/T//ccpV02iO.s 			page 23


 127:MyProj.cpp    ****             grainSize = newGrainSize;
 128:MyProj.cpp    ****             grainPosition
 129:MyProj.cpp    ****                 = fmodf(randomNumber(), 1.0) * (bufferSize - grainSize);
 130:MyProj.cpp    **** 
 131:MyProj.cpp    ****             tSampler_setStart(&mySampler, grainPosition);
 132:MyProj.cpp    ****             tSampler_setEndUnsafe(&mySampler, mySampler->start + grainSize);
 133:MyProj.cpp    **** 
 134:MyProj.cpp    ****             float crossfadeLength = (crossfadePercent * grainSize) / 48.;
 135:MyProj.cpp    ****             tADSRS_setAttack(&myEnvelope, crossfadeLength);
 136:MyProj.cpp    ****             tADSRS_setRelease(&myEnvelope, crossfadeLength);
 137:MyProj.cpp    **** 
 138:MyProj.cpp    ****             tSampler_play(&mySampler);
 139:MyProj.cpp    ****             tADSRS_on(&myEnvelope, 1.0f);
 140:MyProj.cpp    **** 
 141:MyProj.cpp    ****             isFading1 = false;
 142:MyProj.cpp    **** 
 143:MyProj.cpp    ****             hw.led1.Set(randomNumber(), randomNumber(), randomNumber());
 144:MyProj.cpp    ****         }
 145:MyProj.cpp    **** 
 146:MyProj.cpp    ****         // button 2 manually triggers a new grain
 147:MyProj.cpp    ****         if(hw.button2.RisingEdge())
 418              		.loc 13 147 9 is_stmt 1 view .LVU117
 419              	.LBB374:
 420              	.LBB375:
 421              	.LBI375:
  43:../../libDaisy//src/hid/switch.h **** 
  44:../../libDaisy//src/hid/switch.h ****     /** 
  45:../../libDaisy//src/hid/switch.h ****     Initializes the switch object with a given port/pin combo.
  46:../../libDaisy//src/hid/switch.h ****     \param pin port/pin object to tell the switch which hardware pin to use.
  47:../../libDaisy//src/hid/switch.h ****     \param update_rate Does nothing. Backwards compatibility until next breaking update.
  48:../../libDaisy//src/hid/switch.h ****     \param t switch type -- Default: TYPE_MOMENTARY
  49:../../libDaisy//src/hid/switch.h ****     \param pol switch polarity -- Default: POLARITY_INVERTED
  50:../../libDaisy//src/hid/switch.h ****     \param pu switch pull up/down -- Default: PULL_UP
  51:../../libDaisy//src/hid/switch.h ****     */
  52:../../libDaisy//src/hid/switch.h ****     void
  53:../../libDaisy//src/hid/switch.h ****     Init(dsy_gpio_pin pin, float update_rate, Type t, Polarity pol, Pull pu);
  54:../../libDaisy//src/hid/switch.h **** 
  55:../../libDaisy//src/hid/switch.h ****     /**
  56:../../libDaisy//src/hid/switch.h ****        Simplified Init.
  57:../../libDaisy//src/hid/switch.h ****        \param pin port/pin object to tell the switch which hardware pin to use.
  58:../../libDaisy//src/hid/switch.h ****        \param update_rate Left for backwards compatibility until next breaking change.
  59:../../libDaisy//src/hid/switch.h ****     */
  60:../../libDaisy//src/hid/switch.h ****     void Init(dsy_gpio_pin pin, float update_rate = 0.f);
  61:../../libDaisy//src/hid/switch.h **** 
  62:../../libDaisy//src/hid/switch.h ****     /** 
  63:../../libDaisy//src/hid/switch.h ****     Called at update_rate to debounce and handle timing for the switch.
  64:../../libDaisy//src/hid/switch.h ****     In order for events not to be missed, its important that the Edge/Pressed checks
  65:../../libDaisy//src/hid/switch.h ****     be made at the same rate as the debounce function is being called.
  66:../../libDaisy//src/hid/switch.h ****     */
  67:../../libDaisy//src/hid/switch.h ****     void Debounce();
  68:../../libDaisy//src/hid/switch.h **** 
  69:../../libDaisy//src/hid/switch.h ****     /** \return true if a button was just pressed. */
  70:../../libDaisy//src/hid/switch.h ****     inline bool RisingEdge() const { return updated_ ? state_ == 0x7f : false; }
 422              		.loc 5 70 17 view .LVU118
 423              	.LBB376:
 424              		.loc 5 70 38 view .LVU119
 425              		.loc 5 70 54 is_stmt 0 view .LVU120
ARM GAS  /var/folders/ky/97y1n_614tj15gjp3pmt3wd00000gn/T//ccpV02iO.s 			page 24


 426 0114 94F8C030 		ldrb	r3, [r4, #192]	@ zero_extendqisi2
 427 0118 1BB1     		cbz	r3, .L15
 428              	.LVL17:
 429              		.loc 5 70 54 view .LVU121
 430              	.LBE376:
 431              	.LBE375:
 432              		.loc 13 147 9 view .LVU122
 433 011a 94F8C630 		ldrb	r3, [r4, #198]	@ zero_extendqisi2
 434 011e 7F2B     		cmp	r3, #127
 435 0120 5BD0     		beq	.L36
 436              	.L15:
 437              	.LBE374:
 148:MyProj.cpp    ****         {
 149:MyProj.cpp    ****             tSampler_setStart(&mySampler, 0);
 150:MyProj.cpp    ****             tSampler_setLength(&mySampler, grainSize);
 151:MyProj.cpp    **** 
 152:MyProj.cpp    ****             float crossfadeLength = (crossfadePercent * grainSize) / 48.;
 153:MyProj.cpp    **** 
 154:MyProj.cpp    ****             tADSRS_setAttack(&myEnvelope, crossfadeLength);
 155:MyProj.cpp    ****             tADSRS_setRelease(&myEnvelope, crossfadeLength);
 156:MyProj.cpp    ****             tSampler_play(&mySampler);
 157:MyProj.cpp    ****             tADSRS_on(&myEnvelope, 1.0f);
 158:MyProj.cpp    ****             hw.led1.Set(1.0, 0, 0);
 159:MyProj.cpp    ****             isFading1 = false;
 160:MyProj.cpp    ****         }
 161:MyProj.cpp    **** 
 162:MyProj.cpp    ****         hw.UpdateLeds();
 438              		.loc 13 162 9 is_stmt 1 discriminator 2 view .LVU123
 439              		.loc 13 162 22 is_stmt 0 discriminator 2 view .LVU124
 440 0122 8748     		ldr	r0, .L37+16
 441              	.LBE324:
  64:MyProj.cpp    ****     {
 442              		.loc 13 64 5 discriminator 2 view .LVU125
 443 0124 0135     		adds	r5, r5, #1
 444              	.LVL18:
 445              	.LBB387:
 446              		.loc 13 162 22 discriminator 2 view .LVU126
 447 0126 FFF7FEFF 		bl	_ZN5daisy8DaisyPod10UpdateLedsEv
 448              	.LVL19:
 163:MyProj.cpp    **** 
 164:MyProj.cpp    ****         //now tick the buffer with the input coming in so the buffer gets filled
 165:MyProj.cpp    ****         tBuffer_tick(&myBuffer, myInputSample);
 449              		.loc 13 165 9 is_stmt 1 discriminator 2 view .LVU127
 450              		.loc 13 165 21 is_stmt 0 discriminator 2 view .LVU128
 451 012a B0EE490A 		vmov.f32	s0, s18
 452 012e 8C48     		ldr	r0, .L37+48
 453 0130 FFF7FEFF 		bl	tBuffer_tick
 454              	.LVL20:
 166:MyProj.cpp    **** 
 167:MyProj.cpp    ****         //then tick the sampler so it reads the buffer and sets mySample to the output value
 168:MyProj.cpp    ****         float mySample1 = tSampler_tick(&mySampler) * tADSRS_tick(&myEnvelope);
 455              		.loc 13 168 9 is_stmt 1 discriminator 2 view .LVU129
 456              		.loc 13 168 40 is_stmt 0 discriminator 2 view .LVU130
 457 0134 8548     		ldr	r0, .L37+28
 458 0136 FFF7FEFF 		bl	tSampler_tick
 459              	.LVL21:
 460 013a F0EE408A 		vmov.f32	s17, s0
ARM GAS  /var/folders/ky/97y1n_614tj15gjp3pmt3wd00000gn/T//ccpV02iO.s 			page 25


 461              		.loc 13 168 66 discriminator 2 view .LVU131
 462 013e 8948     		ldr	r0, .L37+52
 463 0140 FFF7FEFF 		bl	tADSRS_tick
 464              	.LVL22:
 169:MyProj.cpp    ****         float mySample2
 170:MyProj.cpp    ****             = tSampler_tick(&mySampler2) * tADSRS_tick(&myEnvelope2);
 465              		.loc 13 170 28 discriminator 2 view .LVU132
 466 0144 8448     		ldr	r0, .L37+40
 168:MyProj.cpp    ****         float mySample2
 467              		.loc 13 168 78 discriminator 2 view .LVU133
 468 0146 68EE808A 		vmul.f32	s17, s17, s0
 469              	.LVL23:
 169:MyProj.cpp    ****         float mySample2
 470              		.loc 13 169 9 is_stmt 1 discriminator 2 view .LVU134
 471              		.loc 13 170 28 is_stmt 0 discriminator 2 view .LVU135
 472 014a FFF7FEFF 		bl	tSampler_tick
 473              	.LVL24:
 474              		.loc 13 170 55 discriminator 2 view .LVU136
 475 014e 8648     		ldr	r0, .L37+56
 476              		.loc 13 170 28 discriminator 2 view .LVU137
 477 0150 B0EE408A 		vmov.f32	s16, s0
 478              		.loc 13 170 55 discriminator 2 view .LVU138
 479 0154 FFF7FEFF 		bl	tADSRS_tick
 480              	.LVL25:
 171:MyProj.cpp    **** 
 172:MyProj.cpp    ****         //now set the audio outputs (left is [0] and right is [1] to be whatever value has been com
 173:MyProj.cpp    ****         out[0][i] = mySample1;
 481              		.loc 13 173 9 is_stmt 1 discriminator 2 view .LVU139
 482              		.loc 13 173 19 is_stmt 0 discriminator 2 view .LVU140
 483 0158 D8F80030 		ldr	r3, [r8]
 484 015c 3344     		add	r3, r3, r6
 170:MyProj.cpp    **** 
 485              		.loc 13 170 68 discriminator 2 view .LVU141
 486 015e 28EE008A 		vmul.f32	s16, s16, s0
 487              	.LVL26:
 488              		.loc 13 173 19 discriminator 2 view .LVU142
 489 0162 C3ED008A 		vstr.32	s17, [r3]
 174:MyProj.cpp    ****         out[1][i] = mySample2;
 490              		.loc 13 174 9 is_stmt 1 discriminator 2 view .LVU143
 491              		.loc 13 174 19 is_stmt 0 discriminator 2 view .LVU144
 492 0166 D8F80430 		ldr	r3, [r8, #4]
 493 016a 3344     		add	r3, r3, r6
 494 016c 83ED008A 		vstr.32	s16, [r3]
 495              	.LBE387:
  64:MyProj.cpp    ****     {
 496              		.loc 13 64 5 is_stmt 1 discriminator 2 view .LVU145
 497              	.LVL27:
  64:MyProj.cpp    ****     {
 498              		.loc 13 64 25 discriminator 2 view .LVU146
 499 0170 029B     		ldr	r3, [sp, #8]
 500 0172 AB42     		cmp	r3, r5
 501 0174 00F08381 		beq	.L6
 502              	.LVL28:
 503              	.L16:
 504              	.LBB388:
  67:MyProj.cpp    **** 
 505              		.loc 13 67 9 view .LVU147
ARM GAS  /var/folders/ky/97y1n_614tj15gjp3pmt3wd00000gn/T//ccpV02iO.s 			page 26


  67:MyProj.cpp    **** 
 506              		.loc 13 67 15 is_stmt 0 view .LVU148
 507 0178 019B     		ldr	r3, [sp, #4]
 508 017a AE00     		lsls	r6, r5, #2
 509              	.LBB378:
 510              	.LBB379:
 511              	.LBB380:
  22:../../libDaisy//src/hid/encoder.h **** 
  23:../../libDaisy//src/hid/encoder.h ****     /** Initializes the encoder with the specified hardware pins.
  24:../../libDaisy//src/hid/encoder.h ****      * Update rate is to be deprecated in a future release
  25:../../libDaisy//src/hid/encoder.h ****      */
  26:../../libDaisy//src/hid/encoder.h ****     void Init(dsy_gpio_pin a,
  27:../../libDaisy//src/hid/encoder.h ****               dsy_gpio_pin b,
  28:../../libDaisy//src/hid/encoder.h ****               dsy_gpio_pin click,
  29:../../libDaisy//src/hid/encoder.h ****               float        update_rate = 0.f);
  30:../../libDaisy//src/hid/encoder.h ****     /** Called at update_rate to debounce and handle timing for the switch.
  31:../../libDaisy//src/hid/encoder.h ****      * In order for events not to be missed, its important that the Edge/Pressed checks be made at 
  32:../../libDaisy//src/hid/encoder.h ****      */
  33:../../libDaisy//src/hid/encoder.h ****     void Debounce();
  34:../../libDaisy//src/hid/encoder.h **** 
  35:../../libDaisy//src/hid/encoder.h ****     /** Returns +1 if the encoder was turned clockwise, -1 if it was turned counter-clockwise, or 0
  36:../../libDaisy//src/hid/encoder.h ****     inline int32_t Increment() const { return updated_ ? inc_ : 0; }
 512              		.loc 7 36 56 view .LVU149
 513 017c 94F84020 		ldrb	r2, [r4, #64]	@ zero_extendqisi2
 514              	.LBE380:
 515              	.LBE379:
 516              	.LBE378:
  67:MyProj.cpp    **** 
 517              		.loc 13 67 15 view .LVU150
 518 0180 1B68     		ldr	r3, [r3]
 519 0182 03EB8503 		add	r3, r3, r5, lsl #2
 520 0186 93ED009A 		vldr.32	s18, [r3]
 521              	.LVL29:
  69:MyProj.cpp    ****         {
 522              		.loc 13 69 9 is_stmt 1 view .LVU151
 523              	.LBB383:
 524              	.LBB382:
 525              	.LBI379:
 526              		.loc 7 36 20 view .LVU152
 527              	.LBB381:
 528              		.loc 7 36 40 view .LVU153
 529              		.loc 7 36 56 is_stmt 0 view .LVU154
 530 018a 002A     		cmp	r2, #0
 531 018c 3FF455AF 		beq	.L8
 532 0190 236E     		ldr	r3, [r4, #96]
 533              	.LVL30:
 534              		.loc 7 36 56 view .LVU155
 535              	.LBE381:
 536              	.LBE382:
  69:MyProj.cpp    ****         {
 537              		.loc 13 69 9 view .LVU156
 538 0192 002B     		cmp	r3, #0
 539 0194 3FF451AF 		beq	.L8
  71:MyProj.cpp    ****             playbackRate = LEAF_clip(0.1, playbackRate, 4.0);
 540              		.loc 13 71 13 is_stmt 1 view .LVU157
  71:MyProj.cpp    ****             playbackRate = LEAF_clip(0.1, playbackRate, 4.0);
 541              		.loc 13 71 34 is_stmt 0 view .LVU158
ARM GAS  /var/folders/ky/97y1n_614tj15gjp3pmt3wd00000gn/T//ccpV02iO.s 			page 27


 542 0198 07EE903A 		vmov	s15, r3	@ int
  71:MyProj.cpp    ****             playbackRate = LEAF_clip(0.1, playbackRate, 4.0);
 543              		.loc 13 71 26 view .LVU159
 544 019c 9AED006A 		vldr.32	s12, [r10]
  72:MyProj.cpp    **** 
 545              		.loc 13 72 37 view .LVU160
 546 01a0 B1EE001A 		vmov.f32	s2, #4.0e+0
 547 01a4 9FED710A 		vldr.32	s0, .L37+60
  71:MyProj.cpp    ****             playbackRate = LEAF_clip(0.1, playbackRate, 4.0);
 548              		.loc 13 71 34 view .LVU161
 549 01a8 B8EEE77B 		vcvt.f64.s32	d7, s15
  71:MyProj.cpp    ****             playbackRate = LEAF_clip(0.1, playbackRate, 4.0);
 550              		.loc 13 71 26 view .LVU162
 551 01ac B7EEC66A 		vcvt.f64.f32	d6, s12
 552 01b0 9FED615B 		vldr.64	d5, .L37+8
 553 01b4 A7EE056B 		vfma.f64	d6, d7, d5
 554 01b8 F7EEC60B 		vcvt.f32.f64	s1, d6
 555 01bc CAED000A 		vstr.32	s1, [r10]
  72:MyProj.cpp    **** 
 556              		.loc 13 72 13 is_stmt 1 view .LVU163
  72:MyProj.cpp    **** 
 557              		.loc 13 72 37 is_stmt 0 view .LVU164
 558 01c0 FFF7FEFF 		bl	LEAF_clip
 559              	.LVL31:
  74:MyProj.cpp    ****             tSampler_setRate(&mySampler2, playbackRate);
 560              		.loc 13 74 29 view .LVU165
 561 01c4 6148     		ldr	r0, .L37+28
  72:MyProj.cpp    **** 
 562              		.loc 13 72 26 view .LVU166
 563 01c6 8AED000A 		vstr.32	s0, [r10]
  74:MyProj.cpp    ****             tSampler_setRate(&mySampler2, playbackRate);
 564              		.loc 13 74 13 is_stmt 1 view .LVU167
  74:MyProj.cpp    ****             tSampler_setRate(&mySampler2, playbackRate);
 565              		.loc 13 74 29 is_stmt 0 view .LVU168
 566 01ca FFF7FEFF 		bl	tSampler_setRate
 567              	.LVL32:
  75:MyProj.cpp    ****         }
 568              		.loc 13 75 13 is_stmt 1 view .LVU169
  75:MyProj.cpp    ****         }
 569              		.loc 13 75 29 is_stmt 0 view .LVU170
 570 01ce 9AED000A 		vldr.32	s0, [r10]
 571 01d2 6148     		ldr	r0, .L37+40
 572 01d4 FFF7FEFF 		bl	tSampler_setRate
 573              	.LVL33:
 574 01d8 2FE7     		b	.L8
 575              	.L36:
  75:MyProj.cpp    ****         }
 576              		.loc 13 75 29 view .LVU171
 577              	.LBE383:
 578              	.LBB384:
 579              	.LBB377:
 149:MyProj.cpp    ****             tSampler_setLength(&mySampler, grainSize);
 580              		.loc 13 149 13 is_stmt 1 view .LVU172
 150:MyProj.cpp    **** 
 581              		.loc 13 150 31 is_stmt 0 view .LVU173
 582 01da 5D4F     		ldr	r7, .L37+32
 149:MyProj.cpp    ****             tSampler_setLength(&mySampler, grainSize);
ARM GAS  /var/folders/ky/97y1n_614tj15gjp3pmt3wd00000gn/T//ccpV02iO.s 			page 28


 583              		.loc 13 149 30 view .LVU174
 584 01dc 0021     		movs	r1, #0
 585 01de 5B48     		ldr	r0, .L37+28
 586 01e0 FFF7FEFF 		bl	tSampler_setStart
 587              	.LVL34:
 150:MyProj.cpp    **** 
 588              		.loc 13 150 13 is_stmt 1 view .LVU175
 150:MyProj.cpp    **** 
 589              		.loc 13 150 31 is_stmt 0 view .LVU176
 590 01e4 3968     		ldr	r1, [r7]
 591 01e6 5948     		ldr	r0, .L37+28
 592 01e8 FFF7FEFF 		bl	tSampler_setLength
 593              	.LVL35:
 152:MyProj.cpp    **** 
 594              		.loc 13 152 13 is_stmt 1 view .LVU177
 152:MyProj.cpp    **** 
 595              		.loc 13 152 55 is_stmt 0 view .LVU178
 596 01ec D7ED007A 		vldr.32	s15, [r7]	@ int
 597 01f0 D9ED006A 		vldr.32	s13, [r9]
 598 01f4 F8EEE77A 		vcvt.f32.s32	s15, s15
 152:MyProj.cpp    **** 
 599              		.loc 13 152 19 view .LVU179
 600 01f8 9FED5D7A 		vldr.32	s14, .L37+64
 154:MyProj.cpp    ****             tADSRS_setRelease(&myEnvelope, crossfadeLength);
 601              		.loc 13 154 29 view .LVU180
 602 01fc 5948     		ldr	r0, .L37+52
 152:MyProj.cpp    **** 
 603              		.loc 13 152 55 view .LVU181
 604 01fe 67EEA67A 		vmul.f32	s15, s15, s13
 152:MyProj.cpp    **** 
 605              		.loc 13 152 19 view .LVU182
 606 0202 87EE870A 		vdiv.f32	s0, s15, s14
 607              	.LVL36:
 154:MyProj.cpp    ****             tADSRS_setRelease(&myEnvelope, crossfadeLength);
 608              		.loc 13 154 13 is_stmt 1 view .LVU183
 154:MyProj.cpp    ****             tADSRS_setRelease(&myEnvelope, crossfadeLength);
 609              		.loc 13 154 29 is_stmt 0 view .LVU184
 610 0206 8DED030A 		vstr.32	s0, [sp, #12]	@ int
 611 020a FFF7FEFF 		bl	tADSRS_setAttack
 612              	.LVL37:
 155:MyProj.cpp    ****             tSampler_play(&mySampler);
 613              		.loc 13 155 13 is_stmt 1 view .LVU185
 155:MyProj.cpp    ****             tSampler_play(&mySampler);
 614              		.loc 13 155 30 is_stmt 0 view .LVU186
 615 020e 9DED030A 		vldr.32	s0, [sp, #12]	@ int
 616 0212 5448     		ldr	r0, .L37+52
 617 0214 FFF7FEFF 		bl	tADSRS_setRelease
 618              	.LVL38:
 156:MyProj.cpp    ****             tADSRS_on(&myEnvelope, 1.0f);
 619              		.loc 13 156 13 is_stmt 1 view .LVU187
 156:MyProj.cpp    ****             tADSRS_on(&myEnvelope, 1.0f);
 620              		.loc 13 156 26 is_stmt 0 view .LVU188
 621 0218 4C48     		ldr	r0, .L37+28
 622 021a FFF7FEFF 		bl	tSampler_play
 623              	.LVL39:
 157:MyProj.cpp    ****             hw.led1.Set(1.0, 0, 0);
 624              		.loc 13 157 13 is_stmt 1 view .LVU189
ARM GAS  /var/folders/ky/97y1n_614tj15gjp3pmt3wd00000gn/T//ccpV02iO.s 			page 29


 157:MyProj.cpp    ****             hw.led1.Set(1.0, 0, 0);
 625              		.loc 13 157 22 is_stmt 0 view .LVU190
 626 021e B7EE000A 		vmov.f32	s0, #1.0e+0
 627 0222 5048     		ldr	r0, .L37+52
 628 0224 FFF7FEFF 		bl	tADSRS_on
 629              	.LVL40:
 158:MyProj.cpp    ****             isFading1 = false;
 630              		.loc 13 158 13 is_stmt 1 view .LVU191
 158:MyProj.cpp    ****             isFading1 = false;
 631              		.loc 13 158 24 is_stmt 0 view .LVU192
 632 0228 9FED521A 		vldr.32	s2, .L37+68
 633 022c B7EE000A 		vmov.f32	s0, #1.0e+0
 634 0230 5148     		ldr	r0, .L37+72
 635 0232 F0EE410A 		vmov.f32	s1, s2
 636 0236 FFF7FEFF 		bl	_ZN5daisy6RgbLed3SetEfff
 637              	.LVL41:
 159:MyProj.cpp    ****         }
 638              		.loc 13 159 13 is_stmt 1 view .LVU193
 159:MyProj.cpp    ****         }
 639              		.loc 13 159 23 is_stmt 0 view .LVU194
 640 023a 0023     		movs	r3, #0
 641 023c 424A     		ldr	r2, .L37+24
 642 023e 1370     		strb	r3, [r2]
 643              	.LBE377:
 644 0240 6FE7     		b	.L15
 645              	.LVL42:
 646              	.L34:
 159:MyProj.cpp    ****         }
 647              		.loc 13 159 23 view .LVU195
 648              	.LBE384:
 649              	.LBB385:
 650              	.LBB328:
  95:MyProj.cpp    ****             isFading1 = true;
 651              		.loc 13 95 13 is_stmt 1 view .LVU196
  95:MyProj.cpp    ****             isFading1 = true;
 652              		.loc 13 95 23 is_stmt 0 view .LVU197
 653 0242 4848     		ldr	r0, .L37+52
 654 0244 FFF7FEFF 		bl	tADSRS_off
 655              	.LVL43:
  96:MyProj.cpp    **** 
 656              		.loc 13 96 13 is_stmt 1 view .LVU198
  99:MyProj.cpp    ****             grainPosition2
 657              		.loc 13 99 24 is_stmt 0 view .LVU199
 658 0248 FDEEC87A 		vcvt.s32.f32	s15, s16
 659 024c 434A     		ldr	r2, .L37+44
  96:MyProj.cpp    **** 
 660              		.loc 13 96 23 view .LVU200
 661 024e 0123     		movs	r3, #1
 662              	.LBB329:
 663              	.LBB330:
  54:MyProj.cpp    **** }
 664              		.loc 13 54 28 view .LVU201
 665 0250 F7EE000A 		vmov.f32	s1, #1.0e+0
 666 0254 9FED470A 		vldr.32	s0, .L37+68
 667              	.LBE330:
 668              	.LBE329:
  99:MyProj.cpp    ****             grainPosition2
ARM GAS  /var/folders/ky/97y1n_614tj15gjp3pmt3wd00000gn/T//ccpV02iO.s 			page 30


 669              		.loc 13 99 24 view .LVU202
 670 0258 C2ED007A 		vstr.32	s15, [r2]	@ int
  96:MyProj.cpp    **** 
 671              		.loc 13 96 23 view .LVU203
 672 025c 3A4A     		ldr	r2, .L37+24
 673 025e 1370     		strb	r3, [r2]
  99:MyProj.cpp    ****             grainPosition2
 674              		.loc 13 99 13 is_stmt 1 view .LVU204
 100:MyProj.cpp    ****                 = fmodf(randomNumber(), 1.0) * (bufferSize - grainSize2);
 675              		.loc 13 100 13 view .LVU205
 676              	.LBB332:
 677              	.LBI329:
  52:MyProj.cpp    **** {
 678              		.loc 13 52 7 view .LVU206
 679              	.LBB331:
  54:MyProj.cpp    **** }
 680              		.loc 13 54 5 view .LVU207
  54:MyProj.cpp    **** }
 681              		.loc 13 54 28 is_stmt 0 view .LVU208
 682 0260 FFF7FEFF 		bl	_ZN5daisy6Random8GetFloatEff
 683              	.LVL44:
 684              	.LBE331:
 685              	.LBE332:
 101:MyProj.cpp    **** 
 686              		.loc 13 101 24 view .LVU209
 687 0264 F7EE000A 		vmov.f32	s1, #1.0e+0
 688 0268 FFF7FEFF 		bl	fmodf
 689              	.LVL45:
 101:MyProj.cpp    **** 
 690              		.loc 13 101 60 view .LVU210
 691 026c 3B4A     		ldr	r2, .L37+44
 692 026e DBF80030 		ldr	r3, [fp]
 693 0272 1168     		ldr	r1, [r2]
 101:MyProj.cpp    **** 
 694              		.loc 13 101 17 view .LVU211
 695 0274 DFF814C1 		ldr	ip, .L37+92
 101:MyProj.cpp    **** 
 696              		.loc 13 101 60 view .LVU212
 697 0278 5B1A     		subs	r3, r3, r1
 101:MyProj.cpp    **** 
 698              		.loc 13 101 46 view .LVU213
 699 027a 07EE903A 		vmov	s15, r3	@ int
 103:MyProj.cpp    ****             tSampler_setEndUnsafe(&mySampler2, mySampler2->start + grainSize2);
 700              		.loc 13 103 30 view .LVU214
 701 027e 364B     		ldr	r3, .L37+40
 101:MyProj.cpp    **** 
 702              		.loc 13 101 46 view .LVU215
 703 0280 F8EEE77A 		vcvt.f32.s32	s15, s15
 103:MyProj.cpp    ****             tSampler_setEndUnsafe(&mySampler2, mySampler2->start + grainSize2);
 704              		.loc 13 103 30 view .LVU216
 705 0284 1846     		mov	r0, r3
 101:MyProj.cpp    **** 
 706              		.loc 13 101 46 view .LVU217
 707 0286 27EE800A 		vmul.f32	s0, s15, s0
 101:MyProj.cpp    **** 
 708              		.loc 13 101 17 view .LVU218
 709 028a FDEEC07A 		vcvt.s32.f32	s15, s0
ARM GAS  /var/folders/ky/97y1n_614tj15gjp3pmt3wd00000gn/T//ccpV02iO.s 			page 31


 710 028e 17EE901A 		vmov	r1, s15	@ int
 711 0292 CCED007A 		vstr.32	s15, [ip]	@ int
 103:MyProj.cpp    ****             tSampler_setEndUnsafe(&mySampler2, mySampler2->start + grainSize2);
 712              		.loc 13 103 13 is_stmt 1 view .LVU219
 103:MyProj.cpp    ****             tSampler_setEndUnsafe(&mySampler2, mySampler2->start + grainSize2);
 713              		.loc 13 103 30 is_stmt 0 view .LVU220
 714 0296 FFF7FEFF 		bl	tSampler_setStart
 715              	.LVL46:
 104:MyProj.cpp    **** 
 716              		.loc 13 104 13 is_stmt 1 view .LVU221
 104:MyProj.cpp    **** 
 717              		.loc 13 104 60 is_stmt 0 view .LVU222
 718 029a 2F4B     		ldr	r3, .L37+40
 104:MyProj.cpp    **** 
 719              		.loc 13 104 34 view .LVU223
 720 029c 2F4A     		ldr	r2, .L37+44
 104:MyProj.cpp    **** 
 721              		.loc 13 104 60 view .LVU224
 722 029e 1968     		ldr	r1, [r3]
 104:MyProj.cpp    **** 
 723              		.loc 13 104 34 view .LVU225
 724 02a0 486B     		ldr	r0, [r1, #52]
 725 02a2 1168     		ldr	r1, [r2]
 726 02a4 0144     		add	r1, r1, r0
 727 02a6 1846     		mov	r0, r3
 728 02a8 FFF7FEFF 		bl	tSampler_setEndUnsafe
 729              	.LVL47:
 106:MyProj.cpp    ****             tADSRS_setAttack(&myEnvelope2, crossfadeLength);
 730              		.loc 13 106 13 is_stmt 1 view .LVU226
 106:MyProj.cpp    ****             tADSRS_setAttack(&myEnvelope2, crossfadeLength);
 731              		.loc 13 106 55 is_stmt 0 view .LVU227
 732 02ac 2B4A     		ldr	r2, .L37+44
 733 02ae D9ED006A 		vldr.32	s13, [r9]
 734 02b2 D2ED007A 		vldr.32	s15, [r2]	@ int
 106:MyProj.cpp    ****             tADSRS_setAttack(&myEnvelope2, crossfadeLength);
 735              		.loc 13 106 19 view .LVU228
 736 02b6 9FED2E7A 		vldr.32	s14, .L37+64
 106:MyProj.cpp    ****             tADSRS_setAttack(&myEnvelope2, crossfadeLength);
 737              		.loc 13 106 55 view .LVU229
 738 02ba F8EEE77A 		vcvt.f32.s32	s15, s15
 107:MyProj.cpp    ****             tADSRS_setRelease(&myEnvelope2, crossfadeLength);
 739              		.loc 13 107 29 view .LVU230
 740 02be 2A48     		ldr	r0, .L37+56
 106:MyProj.cpp    ****             tADSRS_setAttack(&myEnvelope2, crossfadeLength);
 741              		.loc 13 106 55 view .LVU231
 742 02c0 67EEA67A 		vmul.f32	s15, s15, s13
 106:MyProj.cpp    ****             tADSRS_setAttack(&myEnvelope2, crossfadeLength);
 743              		.loc 13 106 19 view .LVU232
 744 02c4 87EE870A 		vdiv.f32	s0, s15, s14
 745              	.LVL48:
 107:MyProj.cpp    ****             tADSRS_setRelease(&myEnvelope2, crossfadeLength);
 746              		.loc 13 107 13 is_stmt 1 view .LVU233
 107:MyProj.cpp    ****             tADSRS_setRelease(&myEnvelope2, crossfadeLength);
 747              		.loc 13 107 29 is_stmt 0 view .LVU234
 748 02c8 8DED030A 		vstr.32	s0, [sp, #12]	@ int
 749 02cc FFF7FEFF 		bl	tADSRS_setAttack
 750              	.LVL49:
ARM GAS  /var/folders/ky/97y1n_614tj15gjp3pmt3wd00000gn/T//ccpV02iO.s 			page 32


 108:MyProj.cpp    **** 
 751              		.loc 13 108 13 is_stmt 1 view .LVU235
 108:MyProj.cpp    **** 
 752              		.loc 13 108 30 is_stmt 0 view .LVU236
 753 02d0 9DED030A 		vldr.32	s0, [sp, #12]	@ int
 754 02d4 2448     		ldr	r0, .L37+56
 755 02d6 FFF7FEFF 		bl	tADSRS_setRelease
 756              	.LVL50:
 110:MyProj.cpp    ****             tADSRS_on(&myEnvelope2, 1.0f);
 757              		.loc 13 110 13 is_stmt 1 view .LVU237
 110:MyProj.cpp    ****             tADSRS_on(&myEnvelope2, 1.0f);
 758              		.loc 13 110 26 is_stmt 0 view .LVU238
 759 02da 1F4B     		ldr	r3, .L37+40
 760 02dc 1846     		mov	r0, r3
 761 02de FFF7FEFF 		bl	tSampler_play
 762              	.LVL51:
 111:MyProj.cpp    **** 
 763              		.loc 13 111 13 is_stmt 1 view .LVU239
 111:MyProj.cpp    **** 
 764              		.loc 13 111 22 is_stmt 0 view .LVU240
 765 02e2 2148     		ldr	r0, .L37+56
 766 02e4 B7EE000A 		vmov.f32	s0, #1.0e+0
 767 02e8 FFF7FEFF 		bl	tADSRS_on
 768              	.LVL52:
 113:MyProj.cpp    **** 
 769              		.loc 13 113 13 is_stmt 1 view .LVU241
 113:MyProj.cpp    **** 
 770              		.loc 13 113 23 is_stmt 0 view .LVU242
 771 02ec 194B     		ldr	r3, .L37+36
 772              	.LBB333:
 773              	.LBB334:
  54:MyProj.cpp    **** }
 774              		.loc 13 54 28 view .LVU243
 775 02ee F7EE000A 		vmov.f32	s1, #1.0e+0
 776 02f2 9FED200A 		vldr.32	s0, .L37+68
 777              	.LBE334:
 778              	.LBE333:
 113:MyProj.cpp    **** 
 779              		.loc 13 113 23 view .LVU244
 780 02f6 1F70     		strb	r7, [r3]
 115:MyProj.cpp    ****         }
 781              		.loc 13 115 13 is_stmt 1 view .LVU245
 782              	.LBB337:
 783              	.LBI333:
  52:MyProj.cpp    **** {
 784              		.loc 13 52 7 view .LVU246
 785              	.LBB335:
  54:MyProj.cpp    **** }
 786              		.loc 13 54 5 view .LVU247
  54:MyProj.cpp    **** }
 787              		.loc 13 54 28 is_stmt 0 view .LVU248
 788 02f8 FFF7FEFF 		bl	_ZN5daisy6Random8GetFloatEff
 789              	.LVL53:
 790              	.LBE335:
 791              	.LBE337:
 792              	.LBB338:
 793              	.LBB339:
ARM GAS  /var/folders/ky/97y1n_614tj15gjp3pmt3wd00000gn/T//ccpV02iO.s 			page 33


 794 02fc F7EE000A 		vmov.f32	s1, #1.0e+0
 795              	.LBE339:
 796              	.LBE338:
 797              	.LBB342:
 798              	.LBB336:
 799 0300 F0EE409A 		vmov.f32	s19, s0
 800              	.LBE336:
 801              	.LBE342:
 802              	.LBB343:
 803              	.LBB340:
 804 0304 9FED1B0A 		vldr.32	s0, .L37+68
 805              	.LBE340:
 806              	.LBI338:
  52:MyProj.cpp    **** {
 807              		.loc 13 52 7 is_stmt 1 view .LVU249
 808              	.LBB341:
  54:MyProj.cpp    **** }
 809              		.loc 13 54 5 view .LVU250
  54:MyProj.cpp    **** }
 810              		.loc 13 54 28 is_stmt 0 view .LVU251
 811 0308 FFF7FEFF 		bl	_ZN5daisy6Random8GetFloatEff
 812              	.LVL54:
 813 030c B0EE40AA 		vmov.f32	s20, s0
 814              	.LBE341:
 815              	.LBE343:
 816              	.LBB344:
 817              	.LBB345:
 818 0310 F7EE000A 		vmov.f32	s1, #1.0e+0
 819 0314 9FED170A 		vldr.32	s0, .L37+68
 820              	.LBE345:
 821              	.LBI344:
  52:MyProj.cpp    **** {
 822              		.loc 13 52 7 is_stmt 1 view .LVU252
 823              	.LBB346:
  54:MyProj.cpp    **** }
 824              		.loc 13 54 5 view .LVU253
  54:MyProj.cpp    **** }
 825              		.loc 13 54 28 is_stmt 0 view .LVU254
 826 0318 FFF7FEFF 		bl	_ZN5daisy6Random8GetFloatEff
 827              	.LVL55:
 828              	.LBE346:
 829              	.LBE344:
 115:MyProj.cpp    ****         }
 830              		.loc 13 115 24 view .LVU255
 831 031c 1748     		ldr	r0, .L37+76
 832              	.LBB348:
 833              	.LBB347:
  54:MyProj.cpp    **** }
 834              		.loc 13 54 28 view .LVU256
 835 031e B0EE401A 		vmov.f32	s2, s0
 836              	.LBE347:
 837              	.LBE348:
 115:MyProj.cpp    ****         }
 838              		.loc 13 115 24 view .LVU257
 839 0322 F0EE4A0A 		vmov.f32	s1, s20
 840 0326 B0EE690A 		vmov.f32	s0, s19
 841 032a FFF7FEFF 		bl	_ZN5daisy6RgbLed3SetEfff
ARM GAS  /var/folders/ky/97y1n_614tj15gjp3pmt3wd00000gn/T//ccpV02iO.s 			page 34


 842              	.LVL56:
 843              	.LBE328:
 844 032e D3E6     		b	.L11
 845              	.L38:
 846              		.align	3
 847              	.L37:
 848 0330 5C8FC2F5 		.word	-171798692
 849 0334 285CEF3F 		.word	1072651304
 850 0338 7B14AE47 		.word	1202590843
 851 033c E17A943F 		.word	1066695393
 852 0340 00000000 		.word	hw
 853 0344 0000C842 		.word	1120403456
 854 0348 00000000 		.word	.LANCHOR5
 855 034c 00000000 		.word	.LANCHOR1
 856 0350 00000000 		.word	.LANCHOR6
 857 0354 00000000 		.word	.LANCHOR11
 858 0358 00000000 		.word	.LANCHOR2
 859 035c 00000000 		.word	.LANCHOR8
 860 0360 00000000 		.word	.LANCHOR13
 861 0364 00000000 		.word	.LANCHOR7
 862 0368 00000000 		.word	.LANCHOR10
 863 036c CDCCCC3D 		.word	1036831949
 864 0370 00004042 		.word	1111490560
 865 0374 00000000 		.word	0
 866 0378 D4000000 		.word	hw+212
 867 037c 28010000 		.word	hw+296
 868 0380 00000000 		.word	.LANCHOR0
 869 0384 00000000 		.word	.LANCHOR3
 870 0388 00000000 		.word	.LANCHOR4
 871 038c 00000000 		.word	.LANCHOR9
 872              	.LVL57:
 873              	.L35:
 115:MyProj.cpp    ****         }
 874              		.loc 13 115 24 view .LVU258
 875              	.LBE385:
 876              	.LBB386:
 877              	.LBB353:
 123:MyProj.cpp    ****             isFading2 = true;
 878              		.loc 13 123 13 is_stmt 1 view .LVU259
 123:MyProj.cpp    ****             isFading2 = true;
 879              		.loc 13 123 23 is_stmt 0 view .LVU260
 880 0390 3D48     		ldr	r0, .L39
 881 0392 FFF7FEFF 		bl	tADSRS_off
 882              	.LVL58:
 124:MyProj.cpp    **** 
 883              		.loc 13 124 13 is_stmt 1 view .LVU261
 127:MyProj.cpp    ****             grainPosition
 884              		.loc 13 127 23 is_stmt 0 view .LVU262
 885 0396 BDEEC88A 		vcvt.s32.f32	s16, s16
 886              	.LVL59:
 127:MyProj.cpp    ****             grainPosition
 887              		.loc 13 127 23 view .LVU263
 888 039a 3C4A     		ldr	r2, .L39+4
 124:MyProj.cpp    **** 
 889              		.loc 13 124 23 view .LVU264
 890 039c 0123     		movs	r3, #1
 891              	.LBB354:
ARM GAS  /var/folders/ky/97y1n_614tj15gjp3pmt3wd00000gn/T//ccpV02iO.s 			page 35


 892              	.LBB355:
  54:MyProj.cpp    **** }
 893              		.loc 13 54 28 view .LVU265
 894 039e F7EE000A 		vmov.f32	s1, #1.0e+0
 895 03a2 9FED3B0A 		vldr.32	s0, .L39+8
 896              	.LBE355:
 897              	.LBE354:
 127:MyProj.cpp    ****             grainPosition
 898              		.loc 13 127 23 view .LVU266
 899 03a6 82ED008A 		vstr.32	s16, [r2]	@ int
 124:MyProj.cpp    **** 
 900              		.loc 13 124 23 view .LVU267
 901 03aa 3A4A     		ldr	r2, .L39+12
 902 03ac 1370     		strb	r3, [r2]
 127:MyProj.cpp    ****             grainPosition
 903              		.loc 13 127 13 is_stmt 1 view .LVU268
 128:MyProj.cpp    ****                 = fmodf(randomNumber(), 1.0) * (bufferSize - grainSize);
 904              		.loc 13 128 13 view .LVU269
 905              	.LBB357:
 906              	.LBI354:
  52:MyProj.cpp    **** {
 907              		.loc 13 52 7 view .LVU270
 908              	.LBB356:
  54:MyProj.cpp    **** }
 909              		.loc 13 54 5 view .LVU271
  54:MyProj.cpp    **** }
 910              		.loc 13 54 28 is_stmt 0 view .LVU272
 911 03ae FFF7FEFF 		bl	_ZN5daisy6Random8GetFloatEff
 912              	.LVL60:
 913              	.LBE356:
 914              	.LBE357:
 129:MyProj.cpp    **** 
 915              		.loc 13 129 24 view .LVU273
 916 03b2 F7EE000A 		vmov.f32	s1, #1.0e+0
 917 03b6 FFF7FEFF 		bl	fmodf
 918              	.LVL61:
 129:MyProj.cpp    **** 
 919              		.loc 13 129 60 view .LVU274
 920 03ba 344A     		ldr	r2, .L39+4
 921 03bc DBF80030 		ldr	r3, [fp]
 922 03c0 1168     		ldr	r1, [r2]
 129:MyProj.cpp    **** 
 923              		.loc 13 129 17 view .LVU275
 924 03c2 DFF8E8C0 		ldr	ip, .L39+36
 129:MyProj.cpp    **** 
 925              		.loc 13 129 60 view .LVU276
 926 03c6 5B1A     		subs	r3, r3, r1
 129:MyProj.cpp    **** 
 927              		.loc 13 129 46 view .LVU277
 928 03c8 07EE903A 		vmov	s15, r3	@ int
 131:MyProj.cpp    ****             tSampler_setEndUnsafe(&mySampler, mySampler->start + grainSize);
 929              		.loc 13 131 30 view .LVU278
 930 03cc 324B     		ldr	r3, .L39+16
 129:MyProj.cpp    **** 
 931              		.loc 13 129 46 view .LVU279
 932 03ce F8EEE77A 		vcvt.f32.s32	s15, s15
 131:MyProj.cpp    ****             tSampler_setEndUnsafe(&mySampler, mySampler->start + grainSize);
ARM GAS  /var/folders/ky/97y1n_614tj15gjp3pmt3wd00000gn/T//ccpV02iO.s 			page 36


 933              		.loc 13 131 30 view .LVU280
 934 03d2 1846     		mov	r0, r3
 129:MyProj.cpp    **** 
 935              		.loc 13 129 46 view .LVU281
 936 03d4 27EE800A 		vmul.f32	s0, s15, s0
 129:MyProj.cpp    **** 
 937              		.loc 13 129 17 view .LVU282
 938 03d8 FDEEC07A 		vcvt.s32.f32	s15, s0
 939 03dc 17EE901A 		vmov	r1, s15	@ int
 940 03e0 CCED007A 		vstr.32	s15, [ip]	@ int
 131:MyProj.cpp    ****             tSampler_setEndUnsafe(&mySampler, mySampler->start + grainSize);
 941              		.loc 13 131 13 is_stmt 1 view .LVU283
 131:MyProj.cpp    ****             tSampler_setEndUnsafe(&mySampler, mySampler->start + grainSize);
 942              		.loc 13 131 30 is_stmt 0 view .LVU284
 943 03e4 FFF7FEFF 		bl	tSampler_setStart
 944              	.LVL62:
 132:MyProj.cpp    **** 
 945              		.loc 13 132 13 is_stmt 1 view .LVU285
 132:MyProj.cpp    **** 
 946              		.loc 13 132 58 is_stmt 0 view .LVU286
 947 03e8 2B4B     		ldr	r3, .L39+16
 132:MyProj.cpp    **** 
 948              		.loc 13 132 34 view .LVU287
 949 03ea 284A     		ldr	r2, .L39+4
 132:MyProj.cpp    **** 
 950              		.loc 13 132 58 view .LVU288
 951 03ec 1968     		ldr	r1, [r3]
 132:MyProj.cpp    **** 
 952              		.loc 13 132 34 view .LVU289
 953 03ee 486B     		ldr	r0, [r1, #52]
 954 03f0 1168     		ldr	r1, [r2]
 955 03f2 0144     		add	r1, r1, r0
 956 03f4 1846     		mov	r0, r3
 957 03f6 FFF7FEFF 		bl	tSampler_setEndUnsafe
 958              	.LVL63:
 134:MyProj.cpp    ****             tADSRS_setAttack(&myEnvelope, crossfadeLength);
 959              		.loc 13 134 13 is_stmt 1 view .LVU290
 134:MyProj.cpp    ****             tADSRS_setAttack(&myEnvelope, crossfadeLength);
 960              		.loc 13 134 55 is_stmt 0 view .LVU291
 961 03fa 244A     		ldr	r2, .L39+4
 962 03fc D9ED006A 		vldr.32	s13, [r9]
 963 0400 D2ED007A 		vldr.32	s15, [r2]	@ int
 134:MyProj.cpp    ****             tADSRS_setAttack(&myEnvelope, crossfadeLength);
 964              		.loc 13 134 19 view .LVU292
 965 0404 9FED257A 		vldr.32	s14, .L39+20
 134:MyProj.cpp    ****             tADSRS_setAttack(&myEnvelope, crossfadeLength);
 966              		.loc 13 134 55 view .LVU293
 967 0408 F8EEE77A 		vcvt.f32.s32	s15, s15
 135:MyProj.cpp    ****             tADSRS_setRelease(&myEnvelope, crossfadeLength);
 968              		.loc 13 135 29 view .LVU294
 969 040c 2448     		ldr	r0, .L39+24
 134:MyProj.cpp    ****             tADSRS_setAttack(&myEnvelope, crossfadeLength);
 970              		.loc 13 134 55 view .LVU295
 971 040e 67EEA67A 		vmul.f32	s15, s15, s13
 134:MyProj.cpp    ****             tADSRS_setAttack(&myEnvelope, crossfadeLength);
 972              		.loc 13 134 19 view .LVU296
 973 0412 87EE870A 		vdiv.f32	s0, s15, s14
ARM GAS  /var/folders/ky/97y1n_614tj15gjp3pmt3wd00000gn/T//ccpV02iO.s 			page 37


 974              	.LVL64:
 135:MyProj.cpp    ****             tADSRS_setRelease(&myEnvelope, crossfadeLength);
 975              		.loc 13 135 13 is_stmt 1 view .LVU297
 135:MyProj.cpp    ****             tADSRS_setRelease(&myEnvelope, crossfadeLength);
 976              		.loc 13 135 29 is_stmt 0 view .LVU298
 977 0416 8DED030A 		vstr.32	s0, [sp, #12]	@ int
 978 041a FFF7FEFF 		bl	tADSRS_setAttack
 979              	.LVL65:
 136:MyProj.cpp    **** 
 980              		.loc 13 136 13 is_stmt 1 view .LVU299
 136:MyProj.cpp    **** 
 981              		.loc 13 136 30 is_stmt 0 view .LVU300
 982 041e 9DED030A 		vldr.32	s0, [sp, #12]	@ int
 983 0422 1F48     		ldr	r0, .L39+24
 984 0424 FFF7FEFF 		bl	tADSRS_setRelease
 985              	.LVL66:
 138:MyProj.cpp    ****             tADSRS_on(&myEnvelope, 1.0f);
 986              		.loc 13 138 13 is_stmt 1 view .LVU301
 138:MyProj.cpp    ****             tADSRS_on(&myEnvelope, 1.0f);
 987              		.loc 13 138 26 is_stmt 0 view .LVU302
 988 0428 1B4B     		ldr	r3, .L39+16
 989 042a 1846     		mov	r0, r3
 990 042c FFF7FEFF 		bl	tSampler_play
 991              	.LVL67:
 139:MyProj.cpp    **** 
 992              		.loc 13 139 13 is_stmt 1 view .LVU303
 139:MyProj.cpp    **** 
 993              		.loc 13 139 22 is_stmt 0 view .LVU304
 994 0430 1B48     		ldr	r0, .L39+24
 995 0432 B7EE000A 		vmov.f32	s0, #1.0e+0
 996 0436 FFF7FEFF 		bl	tADSRS_on
 997              	.LVL68:
 141:MyProj.cpp    **** 
 998              		.loc 13 141 13 is_stmt 1 view .LVU305
 141:MyProj.cpp    **** 
 999              		.loc 13 141 23 is_stmt 0 view .LVU306
 1000 043a 1A4B     		ldr	r3, .L39+28
 1001              	.LBB358:
 1002              	.LBB359:
  54:MyProj.cpp    **** }
 1003              		.loc 13 54 28 view .LVU307
 1004 043c F7EE000A 		vmov.f32	s1, #1.0e+0
 1005 0440 9FED130A 		vldr.32	s0, .L39+8
 1006              	.LBE359:
 1007              	.LBE358:
 141:MyProj.cpp    **** 
 1008              		.loc 13 141 23 view .LVU308
 1009 0444 1F70     		strb	r7, [r3]
 143:MyProj.cpp    ****         }
 1010              		.loc 13 143 13 is_stmt 1 view .LVU309
 1011              	.LBB362:
 1012              	.LBI358:
  52:MyProj.cpp    **** {
 1013              		.loc 13 52 7 view .LVU310
 1014              	.LBB360:
  54:MyProj.cpp    **** }
 1015              		.loc 13 54 5 view .LVU311
ARM GAS  /var/folders/ky/97y1n_614tj15gjp3pmt3wd00000gn/T//ccpV02iO.s 			page 38


  54:MyProj.cpp    **** }
 1016              		.loc 13 54 28 is_stmt 0 view .LVU312
 1017 0446 FFF7FEFF 		bl	_ZN5daisy6Random8GetFloatEff
 1018              	.LVL69:
 1019              	.LBE360:
 1020              	.LBE362:
 1021              	.LBB363:
 1022              	.LBB364:
 1023 044a F7EE000A 		vmov.f32	s1, #1.0e+0
 1024              	.LBE364:
 1025              	.LBE363:
 1026              	.LBB367:
 1027              	.LBB361:
 1028 044e B0EE408A 		vmov.f32	s16, s0
 1029              	.LBE361:
 1030              	.LBE367:
 1031              	.LBB368:
 1032              	.LBB365:
 1033 0452 9FED0F0A 		vldr.32	s0, .L39+8
 1034              	.LBE365:
 1035              	.LBI363:
  52:MyProj.cpp    **** {
 1036              		.loc 13 52 7 is_stmt 1 view .LVU313
 1037              	.LBB366:
  54:MyProj.cpp    **** }
 1038              		.loc 13 54 5 view .LVU314
  54:MyProj.cpp    **** }
 1039              		.loc 13 54 28 is_stmt 0 view .LVU315
 1040 0456 FFF7FEFF 		bl	_ZN5daisy6Random8GetFloatEff
 1041              	.LVL70:
 1042 045a F0EE408A 		vmov.f32	s17, s0
 1043              	.LBE366:
 1044              	.LBE368:
 1045              	.LBB369:
 1046              	.LBB370:
 1047 045e F7EE000A 		vmov.f32	s1, #1.0e+0
 1048 0462 9FED0B0A 		vldr.32	s0, .L39+8
 1049              	.LBE370:
 1050              	.LBI369:
  52:MyProj.cpp    **** {
 1051              		.loc 13 52 7 is_stmt 1 view .LVU316
 1052              	.LBB371:
  54:MyProj.cpp    **** }
 1053              		.loc 13 54 5 view .LVU317
  54:MyProj.cpp    **** }
 1054              		.loc 13 54 28 is_stmt 0 view .LVU318
 1055 0466 FFF7FEFF 		bl	_ZN5daisy6Random8GetFloatEff
 1056              	.LVL71:
 1057              	.LBE371:
 1058              	.LBE369:
 143:MyProj.cpp    ****         }
 1059              		.loc 13 143 24 view .LVU319
 1060 046a 0F48     		ldr	r0, .L39+32
 1061              	.LBB373:
 1062              	.LBB372:
  54:MyProj.cpp    **** }
 1063              		.loc 13 54 28 view .LVU320
ARM GAS  /var/folders/ky/97y1n_614tj15gjp3pmt3wd00000gn/T//ccpV02iO.s 			page 39


 1064 046c B0EE401A 		vmov.f32	s2, s0
 1065              	.LBE372:
 1066              	.LBE373:
 143:MyProj.cpp    ****         }
 1067              		.loc 13 143 24 view .LVU321
 1068 0470 F0EE680A 		vmov.f32	s1, s17
 1069 0474 B0EE480A 		vmov.f32	s0, s16
 1070 0478 FFF7FEFF 		bl	_ZN5daisy6RgbLed3SetEfff
 1071              	.LVL72:
 1072              	.LBE353:
 1073 047c 4AE6     		b	.L13
 1074              	.LVL73:
 1075              	.L6:
 143:MyProj.cpp    ****         }
 1076              		.loc 13 143 24 view .LVU322
 1077              	.LBE386:
 1078              	.LBE388:
 1079              	.LBE323:
 175:MyProj.cpp    ****     }
 176:MyProj.cpp    **** }
 1080              		.loc 13 176 1 view .LVU323
 1081 047e 05B0     		add	sp, sp, #20
 1082              		.cfi_def_cfa_offset 60
 1083              		@ sp needed
 1084 0480 BDEC068B 		vldm	sp!, {d8-d10}
 1085              		.cfi_restore 84
 1086              		.cfi_restore 85
 1087              		.cfi_restore 82
 1088              		.cfi_restore 83
 1089              		.cfi_restore 80
 1090              		.cfi_restore 81
 1091              		.cfi_def_cfa_offset 36
 1092 0484 BDE8F08F 		pop	{r4, r5, r6, r7, r8, r9, r10, fp, pc}
 1093              	.LVL74:
 1094              	.L40:
 1095              		.loc 13 176 1 view .LVU324
 1096              		.align	2
 1097              	.L39:
 1098 0488 00000000 		.word	.LANCHOR10
 1099 048c 00000000 		.word	.LANCHOR6
 1100 0490 00000000 		.word	0
 1101 0494 00000000 		.word	.LANCHOR11
 1102 0498 00000000 		.word	.LANCHOR1
 1103 049c 00004042 		.word	1111490560
 1104 04a0 00000000 		.word	.LANCHOR7
 1105 04a4 00000000 		.word	.LANCHOR5
 1106 04a8 D4000000 		.word	hw+212
 1107 04ac 00000000 		.word	.LANCHOR12
 1108              		.cfi_endproc
 1109              	.LFE2542:
 1111              		.section	.text.startup.main,"ax",%progbits
 1112              		.align	1
 1113              		.p2align 2,,3
 1114              		.global	main
 1115              		.syntax unified
 1116              		.thumb
 1117              		.thumb_func
ARM GAS  /var/folders/ky/97y1n_614tj15gjp3pmt3wd00000gn/T//ccpV02iO.s 			page 40


 1119              	main:
 1120              	.LFB2543:
 177:MyProj.cpp    **** 
 178:MyProj.cpp    **** int main(void)
 179:MyProj.cpp    **** {
 1121              		.loc 13 179 1 is_stmt 1 view -0
 1122              		.cfi_startproc
 1123              		@ Volatile: function does not return.
 1124              		@ args = 0, pretend = 0, frame = 0
 1125              		@ frame_needed = 0, uses_anonymous_args = 0
 180:MyProj.cpp    ****     hw.Init();
 1126              		.loc 13 180 5 view .LVU326
 179:MyProj.cpp    ****     hw.Init();
 1127              		.loc 13 179 1 is_stmt 0 view .LVU327
 1128 0000 08B5     		push	{r3, lr}
 1129              		.cfi_def_cfa_offset 8
 1130              		.cfi_offset 3, -8
 1131              		.cfi_offset 14, -4
 1132              		.loc 13 180 12 view .LVU328
 1133 0002 0021     		movs	r1, #0
 1134 0004 3048     		ldr	r0, .L44
 1135 0006 FFF7FEFF 		bl	_ZN5daisy8DaisyPod4InitEb
 1136              	.LVL75:
 181:MyProj.cpp    ****     hw.SetAudioBlockSize(4); // number of samples handled per callback
 1137              		.loc 13 181 5 is_stmt 1 view .LVU329
 1138              		.loc 13 181 25 is_stmt 0 view .LVU330
 1139 000a 0421     		movs	r1, #4
 1140 000c 2E48     		ldr	r0, .L44
 1141 000e FFF7FEFF 		bl	_ZN5daisy8DaisyPod17SetAudioBlockSizeEj
 1142              	.LVL76:
 182:MyProj.cpp    ****     hw.SetAudioSampleRate(SaiHandle::Config::SampleRate::SAI_48KHZ);
 1143              		.loc 13 182 5 is_stmt 1 view .LVU331
 1144              		.loc 13 182 26 is_stmt 0 view .LVU332
 1145 0012 0321     		movs	r1, #3
 1146 0014 2C48     		ldr	r0, .L44
 1147 0016 FFF7FEFF 		bl	_ZN5daisy8DaisyPod18SetAudioSampleRateENS_9SaiHandle6Config10SampleRateE
 1148              	.LVL77:
 183:MyProj.cpp    ****     Random::Init();
 1149              		.loc 13 183 5 is_stmt 1 view .LVU333
 1150              		.loc 13 183 17 is_stmt 0 view .LVU334
 1151 001a FFF7FEFF 		bl	_ZN5daisy6Random4InitEv
 1152              	.LVL78:
 184:MyProj.cpp    ****     hw.StartAdc();
 1153              		.loc 13 184 5 is_stmt 1 view .LVU335
 1154              		.loc 13 184 16 is_stmt 0 view .LVU336
 1155 001e 2A48     		ldr	r0, .L44
 1156 0020 FFF7FEFF 		bl	_ZN5daisy8DaisyPod8StartAdcEv
 1157              	.LVL79:
 185:MyProj.cpp    ****     LEAF_init(&leaf, 48000, leafMemory, 455355, randomNumber);
 1158              		.loc 13 185 5 is_stmt 1 view .LVU337
 1159              		.loc 13 185 14 is_stmt 0 view .LVU338
 1160 0024 9FED290A 		vldr.32	s0, .L44+4
 1161 0028 294B     		ldr	r3, .L44+8
 1162 002a 2A4A     		ldr	r2, .L44+12
 1163 002c 2A49     		ldr	r1, .L44+16
 1164 002e 2B48     		ldr	r0, .L44+20
 1165 0030 FFF7FEFF 		bl	LEAF_init
ARM GAS  /var/folders/ky/97y1n_614tj15gjp3pmt3wd00000gn/T//ccpV02iO.s 			page 41


 1166              	.LVL80:
 186:MyProj.cpp    **** 
 187:MyProj.cpp    ****     //first, initialize that large memory pool to be ready for usage
 188:MyProj.cpp    ****     tMempool_init(&bigPool, bigMemory, 67108864, &leaf);
 1167              		.loc 13 188 5 is_stmt 1 view .LVU339
 1168              		.loc 13 188 18 is_stmt 0 view .LVU340
 1169 0034 294B     		ldr	r3, .L44+20
 1170 0036 4FF08062 		mov	r2, #67108864
 1171 003a 2949     		ldr	r1, .L44+24
 1172 003c 2948     		ldr	r0, .L44+28
 1173 003e FFF7FEFF 		bl	tMempool_init
 1174              	.LVL81:
 189:MyProj.cpp    **** 
 190:MyProj.cpp    ****     //then place the buffer into that memory pool instead of the default pool, using the "initToPoo
 191:MyProj.cpp    ****     tBuffer_initToPool(
 1175              		.loc 13 191 5 is_stmt 1 view .LVU341
 1176              		.loc 13 191 23 is_stmt 0 view .LVU342
 1177 0042 294B     		ldr	r3, .L44+32
 1178 0044 274A     		ldr	r2, .L44+28
 1179 0046 1968     		ldr	r1, [r3]
 1180 0048 2848     		ldr	r0, .L44+36
 1181 004a FFF7FEFF 		bl	tBuffer_initToPool
 1182              	.LVL82:
 192:MyProj.cpp    ****         &myBuffer,
 193:MyProj.cpp    ****         bufferSize,
 194:MyProj.cpp    ****         &bigPool); //five-second buffer, set up a segment of memory to store it
 195:MyProj.cpp    ****     tBuffer_setRecordMode(&myBuffer, RecordLoop);
 1183              		.loc 13 195 5 is_stmt 1 view .LVU343
 1184              		.loc 13 195 26 is_stmt 0 view .LVU344
 1185 004e 0121     		movs	r1, #1
 1186 0050 2648     		ldr	r0, .L44+36
 1187 0052 FFF7FEFF 		bl	tBuffer_setRecordMode
 1188              	.LVL83:
 196:MyProj.cpp    **** 
 197:MyProj.cpp    ****     //make a "sampler" object that uses that buffer for memory
 198:MyProj.cpp    ****     tSampler_init(&mySampler, &myBuffer, &leaf);
 1189              		.loc 13 198 5 is_stmt 1 view .LVU345
 1190              		.loc 13 198 18 is_stmt 0 view .LVU346
 1191 0056 214A     		ldr	r2, .L44+20
 1192 0058 2449     		ldr	r1, .L44+36
 1193 005a 2548     		ldr	r0, .L44+40
 1194 005c FFF7FEFF 		bl	tSampler_init
 1195              	.LVL84:
 199:MyProj.cpp    ****     tSampler_setMode(&mySampler, PlayNormal);
 1196              		.loc 13 199 5 is_stmt 1 view .LVU347
 1197              		.loc 13 199 21 is_stmt 0 view .LVU348
 1198 0060 0021     		movs	r1, #0
 1199 0062 2348     		ldr	r0, .L44+40
 1200 0064 FFF7FEFF 		bl	tSampler_setMode
 1201              	.LVL85:
 200:MyProj.cpp    **** 
 201:MyProj.cpp    ****     tADSRS_init(&myEnvelope, 0, 0, 1.0, 0, &leaf);
 1202              		.loc 13 201 5 is_stmt 1 view .LVU349
 1203              		.loc 13 201 16 is_stmt 0 view .LVU350
 1204 0068 DFED221A 		vldr.32	s3, .L44+44
 1205 006c B7EE001A 		vmov.f32	s2, #1.0e+0
 1206 0070 1A49     		ldr	r1, .L44+20
ARM GAS  /var/folders/ky/97y1n_614tj15gjp3pmt3wd00000gn/T//ccpV02iO.s 			page 42


 1207 0072 F0EE610A 		vmov.f32	s1, s3
 1208 0076 2048     		ldr	r0, .L44+48
 1209 0078 B0EE610A 		vmov.f32	s0, s3
 1210 007c FFF7FEFF 		bl	tADSRS_init
 1211              	.LVL86:
 202:MyProj.cpp    **** 
 203:MyProj.cpp    ****     tSampler_init(&mySampler2, &myBuffer, &leaf);
 1212              		.loc 13 203 5 is_stmt 1 view .LVU351
 1213              		.loc 13 203 18 is_stmt 0 view .LVU352
 1214 0080 164A     		ldr	r2, .L44+20
 1215 0082 1A49     		ldr	r1, .L44+36
 1216 0084 1D48     		ldr	r0, .L44+52
 1217 0086 FFF7FEFF 		bl	tSampler_init
 1218              	.LVL87:
 204:MyProj.cpp    ****     tSampler_setMode(&mySampler2, PlayNormal);
 1219              		.loc 13 204 5 is_stmt 1 view .LVU353
 1220              		.loc 13 204 21 is_stmt 0 view .LVU354
 1221 008a 0021     		movs	r1, #0
 1222 008c 1B48     		ldr	r0, .L44+52
 1223 008e FFF7FEFF 		bl	tSampler_setMode
 1224              	.LVL88:
 205:MyProj.cpp    **** 
 206:MyProj.cpp    ****     tADSRS_init(&myEnvelope2, 0, 0, 1.0, 0, &leaf);
 1225              		.loc 13 206 5 is_stmt 1 view .LVU355
 1226              		.loc 13 206 16 is_stmt 0 view .LVU356
 1227 0092 DFED181A 		vldr.32	s3, .L44+44
 1228 0096 B7EE001A 		vmov.f32	s2, #1.0e+0
 1229 009a 1049     		ldr	r1, .L44+20
 1230 009c F0EE610A 		vmov.f32	s1, s3
 1231 00a0 1748     		ldr	r0, .L44+56
 1232 00a2 B0EE610A 		vmov.f32	s0, s3
 1233 00a6 FFF7FEFF 		bl	tADSRS_init
 1234              	.LVL89:
 207:MyProj.cpp    **** 
 208:MyProj.cpp    ****     tBuffer_setRecordPosition(&myBuffer, 0);
 1235              		.loc 13 208 5 is_stmt 1 view .LVU357
 1236              		.loc 13 208 30 is_stmt 0 view .LVU358
 1237 00aa 0021     		movs	r1, #0
 1238 00ac 0F48     		ldr	r0, .L44+36
 1239 00ae FFF7FEFF 		bl	tBuffer_setRecordPosition
 1240              	.LVL90:
 209:MyProj.cpp    ****     tBuffer_record(&myBuffer);
 1241              		.loc 13 209 5 is_stmt 1 view .LVU359
 1242              		.loc 13 209 19 is_stmt 0 view .LVU360
 1243 00b2 0E48     		ldr	r0, .L44+36
 1244 00b4 FFF7FEFF 		bl	tBuffer_record
 1245              	.LVL91:
 210:MyProj.cpp    **** 
 211:MyProj.cpp    ****     hw.StartAudio(AudioCallback);
 1246              		.loc 13 211 5 is_stmt 1 view .LVU361
 1247              		.loc 13 211 18 is_stmt 0 view .LVU362
 1248 00b8 1249     		ldr	r1, .L44+60
 1249 00ba 0348     		ldr	r0, .L44
 1250 00bc FFF7FEFF 		bl	_ZN5daisy8DaisyPod10StartAudioEPFvPKPKfPPfjE
 1251              	.LVL92:
 1252              	.L42:
 212:MyProj.cpp    **** 
ARM GAS  /var/folders/ky/97y1n_614tj15gjp3pmt3wd00000gn/T//ccpV02iO.s 			page 43


 213:MyProj.cpp    ****     while(1)
 1253              		.loc 13 213 5 is_stmt 1 discriminator 1 view .LVU363
 214:MyProj.cpp    ****     {
 215:MyProj.cpp    ****         hw.UpdateLeds();
 1254              		.loc 13 215 9 discriminator 1 view .LVU364
 1255              		.loc 13 215 22 is_stmt 0 discriminator 1 view .LVU365
 1256 00c0 0148     		ldr	r0, .L44
 1257 00c2 FFF7FEFF 		bl	_ZN5daisy8DaisyPod10UpdateLedsEv
 1258              	.LVL93:
 213:MyProj.cpp    ****     {
 1259              		.loc 13 213 5 is_stmt 1 discriminator 1 view .LVU366
 1260 00c6 FBE7     		b	.L42
 1261              	.L45:
 1262              		.align	2
 1263              	.L44:
 1264 00c8 00000000 		.word	hw
 1265 00cc 00803B47 		.word	1195081728
 1266 00d0 00000000 		.word	_Z12randomNumberv
 1267 00d4 BBF20600 		.word	455355
 1268 00d8 00000000 		.word	leafMemory
 1269 00dc 00000000 		.word	.LANCHOR14
 1270 00e0 00000000 		.word	bigMemory
 1271 00e4 00000000 		.word	.LANCHOR15
 1272 00e8 00000000 		.word	.LANCHOR4
 1273 00ec 00000000 		.word	.LANCHOR13
 1274 00f0 00000000 		.word	.LANCHOR1
 1275 00f4 00000000 		.word	0
 1276 00f8 00000000 		.word	.LANCHOR7
 1277 00fc 00000000 		.word	.LANCHOR2
 1278 0100 00000000 		.word	.LANCHOR10
 1279 0104 00000000 		.word	_Z13AudioCallbackPKPKfPPfj
 1280              		.cfi_endproc
 1281              	.LFE2543:
 1283              		.section	.text.startup._GLOBAL__sub_I_leaf,"ax",%progbits
 1284              		.align	1
 1285              		.p2align 2,,3
 1286              		.syntax unified
 1287              		.thumb
 1288              		.thumb_func
 1290              	_GLOBAL__sub_I_leaf:
 1291              	.LFB2571:
 216:MyProj.cpp    ****     }
 217:MyProj.cpp    **** }
 1292              		.loc 13 217 1 view -0
 1293              		.cfi_startproc
 1294              		@ args = 0, pretend = 0, frame = 0
 1295              		@ frame_needed = 0, uses_anonymous_args = 0
 1296              	.LBB454:
 1297              	.LBI454:
 1298              		.loc 13 217 1 view .LVU368
 1299              	.LVL94:
 1300              	.LBB455:
 1301              	.LBB456:
 1302              	.LBI456:
  35:../../libDaisy//src/daisy_pod.h ****     ~DaisyPod() {}
 1303              		.loc 1 35 5 view .LVU369
 1304              	.LBB457:
ARM GAS  /var/folders/ky/97y1n_614tj15gjp3pmt3wd00000gn/T//ccpV02iO.s 			page 44


 1305              	.LBB458:
 1306              	.LBI458:
  21:../../libDaisy//src/daisy_seed.h ****     ~DaisySeed() {}
 1307              		.loc 8 21 5 view .LVU370
 1308              	.LBB459:
 1309              	.LBB460:
 1310              	.LBI460:
 1311              		.file 14 "../../libDaisy//src/per/qspi.h"
   1:../../libDaisy//src/per/qspi.h **** #ifndef DSY_QSPI
   2:../../libDaisy//src/per/qspi.h **** #define DSY_QSPI /**< Macro */
   3:../../libDaisy//src/per/qspi.h **** 
   4:../../libDaisy//src/per/qspi.h **** #ifndef UNIT_TEST // for unit tests, a dummy implementation
   5:../../libDaisy//src/per/qspi.h **** 
   6:../../libDaisy//src/per/qspi.h **** #include <cstdint>
   7:../../libDaisy//src/per/qspi.h **** #include "daisy_core.h" // Added for dsy_gpio_pin typedef
   8:../../libDaisy//src/per/qspi.h **** 
   9:../../libDaisy//src/per/qspi.h **** #define DSY_QSPI_TEXT       \
  10:../../libDaisy//src/per/qspi.h ****     __attribute__((section( \
  11:../../libDaisy//src/per/qspi.h ****         ".qspiflash_text"))) /**< used for reading memory in memory_mapped mode. */
  12:../../libDaisy//src/per/qspi.h **** #define DSY_QSPI_DATA       \
  13:../../libDaisy//src/per/qspi.h ****     __attribute__((section( \
  14:../../libDaisy//src/per/qspi.h ****         ".qspiflash_data"))) /**< used for reading memory in memory_mapped mode. */
  15:../../libDaisy//src/per/qspi.h **** #define DSY_QSPI_BSS        \
  16:../../libDaisy//src/per/qspi.h ****     __attribute__((section( \
  17:../../libDaisy//src/per/qspi.h ****         ".qspiflash_bss"))) /**< used for reading memory in memory_mapped mode. */
  18:../../libDaisy//src/per/qspi.h **** 
  19:../../libDaisy//src/per/qspi.h **** namespace daisy
  20:../../libDaisy//src/per/qspi.h **** {
  21:../../libDaisy//src/per/qspi.h **** /** @addtogroup serial
  22:../../libDaisy//src/per/qspi.h **** @{
  23:../../libDaisy//src/per/qspi.h **** */
  24:../../libDaisy//src/per/qspi.h **** 
  25:../../libDaisy//src/per/qspi.h **** /** 
  26:../../libDaisy//src/per/qspi.h ****  Driver for QSPI peripheral to interface with external flash memory. \n 
  27:../../libDaisy//src/per/qspi.h ****     Currently supported QSPI Devices: \n 
  28:../../libDaisy//src/per/qspi.h ****     * IS25LP080D
  29:../../libDaisy//src/per/qspi.h **** */
  30:../../libDaisy//src/per/qspi.h **** class QSPIHandle
  31:../../libDaisy//src/per/qspi.h **** {
  32:../../libDaisy//src/per/qspi.h ****   public:
  33:../../libDaisy//src/per/qspi.h ****     enum Result
  34:../../libDaisy//src/per/qspi.h ****     {
  35:../../libDaisy//src/per/qspi.h ****         OK = 0,
  36:../../libDaisy//src/per/qspi.h ****         ERR
  37:../../libDaisy//src/per/qspi.h ****     };
  38:../../libDaisy//src/per/qspi.h **** 
  39:../../libDaisy//src/per/qspi.h ****     /** Indicates the current status of the module. 
  40:../../libDaisy//src/per/qspi.h ****          *  Warnings are indicated by a leading W.
  41:../../libDaisy//src/per/qspi.h ****          *  Errors are indicated by a leading E and cause an immediate exit.
  42:../../libDaisy//src/per/qspi.h ****          * 
  43:../../libDaisy//src/per/qspi.h ****          *  \param GOOD - No errors have been reported.
  44:../../libDaisy//src/per/qspi.h ****          *  \param E_HAL_ERROR - HAL code did not return HAL_OK.
  45:../../libDaisy//src/per/qspi.h ****          *  \param E_SWITCHING_MODES - An error was encountered while switching QSPI peripheral mod
  46:../../libDaisy//src/per/qspi.h ****          *  \param E_INVALID_MODE - QSPI should not be written to while the program is executing fr
  47:../../libDaisy//src/per/qspi.h ****          */
  48:../../libDaisy//src/per/qspi.h ****     enum Status
  49:../../libDaisy//src/per/qspi.h ****     {
ARM GAS  /var/folders/ky/97y1n_614tj15gjp3pmt3wd00000gn/T//ccpV02iO.s 			page 45


  50:../../libDaisy//src/per/qspi.h ****         GOOD = 0,
  51:../../libDaisy//src/per/qspi.h ****         E_HAL_ERROR,
  52:../../libDaisy//src/per/qspi.h ****         E_SWITCHING_MODES,
  53:../../libDaisy//src/per/qspi.h ****         E_INVALID_MODE,
  54:../../libDaisy//src/per/qspi.h ****     };
  55:../../libDaisy//src/per/qspi.h **** 
  56:../../libDaisy//src/per/qspi.h ****     /** Configuration structure for interfacing with QSPI Driver */
  57:../../libDaisy//src/per/qspi.h ****     struct Config
  58:../../libDaisy//src/per/qspi.h ****     {
  59:../../libDaisy//src/per/qspi.h ****         /** Flash Devices supported. (Both of these are more-or-less the same, just different sizes
  60:../../libDaisy//src/per/qspi.h ****         enum Device
  61:../../libDaisy//src/per/qspi.h ****         {
  62:../../libDaisy//src/per/qspi.h ****             IS25LP080D,  /**< & */
  63:../../libDaisy//src/per/qspi.h ****             IS25LP064A,  /**< & */
  64:../../libDaisy//src/per/qspi.h ****             DEVICE_LAST, /**< & */
  65:../../libDaisy//src/per/qspi.h ****         };
  66:../../libDaisy//src/per/qspi.h **** 
  67:../../libDaisy//src/per/qspi.h ****         /** 
  68:../../libDaisy//src/per/qspi.h ****         Modes of operation.
  69:../../libDaisy//src/per/qspi.h ****         Memory Mapped mode: QSPI configured so that the QSPI can be
  70:../../libDaisy//src/per/qspi.h ****         read from starting address 0x90000000. Writing is not
  71:../../libDaisy//src/per/qspi.h ****         possible in this mode. \n 
  72:../../libDaisy//src/per/qspi.h ****         Indirect Polling mode: Device driver enabled. 
  73:../../libDaisy//src/per/qspi.h ****         */
  74:../../libDaisy//src/per/qspi.h ****         enum Mode
  75:../../libDaisy//src/per/qspi.h ****         {
  76:../../libDaisy//src/per/qspi.h ****             MEMORY_MAPPED,    /**< & */
  77:../../libDaisy//src/per/qspi.h ****             INDIRECT_POLLING, /**< & */
  78:../../libDaisy//src/per/qspi.h ****             MODE_LAST,
  79:../../libDaisy//src/per/qspi.h ****         };
  80:../../libDaisy//src/per/qspi.h **** 
  81:../../libDaisy//src/per/qspi.h ****         //SCK,  CE# (active low)
  82:../../libDaisy//src/per/qspi.h ****         struct
  83:../../libDaisy//src/per/qspi.h ****         {
  84:../../libDaisy//src/per/qspi.h ****             dsy_gpio_pin io0; /**< & */
  85:../../libDaisy//src/per/qspi.h ****             dsy_gpio_pin io1; /**< & */
  86:../../libDaisy//src/per/qspi.h ****             dsy_gpio_pin io2; /**< & */
  87:../../libDaisy//src/per/qspi.h ****             dsy_gpio_pin io3; /**< & */
  88:../../libDaisy//src/per/qspi.h ****             dsy_gpio_pin clk; /**< & */
  89:../../libDaisy//src/per/qspi.h ****             dsy_gpio_pin ncs; /**< & */
  90:../../libDaisy//src/per/qspi.h ****         } pin_config;
  91:../../libDaisy//src/per/qspi.h **** 
  92:../../libDaisy//src/per/qspi.h ****         Device device;
  93:../../libDaisy//src/per/qspi.h ****         Mode   mode;
  94:../../libDaisy//src/per/qspi.h ****     };
  95:../../libDaisy//src/per/qspi.h **** 
  96:../../libDaisy//src/per/qspi.h ****     /** 
  97:../../libDaisy//src/per/qspi.h ****         Initializes QSPI peripheral, and Resets, and prepares memory for access.
  98:../../libDaisy//src/per/qspi.h ****         \param config should be populated with the mode, device and pin_config before calling this 
  99:../../libDaisy//src/per/qspi.h ****         \return Result::OK or Result::ERR
 100:../../libDaisy//src/per/qspi.h ****         */
 101:../../libDaisy//src/per/qspi.h ****     Result Init(const Config& config);
 102:../../libDaisy//src/per/qspi.h **** 
 103:../../libDaisy//src/per/qspi.h ****     /** Returns the current config. */
 104:../../libDaisy//src/per/qspi.h ****     const Config& GetConfig() const;
 105:../../libDaisy//src/per/qspi.h **** 
 106:../../libDaisy//src/per/qspi.h ****     // Couldn't this just be called before anything else in init? That
ARM GAS  /var/folders/ky/97y1n_614tj15gjp3pmt3wd00000gn/T//ccpV02iO.s 			page 46


 107:../../libDaisy//src/per/qspi.h ****     // would make manually calling it unnecessary.
 108:../../libDaisy//src/per/qspi.h ****     /** 
 109:../../libDaisy//src/per/qspi.h ****         Deinitializes the peripheral
 110:../../libDaisy//src/per/qspi.h ****         This should be called before reinitializing QSPI in a different mode.
 111:../../libDaisy//src/per/qspi.h ****         \return Result::OK or Result::ERR
 112:../../libDaisy//src/per/qspi.h ****         */
 113:../../libDaisy//src/per/qspi.h ****     Result DeInit();
 114:../../libDaisy//src/per/qspi.h **** 
 115:../../libDaisy//src/per/qspi.h ****     /** 
 116:../../libDaisy//src/per/qspi.h ****         Writes a single page to to the specified address on the QSPI chip.
 117:../../libDaisy//src/per/qspi.h ****         For IS25LP*, page size is 256 bytes.
 118:../../libDaisy//src/per/qspi.h ****         \param address Address to write to
 119:../../libDaisy//src/per/qspi.h ****         \param size Buffer size
 120:../../libDaisy//src/per/qspi.h ****         \param buffer Buffer to write
 121:../../libDaisy//src/per/qspi.h ****         \return Result::OK or Result::ERR
 122:../../libDaisy//src/per/qspi.h ****         */
 123:../../libDaisy//src/per/qspi.h ****     Result WritePage(uint32_t address, uint32_t size, uint8_t* buffer);
 124:../../libDaisy//src/per/qspi.h **** 
 125:../../libDaisy//src/per/qspi.h ****     /** 
 126:../../libDaisy//src/per/qspi.h ****         Writes data in buffer to to the QSPI. Starting at address to address+size 
 127:../../libDaisy//src/per/qspi.h ****         \param address Address to write to
 128:../../libDaisy//src/per/qspi.h ****         \param size Buffer size
 129:../../libDaisy//src/per/qspi.h ****         \param buffer Buffer to write
 130:../../libDaisy//src/per/qspi.h ****         \return Result::OK or Result::ERR
 131:../../libDaisy//src/per/qspi.h ****         */
 132:../../libDaisy//src/per/qspi.h ****     Result Write(uint32_t address, uint32_t size, uint8_t* buffer);
 133:../../libDaisy//src/per/qspi.h **** 
 134:../../libDaisy//src/per/qspi.h ****     /** 
 135:../../libDaisy//src/per/qspi.h ****         Erases the area specified on the chip.
 136:../../libDaisy//src/per/qspi.h ****         Erasures will happen by 4K, 32K or 64K increments.
 137:../../libDaisy//src/per/qspi.h ****         Smallest erase possible is 4kB at a time. (on IS25LP*)
 138:../../libDaisy//src/per/qspi.h ****         \param start_addr Address to begin erasing from
 139:../../libDaisy//src/per/qspi.h ****         \param end_addr  Address to stop erasing at
 140:../../libDaisy//src/per/qspi.h ****         \return Result::OK or Result::ERR
 141:../../libDaisy//src/per/qspi.h ****         */
 142:../../libDaisy//src/per/qspi.h ****     Result Erase(uint32_t start_addr, uint32_t end_addr);
 143:../../libDaisy//src/per/qspi.h **** 
 144:../../libDaisy//src/per/qspi.h ****     /**  
 145:../../libDaisy//src/per/qspi.h ****          Erases a single sector of the chip.  
 146:../../libDaisy//src/per/qspi.h ****         TODO: Document the size of this function. 
 147:../../libDaisy//src/per/qspi.h ****         \param address Address of sector to erase
 148:../../libDaisy//src/per/qspi.h ****         \return Result::OK or Result::ERR
 149:../../libDaisy//src/per/qspi.h ****         */
 150:../../libDaisy//src/per/qspi.h ****     Result EraseSector(uint32_t address);
 151:../../libDaisy//src/per/qspi.h **** 
 152:../../libDaisy//src/per/qspi.h ****     /** Returns the current class status. Useful for debugging.
 153:../../libDaisy//src/per/qspi.h ****      *  \returns Status
 154:../../libDaisy//src/per/qspi.h ****      */
 155:../../libDaisy//src/per/qspi.h ****     Status GetStatus();
 156:../../libDaisy//src/per/qspi.h **** 
 157:../../libDaisy//src/per/qspi.h ****     /** Returns a pointer to the actual memory used 
 158:../../libDaisy//src/per/qspi.h ****      *  The memory at this address is read-only
 159:../../libDaisy//src/per/qspi.h ****      *  to write to it use the Write function.
 160:../../libDaisy//src/per/qspi.h ****      * 
 161:../../libDaisy//src/per/qspi.h ****      *  \param offset returns the pointer starting this 
 162:../../libDaisy//src/per/qspi.h ****      *                many bytes into the memory
 163:../../libDaisy//src/per/qspi.h ****     */
ARM GAS  /var/folders/ky/97y1n_614tj15gjp3pmt3wd00000gn/T//ccpV02iO.s 			page 47


 164:../../libDaisy//src/per/qspi.h ****     void* GetData(uint32_t offset = 0);
 165:../../libDaisy//src/per/qspi.h **** 
 166:../../libDaisy//src/per/qspi.h ****     QSPIHandle() : pimpl_(nullptr) {}
 1312              		.loc 14 166 5 view .LVU371
 1313              	.LBB461:
 1314              	.LBB462:
 1315              		.loc 14 166 34 is_stmt 0 view .LVU372
 1316 0000 1348     		ldr	r0, .L48
 1317 0002 0022     		movs	r2, #0
 1318              	.LBE462:
 1319              	.LBE461:
 1320              	.LBE460:
 1321              	.LBE459:
 1322              	.LBE458:
 1323              	.LBB478:
 1324              	.LBB479:
 1325              	.LBB480:
 1326              	.LBB481:
 1327              	.LBB482:
 1328              	.LBB483:
 1329              	.LBB484:
  37:../../libDaisy//src/hid/midi.h ****             tx     = {DSY_GPIOB, 6};
 1330              		.loc 2 37 20 view .LVU373
 1331 0004 1349     		ldr	r1, .L48+4
  36:../../libDaisy//src/hid/midi.h ****             rx     = {DSY_GPIOB, 7};
 1332              		.loc 2 36 20 view .LVU374
 1333 0006 00F51043 		add	r3, r0, #36864
  38:../../libDaisy//src/hid/midi.h ****         }
 1334              		.loc 2 38 20 view .LVU375
 1335 000a B1F804C0 		ldrh	ip, [r1, #4]
 1336              	.LBE484:
 1337              	.LBE483:
 1338              	.LBE482:
 1339              	.LBE481:
 1340              	.LBE480:
 1341              	.LBE479:
 1342              	.LBE478:
 1343              	.LBE457:
 1344              	.LBE456:
 1345              	.LBE455:
 1346              	.LBE454:
 1347              		.loc 13 217 1 view .LVU376
 1348 000e 00B5     		push	{lr}
 1349              		.cfi_def_cfa_offset 4
 1350              		.cfi_offset 14, -4
 1351              	.LBB539:
 1352              	.LBB537:
 1353              	.LBB536:
 1354              	.LBB535:
 1355              	.LBB513:
 1356              	.LBB510:
 1357              	.LBB507:
 1358              	.LBB494:
 1359              	.LBB491:
 1360              	.LBB488:
 1361              	.LBB485:
  37:../../libDaisy//src/hid/midi.h ****             tx     = {DSY_GPIOB, 6};
ARM GAS  /var/folders/ky/97y1n_614tj15gjp3pmt3wd00000gn/T//ccpV02iO.s 			page 48


 1362              		.loc 2 37 20 view .LVU377
 1363 0010 B1F800E0 		ldrh	lr, [r1]
 1364              	.LBE485:
 1365              	.LBE488:
 1366              	.LBE491:
 1367              	.LBE494:
 1368              	.LBE507:
 1369              	.LBE510:
 1370              	.LBE513:
 1371              	.LBB514:
 1372              	.LBB476:
 1373              	.LBB465:
 1374              	.LBB464:
 1375              	.LBB463:
 1376              		.loc 14 166 34 view .LVU378
 1377 0014 0260     		str	r2, [r0]
 1378              	.LVL95:
 1379              		.loc 14 166 34 view .LVU379
 1380              	.LBE463:
 1381              	.LBE464:
 1382              	.LBE465:
 1383              	.LBB466:
 1384              	.LBI466:
  95:../../libDaisy//src/hid/audio.h ****     ~AudioHandle() {}
 1385              		.loc 12 95 5 is_stmt 1 view .LVU380
 1386              	.LBE466:
 1387              	.LBE476:
 1388              	.LBE514:
 1389              	.LBB515:
 1390              	.LBB511:
 1391              	.LBB508:
  84:../../libDaisy//src/hid/midi.h ****     ~MidiHandler() {}
 1392              		.loc 2 84 19 is_stmt 0 view .LVU381
 1393 0016 1049     		ldr	r1, .L48+8
 1394              	.LBE508:
 1395              	.LBE511:
 1396              	.LBE515:
 1397              	.LBB516:
 1398              	.LBB477:
 1399              	.LBB469:
 1400              	.LBB467:
 1401              	.LBB468:
  95:../../libDaisy//src/hid/audio.h ****     ~AudioHandle() {}
 1402              		.loc 12 95 35 view .LVU382
 1403 0018 4261     		str	r2, [r0, #20]
 1404              	.LVL96:
  95:../../libDaisy//src/hid/audio.h ****     ~AudioHandle() {}
 1405              		.loc 12 95 35 view .LVU383
 1406              	.LBE468:
 1407              	.LBE467:
 1408              	.LBE469:
 1409              	.LBB470:
 1410              	.LBI470:
  92:../../libDaisy//src/per/adc.h ****     ~AdcHandle() {}
 1411              		.loc 11 92 5 is_stmt 1 view .LVU384
  92:../../libDaisy//src/per/adc.h ****     ~AdcHandle() {}
 1412              		.loc 11 92 5 is_stmt 0 view .LVU385
ARM GAS  /var/folders/ky/97y1n_614tj15gjp3pmt3wd00000gn/T//ccpV02iO.s 			page 49


 1413              	.LBE470:
 1414              	.LBB471:
 1415              	.LBI471:
 1416              		.file 15 "../../libDaisy//src/per/dac.h"
   1:../../libDaisy//src/per/dac.h **** #pragma once
   2:../../libDaisy//src/per/dac.h **** #ifndef DSY_DAC_H
   3:../../libDaisy//src/per/dac.h **** #define DSY_DAC_H
   4:../../libDaisy//src/per/dac.h **** 
   5:../../libDaisy//src/per/dac.h **** #include "daisy_core.h"
   6:../../libDaisy//src/per/dac.h **** 
   7:../../libDaisy//src/per/dac.h **** namespace daisy
   8:../../libDaisy//src/per/dac.h **** {
   9:../../libDaisy//src/per/dac.h **** /** @brief DAC handle for Built-in DAC Peripheral 
  10:../../libDaisy//src/per/dac.h ****  *  @ingroup per_analog
  11:../../libDaisy//src/per/dac.h ****  ** 
  12:../../libDaisy//src/per/dac.h ****  ** For now only Normal Mode is supported,
  13:../../libDaisy//src/per/dac.h ****  ** Sample and hold mode provides reduced power consumption, but requires a bit more setup.
  14:../../libDaisy//src/per/dac.h ****  **
  15:../../libDaisy//src/per/dac.h ****  ** For now connecting the DAC through other internal peripherals is also not supported.
  16:../../libDaisy//src/per/dac.h ****  **
  17:../../libDaisy//src/per/dac.h ****  ** Since the DAC channels have dedicated pins we don't need to pass in a pin config like with
  18:../../libDaisy//src/per/dac.h ****  ** other modules. However, it is still important to not try to use the DAC pins for anything else.
  19:../../libDaisy//src/per/dac.h ****  ** DAC Channel 1 is on PA4, and DAC Channel 2 is on PA5
  20:../../libDaisy//src/per/dac.h ****  ***/
  21:../../libDaisy//src/per/dac.h **** class DacHandle
  22:../../libDaisy//src/per/dac.h **** {
  23:../../libDaisy//src/per/dac.h ****   public:
  24:../../libDaisy//src/per/dac.h ****     /** Return Values for the DacHandle class */
  25:../../libDaisy//src/per/dac.h ****     enum class Result
  26:../../libDaisy//src/per/dac.h ****     {
  27:../../libDaisy//src/per/dac.h ****         OK,
  28:../../libDaisy//src/per/dac.h ****         ERR,
  29:../../libDaisy//src/per/dac.h ****     };
  30:../../libDaisy//src/per/dac.h **** 
  31:../../libDaisy//src/per/dac.h ****     /** Selects which channel(s) will be configured for use. */
  32:../../libDaisy//src/per/dac.h ****     enum class Channel
  33:../../libDaisy//src/per/dac.h ****     {
  34:../../libDaisy//src/per/dac.h ****         ONE,
  35:../../libDaisy//src/per/dac.h ****         TWO,
  36:../../libDaisy//src/per/dac.h ****         BOTH,
  37:../../libDaisy//src/per/dac.h ****     };
  38:../../libDaisy//src/per/dac.h **** 
  39:../../libDaisy//src/per/dac.h ****     /** Sets the Mode for the DAC channels.
  40:../../libDaisy//src/per/dac.h ****      **
  41:../../libDaisy//src/per/dac.h ****      ** Polling mode uses the blocking mode to transmit a single value at a time.
  42:../../libDaisy//src/per/dac.h ****      **
  43:../../libDaisy//src/per/dac.h ****      ** DMA mode uses a buffer, and periodically transmits it triggering a 
  44:../../libDaisy//src/per/dac.h ****      ** callback to fill the buffer when it is ready for more samples.
  45:../../libDaisy//src/per/dac.h ****      ***/
  46:../../libDaisy//src/per/dac.h ****     enum class Mode
  47:../../libDaisy//src/per/dac.h ****     {
  48:../../libDaisy//src/per/dac.h ****         POLLING,
  49:../../libDaisy//src/per/dac.h ****         DMA,
  50:../../libDaisy//src/per/dac.h ****     };
  51:../../libDaisy//src/per/dac.h **** 
  52:../../libDaisy//src/per/dac.h ****     /** Sets the number of bits per sample transmitted out of the DAC.
  53:../../libDaisy//src/per/dac.h ****      ** The output range will be: 0V - VDDA
ARM GAS  /var/folders/ky/97y1n_614tj15gjp3pmt3wd00000gn/T//ccpV02iO.s 			page 50


  54:../../libDaisy//src/per/dac.h ****      ** The resolution will be roughly: bitdepth / (VDDA - 0V) 
  55:../../libDaisy//src/per/dac.h ****      ***/
  56:../../libDaisy//src/per/dac.h ****     enum class BitDepth
  57:../../libDaisy//src/per/dac.h ****     {
  58:../../libDaisy//src/per/dac.h ****         BITS_8,
  59:../../libDaisy//src/per/dac.h ****         BITS_12
  60:../../libDaisy//src/per/dac.h ****     };
  61:../../libDaisy//src/per/dac.h **** 
  62:../../libDaisy//src/per/dac.h ****     /** Sets whether the DAC output is buffered for higher drive ability. */
  63:../../libDaisy//src/per/dac.h ****     enum class BufferState
  64:../../libDaisy//src/per/dac.h ****     {
  65:../../libDaisy//src/per/dac.h ****         ENABLED,
  66:../../libDaisy//src/per/dac.h ****         DISABLED,
  67:../../libDaisy//src/per/dac.h ****     };
  68:../../libDaisy//src/per/dac.h **** 
  69:../../libDaisy//src/per/dac.h ****     /** Configuration structure for initializing the DAC structure. */
  70:../../libDaisy//src/per/dac.h ****     struct Config
  71:../../libDaisy//src/per/dac.h ****     {
  72:../../libDaisy//src/per/dac.h ****         /** Target Samplerate in Hz used to configure the internal 
  73:../../libDaisy//src/per/dac.h ****          ** timebase for DMA mode. Does nothing in POLLING mode.
  74:../../libDaisy//src/per/dac.h ****          ** If the value is 0 at Init time this will default to 48000Hz 
  75:../../libDaisy//src/per/dac.h ****          ** otherwise the driver will attempt meet the target.*/
  76:../../libDaisy//src/per/dac.h ****         uint32_t target_samplerate;
  77:../../libDaisy//src/per/dac.h **** 
  78:../../libDaisy//src/per/dac.h ****         Channel     chn;
  79:../../libDaisy//src/per/dac.h ****         Mode        mode;
  80:../../libDaisy//src/per/dac.h ****         BitDepth    bitdepth;
  81:../../libDaisy//src/per/dac.h ****         BufferState buff_state;
  82:../../libDaisy//src/per/dac.h ****     };
  83:../../libDaisy//src/per/dac.h **** 
  84:../../libDaisy//src/per/dac.h ****     DacHandle() : pimpl_(nullptr) {}
 1417              		.loc 15 84 5 is_stmt 1 view .LVU386
 1418              	.LBB472:
 1419              	.LBB473:
 1420              		.loc 15 84 33 is_stmt 0 view .LVU387
 1421 001a 0262     		str	r2, [r0, #32]
 1422              	.LVL97:
 1423              		.loc 15 84 33 view .LVU388
 1424              	.LBE473:
 1425              	.LBE472:
 1426              	.LBE471:
 1427              	.LBB474:
 1428              	.LBI474:
  40:../../libDaisy//src/hid/usb.h **** 
 1429              		.loc 10 40 5 is_stmt 1 view .LVU389
  40:../../libDaisy//src/hid/usb.h **** 
 1430              		.loc 10 40 5 is_stmt 0 view .LVU390
 1431              	.LBE474:
 1432              	.LBB475:
 1433              	.LBI475:
  77:../../libDaisy//src/sys/system.h ****     ~System() {}
 1434              		.loc 9 77 5 is_stmt 1 view .LVU391
  77:../../libDaisy//src/sys/system.h ****     ~System() {}
 1435              		.loc 9 77 5 is_stmt 0 view .LVU392
 1436              	.LBE475:
 1437              	.LBE477:
 1438              	.LBE516:
ARM GAS  /var/folders/ky/97y1n_614tj15gjp3pmt3wd00000gn/T//ccpV02iO.s 			page 51


 1439              	.LBB517:
 1440              	.LBI517:
  20:../../libDaisy//src/hid/encoder.h ****     ~Encoder() {}
 1441              		.loc 7 20 5 is_stmt 1 view .LVU393
 1442              	.LBB518:
 1443              	.LBB519:
 1444              	.LBI519:
  41:../../libDaisy//src/hid/switch.h ****     ~Switch() {}
 1445              		.loc 5 41 5 view .LVU394
  41:../../libDaisy//src/hid/switch.h ****     ~Switch() {}
 1446              		.loc 5 41 5 is_stmt 0 view .LVU395
 1447              	.LBE519:
 1448              	.LBE518:
 1449              	.LBE517:
 1450              	.LBB520:
 1451              	.LBI520:
  21:../../libDaisy//src/hid/ctrl.h ****     /** destructor */
 1452              		.loc 6 21 5 is_stmt 1 view .LVU396
  21:../../libDaisy//src/hid/ctrl.h ****     /** destructor */
 1453              		.loc 6 21 5 is_stmt 0 view .LVU397
 1454              	.LBE520:
 1455              	.LBB521:
 1456              	.LBI521:
  21:../../libDaisy//src/hid/ctrl.h ****     /** destructor */
 1457              		.loc 6 21 5 is_stmt 1 view .LVU398
  21:../../libDaisy//src/hid/ctrl.h ****     /** destructor */
 1458              		.loc 6 21 5 is_stmt 0 view .LVU399
 1459              	.LBE521:
 1460              	.LBB522:
 1461              	.LBI522:
  41:../../libDaisy//src/hid/switch.h ****     ~Switch() {}
 1462              		.loc 5 41 5 is_stmt 1 view .LVU400
  41:../../libDaisy//src/hid/switch.h ****     ~Switch() {}
 1463              		.loc 5 41 5 is_stmt 0 view .LVU401
 1464              	.LBE522:
 1465              	.LBB523:
 1466              	.LBI523:
  41:../../libDaisy//src/hid/switch.h ****     ~Switch() {}
 1467              		.loc 5 41 5 is_stmt 1 view .LVU402
  41:../../libDaisy//src/hid/switch.h ****     ~Switch() {}
 1468              		.loc 5 41 5 is_stmt 0 view .LVU403
 1469              	.LBE523:
 1470              	.LBB524:
 1471              	.LBI524:
  17:../../libDaisy//src/hid/rgb_led.h ****     ~RgbLed() {}
 1472              		.loc 3 17 5 is_stmt 1 view .LVU404
 1473              	.LBB525:
 1474              	.LBB526:
 1475              	.LBI526:
  24:../../libDaisy//src/hid/led.h ****     ~Led() {}
 1476              		.loc 4 24 5 view .LVU405
  24:../../libDaisy//src/hid/led.h ****     ~Led() {}
 1477              		.loc 4 24 5 is_stmt 0 view .LVU406
 1478              	.LBE526:
 1479              	.LBB527:
 1480              	.LBI527:
  24:../../libDaisy//src/hid/led.h ****     ~Led() {}
ARM GAS  /var/folders/ky/97y1n_614tj15gjp3pmt3wd00000gn/T//ccpV02iO.s 			page 52


 1481              		.loc 4 24 5 is_stmt 1 view .LVU407
  24:../../libDaisy//src/hid/led.h ****     ~Led() {}
 1482              		.loc 4 24 5 is_stmt 0 view .LVU408
 1483              	.LBE527:
 1484              	.LBB528:
 1485              	.LBI528:
  24:../../libDaisy//src/hid/led.h ****     ~Led() {}
 1486              		.loc 4 24 5 is_stmt 1 view .LVU409
  24:../../libDaisy//src/hid/led.h ****     ~Led() {}
 1487              		.loc 4 24 5 is_stmt 0 view .LVU410
 1488              	.LBE528:
 1489              	.LBE525:
 1490              	.LBE524:
 1491              	.LBB529:
 1492              	.LBI529:
  17:../../libDaisy//src/hid/rgb_led.h ****     ~RgbLed() {}
 1493              		.loc 3 17 5 is_stmt 1 view .LVU411
 1494              	.LBB530:
 1495              	.LBB531:
 1496              	.LBI531:
  24:../../libDaisy//src/hid/led.h ****     ~Led() {}
 1497              		.loc 4 24 5 view .LVU412
  24:../../libDaisy//src/hid/led.h ****     ~Led() {}
 1498              		.loc 4 24 5 is_stmt 0 view .LVU413
 1499              	.LBE531:
 1500              	.LBB532:
 1501              	.LBI532:
  24:../../libDaisy//src/hid/led.h ****     ~Led() {}
 1502              		.loc 4 24 5 is_stmt 1 view .LVU414
  24:../../libDaisy//src/hid/led.h ****     ~Led() {}
 1503              		.loc 4 24 5 is_stmt 0 view .LVU415
 1504              	.LBE532:
 1505              	.LBB533:
 1506              	.LBI533:
  24:../../libDaisy//src/hid/led.h ****     ~Led() {}
 1507              		.loc 4 24 5 is_stmt 1 view .LVU416
  24:../../libDaisy//src/hid/led.h ****     ~Led() {}
 1508              		.loc 4 24 5 is_stmt 0 view .LVU417
 1509              	.LBE533:
 1510              	.LBE530:
 1511              	.LBE529:
 1512              	.LBB534:
 1513              	.LBI478:
  84:../../libDaisy//src/hid/midi.h ****     ~MidiHandler() {}
 1514              		.loc 2 84 5 is_stmt 1 view .LVU418
 1515              	.LBB512:
 1516              	.LBB509:
 1517              	.LBB495:
 1518              	.LBI495:
 1519              		.file 16 "../../libDaisy//src/per/uart.h"
   1:../../libDaisy//src/per/uart.h **** /* 
   2:../../libDaisy//src/per/uart.h **** TODO
   3:../../libDaisy//src/per/uart.h **** - UART1 defaults to DMA, add flexible config for DMA on all periphs
   4:../../libDaisy//src/per/uart.h **** - Transmit function improvements.
   5:../../libDaisy//src/per/uart.h **** - Overflow handling, etc. for Rx Queue.
   6:../../libDaisy//src/per/uart.h **** */
   7:../../libDaisy//src/per/uart.h **** 
ARM GAS  /var/folders/ky/97y1n_614tj15gjp3pmt3wd00000gn/T//ccpV02iO.s 			page 53


   8:../../libDaisy//src/per/uart.h **** #pragma once
   9:../../libDaisy//src/per/uart.h **** #ifndef DSY_UART_H
  10:../../libDaisy//src/per/uart.h **** #define DSY_UART_H /**< macro */
  11:../../libDaisy//src/per/uart.h **** #include "daisy_core.h"
  12:../../libDaisy//src/per/uart.h **** 
  13:../../libDaisy//src/per/uart.h **** 
  14:../../libDaisy//src/per/uart.h **** namespace daisy
  15:../../libDaisy//src/per/uart.h **** {
  16:../../libDaisy//src/per/uart.h **** /** @addtogroup serial
  17:../../libDaisy//src/per/uart.h ****     @{
  18:../../libDaisy//src/per/uart.h ****     */
  19:../../libDaisy//src/per/uart.h **** 
  20:../../libDaisy//src/per/uart.h **** /** 
  21:../../libDaisy//src/per/uart.h ****     Uart Peripheral
  22:../../libDaisy//src/per/uart.h ****     @author shensley
  23:../../libDaisy//src/per/uart.h ****     @date March 2020
  24:../../libDaisy//src/per/uart.h ****     */
  25:../../libDaisy//src/per/uart.h **** class UartHandler
  26:../../libDaisy//src/per/uart.h **** {
  27:../../libDaisy//src/per/uart.h ****   public:
  28:../../libDaisy//src/per/uart.h ****     struct Config
  29:../../libDaisy//src/per/uart.h ****     {
  30:../../libDaisy//src/per/uart.h ****         enum class Peripheral
  31:../../libDaisy//src/per/uart.h ****         {
  32:../../libDaisy//src/per/uart.h ****             USART_1,
  33:../../libDaisy//src/per/uart.h ****             USART_2,
  34:../../libDaisy//src/per/uart.h ****             USART_3,
  35:../../libDaisy//src/per/uart.h ****             UART_4,
  36:../../libDaisy//src/per/uart.h ****             UART_5,
  37:../../libDaisy//src/per/uart.h ****             USART_6,
  38:../../libDaisy//src/per/uart.h ****             UART_7,
  39:../../libDaisy//src/per/uart.h ****             UART_8,
  40:../../libDaisy//src/per/uart.h ****             LPUART_1,
  41:../../libDaisy//src/per/uart.h ****         };
  42:../../libDaisy//src/per/uart.h **** 
  43:../../libDaisy//src/per/uart.h ****         enum class StopBits
  44:../../libDaisy//src/per/uart.h ****         {
  45:../../libDaisy//src/per/uart.h ****             BITS_0_5,
  46:../../libDaisy//src/per/uart.h ****             BITS_1,
  47:../../libDaisy//src/per/uart.h ****             BITS_1_5,
  48:../../libDaisy//src/per/uart.h ****             BITS_2,
  49:../../libDaisy//src/per/uart.h ****         };
  50:../../libDaisy//src/per/uart.h **** 
  51:../../libDaisy//src/per/uart.h ****         enum class Parity
  52:../../libDaisy//src/per/uart.h ****         {
  53:../../libDaisy//src/per/uart.h ****             NONE,
  54:../../libDaisy//src/per/uart.h ****             EVEN,
  55:../../libDaisy//src/per/uart.h ****             ODD,
  56:../../libDaisy//src/per/uart.h ****         };
  57:../../libDaisy//src/per/uart.h **** 
  58:../../libDaisy//src/per/uart.h ****         enum class Mode
  59:../../libDaisy//src/per/uart.h ****         {
  60:../../libDaisy//src/per/uart.h ****             RX,
  61:../../libDaisy//src/per/uart.h ****             TX,
  62:../../libDaisy//src/per/uart.h ****             TX_RX,
  63:../../libDaisy//src/per/uart.h ****         };
  64:../../libDaisy//src/per/uart.h **** 
ARM GAS  /var/folders/ky/97y1n_614tj15gjp3pmt3wd00000gn/T//ccpV02iO.s 			page 54


  65:../../libDaisy//src/per/uart.h ****         enum class WordLength
  66:../../libDaisy//src/per/uart.h ****         {
  67:../../libDaisy//src/per/uart.h ****             BITS_7,
  68:../../libDaisy//src/per/uart.h ****             BITS_8,
  69:../../libDaisy//src/per/uart.h ****             BITS_9,
  70:../../libDaisy//src/per/uart.h ****         };
  71:../../libDaisy//src/per/uart.h **** 
  72:../../libDaisy//src/per/uart.h ****         struct
  73:../../libDaisy//src/per/uart.h ****         {
  74:../../libDaisy//src/per/uart.h ****             dsy_gpio_pin tx; /**< & */
  75:../../libDaisy//src/per/uart.h ****             dsy_gpio_pin rx; /**< & */
  76:../../libDaisy//src/per/uart.h ****         } pin_config;        /**< & */
  77:../../libDaisy//src/per/uart.h **** 
  78:../../libDaisy//src/per/uart.h ****         Config()
  79:../../libDaisy//src/per/uart.h ****         {
  80:../../libDaisy//src/per/uart.h ****             // user must init periph, pin_config, and mode
  81:../../libDaisy//src/per/uart.h ****             stopbits   = StopBits::BITS_1;
  82:../../libDaisy//src/per/uart.h ****             parity     = Parity::NONE;
  83:../../libDaisy//src/per/uart.h ****             wordlength = WordLength::BITS_8;
  84:../../libDaisy//src/per/uart.h ****             baudrate   = 4800;
  85:../../libDaisy//src/per/uart.h ****             // baudrate   = 31250;
  86:../../libDaisy//src/per/uart.h ****         }
  87:../../libDaisy//src/per/uart.h **** 
  88:../../libDaisy//src/per/uart.h ****         Peripheral periph;
  89:../../libDaisy//src/per/uart.h ****         StopBits   stopbits;
  90:../../libDaisy//src/per/uart.h ****         Parity     parity;
  91:../../libDaisy//src/per/uart.h ****         Mode       mode;
  92:../../libDaisy//src/per/uart.h ****         WordLength wordlength;
  93:../../libDaisy//src/per/uart.h ****         uint32_t   baudrate;
  94:../../libDaisy//src/per/uart.h ****     };
  95:../../libDaisy//src/per/uart.h **** 
  96:../../libDaisy//src/per/uart.h **** 
  97:../../libDaisy//src/per/uart.h ****     UartHandler() : pimpl_(nullptr) {}
 1520              		.loc 16 97 5 view .LVU419
 1521              	.LBB496:
 1522              	.LBB497:
 1523              		.loc 16 97 35 is_stmt 0 view .LVU420
 1524 001c C0F87C21 		str	r2, [r0, #380]
 1525              	.LVL98:
 1526              		.loc 16 97 35 view .LVU421
 1527              	.LBE497:
 1528              	.LBE496:
 1529              	.LBE495:
 1530              	.LBB498:
 1531              	.LBI498:
 1532              		.file 17 "../../libDaisy//src/util/ringbuffer.h"
   1:../../libDaisy//src/util/ringbuffer.h **** #pragma once
   2:../../libDaisy//src/util/ringbuffer.h **** #ifndef DSY_RINGBUFFER_H
   3:../../libDaisy//src/util/ringbuffer.h **** #define DSY_RINGBUFFER_H
   4:../../libDaisy//src/util/ringbuffer.h **** 
   5:../../libDaisy//src/util/ringbuffer.h **** #include <algorithm>
   6:../../libDaisy//src/util/ringbuffer.h **** 
   7:../../libDaisy//src/util/ringbuffer.h **** namespace daisy
   8:../../libDaisy//src/util/ringbuffer.h **** {
   9:../../libDaisy//src/util/ringbuffer.h **** /** @addtogroup utility
  10:../../libDaisy//src/util/ringbuffer.h ****     @{
  11:../../libDaisy//src/util/ringbuffer.h **** */
ARM GAS  /var/folders/ky/97y1n_614tj15gjp3pmt3wd00000gn/T//ccpV02iO.s 			page 55


  12:../../libDaisy//src/util/ringbuffer.h **** 
  13:../../libDaisy//src/util/ringbuffer.h **** /**
  14:../../libDaisy//src/util/ringbuffer.h **** Utility Ring Buffer \n 
  15:../../libDaisy//src/util/ringbuffer.h **** imported from pichenettes/stmlib
  16:../../libDaisy//src/util/ringbuffer.h **** */
  17:../../libDaisy//src/util/ringbuffer.h **** template <typename T, size_t size>
  18:../../libDaisy//src/util/ringbuffer.h **** class RingBuffer
  19:../../libDaisy//src/util/ringbuffer.h **** {
  20:../../libDaisy//src/util/ringbuffer.h ****   public:
  21:../../libDaisy//src/util/ringbuffer.h ****     RingBuffer() {}
 1533              		.loc 17 21 5 is_stmt 1 view .LVU422
 1534              		.loc 17 21 5 is_stmt 0 view .LVU423
 1535              	.LBE498:
 1536              	.LBB499:
 1537              	.LBI481:
  86:../../libDaisy//src/hid/midi.h **** 
  87:../../libDaisy//src/hid/midi.h ****     struct Config
 1538              		.loc 2 87 12 is_stmt 1 view .LVU424
 1539              	.LBB492:
 1540              	.LBI482:
  34:../../libDaisy//src/hid/midi.h ****         {
 1541              		.loc 2 34 9 view .LVU425
 1542              	.LBB489:
 1543              	.LBB486:
  36:../../libDaisy//src/hid/midi.h ****             rx     = {DSY_GPIOB, 7};
 1544              		.loc 2 36 13 view .LVU426
  36:../../libDaisy//src/hid/midi.h ****             rx     = {DSY_GPIOB, 7};
 1545              		.loc 2 36 20 is_stmt 0 view .LVU427
 1546 0020 C3F82422 		str	r2, [r3, #548]
  37:../../libDaisy//src/hid/midi.h ****             tx     = {DSY_GPIOB, 6};
 1547              		.loc 2 37 13 is_stmt 1 view .LVU428
  38:../../libDaisy//src/hid/midi.h ****         }
 1548              		.loc 2 38 20 is_stmt 0 view .LVU429
 1549 0024 A3F82AC2 		strh	ip, [r3, #554]	@ movhi
 1550              	.LBE486:
 1551              	.LBE489:
 1552              	.LBE492:
 1553              	.LBE499:
  84:../../libDaisy//src/hid/midi.h ****     ~MidiHandler() {}
 1554              		.loc 2 84 19 view .LVU430
 1555 0028 4FF0070C 		mov	ip, #7
 1556              	.LBB500:
 1557              	.LBB501:
 1558              	.LBB502:
 1559              	.LBB503:
 1560              		.loc 16 97 35 view .LVU431
 1561 002c C3F82C22 		str	r2, [r3, #556]
 1562              	.LBE503:
 1563              	.LBE502:
 1564              	.LBE501:
 1565              	.LBE500:
  84:../../libDaisy//src/hid/midi.h ****     ~MidiHandler() {}
 1566              		.loc 2 84 19 view .LVU432
 1567 0030 4FF60F02 		movw	r2, #63503
 1568 0034 C3F83012 		str	r1, [r3, #560]
 1569 0038 A3F83422 		strh	r2, [r3, #564]	@ movhi
 1570 003c 83F836C2 		strb	ip, [r3, #566]
ARM GAS  /var/folders/ky/97y1n_614tj15gjp3pmt3wd00000gn/T//ccpV02iO.s 			page 56


 1571              	.LBB505:
 1572              	.LBB493:
 1573              	.LBB490:
 1574              	.LBB487:
  37:../../libDaisy//src/hid/midi.h ****             tx     = {DSY_GPIOB, 6};
 1575              		.loc 2 37 20 view .LVU433
 1576 0040 A3F828E2 		strh	lr, [r3, #552]	@ movhi
  38:../../libDaisy//src/hid/midi.h ****         }
 1577              		.loc 2 38 13 is_stmt 1 view .LVU434
 1578              	.LVL99:
  38:../../libDaisy//src/hid/midi.h ****         }
 1579              		.loc 2 38 13 is_stmt 0 view .LVU435
 1580              	.LBE487:
 1581              	.LBE490:
 1582              	.LBE493:
 1583              	.LBE505:
 1584              	.LBB506:
 1585              	.LBI500:
  25:../../libDaisy//src/hid/midi.h ****     ~MidiUartTransport() {}
 1586              		.loc 2 25 5 is_stmt 1 view .LVU436
 1587              	.LBB504:
 1588              	.LBI501:
 1589              		.loc 16 97 5 view .LVU437
 1590              		.loc 16 97 5 is_stmt 0 view .LVU438
 1591              	.LBE504:
 1592              	.LBE506:
 1593              	.LBE509:
 1594              	.LBE512:
 1595              	.LBE534:
 1596              	.LBE535:
 1597              	.LBE536:
  25:MyProj.cpp    **** 
 1598              		.loc 13 25 10 view .LVU439
 1599 0044 054A     		ldr	r2, .L48+12
 1600 0046 0649     		ldr	r1, .L48+16
 1601              	.LBE537:
 1602              	.LBE539:
 1603              		.loc 13 217 1 view .LVU440
 1604 0048 5DF804EB 		ldr	lr, [sp], #4
 1605              		.cfi_restore 14
 1606              		.cfi_def_cfa_offset 0
 1607              	.LBB540:
 1608              	.LBB538:
  25:MyProj.cpp    **** 
 1609              		.loc 13 25 10 view .LVU441
 1610 004c FFF7FEBF 		b	__aeabi_atexit
 1611              	.LVL100:
 1612              	.L49:
 1613              		.align	2
 1614              	.L48:
 1615 0050 00000000 		.word	hw
 1616 0054 00000000 		.word	.LANCHOR16
 1617 0058 80707FF0 		.word	-260083584
 1618 005c 00000000 		.word	__dso_handle
 1619 0060 00000000 		.word	_ZN5daisy8DaisyPodD1Ev
 1620              	.LBE538:
 1621              	.LBE540:
ARM GAS  /var/folders/ky/97y1n_614tj15gjp3pmt3wd00000gn/T//ccpV02iO.s 			page 57


 1622              		.cfi_endproc
 1623              	.LFE2571:
 1625              		.section	.init_array,"aw",%init_array
 1626              		.align	2
 1627 0000 00000000 		.word	_GLOBAL__sub_I_leaf(target1)
 1628              		.global	isFading2
 1629              		.global	isFading1
 1630              		.global	crossfadePercent
 1631              		.global	playbackRate
 1632              		.global	grainPosition2
 1633              		.global	grainPosition
 1634              		.global	grainSize2
 1635              		.global	grainSize
 1636              		.global	bufferSize
 1637              		.global	myEnvelope2
 1638              		.global	mySampler2
 1639              		.global	myEnvelope
 1640              		.global	mySampler
 1641              		.global	myBuffer
 1642              		.global	hw
 1643              		.global	bigPool
 1644              		.global	bigMemory
 1645              		.global	leafMemory
 1646              		.global	leaf
 1647              		.section	.rodata
 1648              		.align	2
 1649              		.set	.LANCHOR16,. + 0
 1650              	.LC0:
 1651 0000 01       		.byte	1
 1652 0001 07       		.byte	7
 1653 0002 0000     		.space	2
 1654              	.LC1:
 1655 0004 01       		.byte	1
 1656 0005 06       		.byte	6
 1657              		.section	.bss.bigPool,"aw",%nobits
 1658              		.align	2
 1659              		.set	.LANCHOR15,. + 0
 1662              	bigPool:
 1663 0000 00000000 		.space	4
 1664              		.section	.bss.crossfadePercent,"aw",%nobits
 1665              		.align	2
 1666              		.set	.LANCHOR3,. + 0
 1669              	crossfadePercent:
 1670 0000 00000000 		.space	4
 1671              		.section	.bss.grainPosition,"aw",%nobits
 1672              		.align	2
 1673              		.set	.LANCHOR12,. + 0
 1676              	grainPosition:
 1677 0000 00000000 		.space	4
 1678              		.section	.bss.grainPosition2,"aw",%nobits
 1679              		.align	2
 1680              		.set	.LANCHOR9,. + 0
 1683              	grainPosition2:
 1684 0000 00000000 		.space	4
 1685              		.section	.bss.hw,"aw",%nobits
 1686              		.align	2
 1689              	hw:
ARM GAS  /var/folders/ky/97y1n_614tj15gjp3pmt3wd00000gn/T//ccpV02iO.s 			page 58


 1690 0000 00000000 		.space	37432
 1690      00000000 
 1690      00000000 
 1690      00000000 
 1690      00000000 
 1691              		.section	.bss.isFading1,"aw",%nobits
 1692              		.set	.LANCHOR5,. + 0
 1695              	isFading1:
 1696 0000 00       		.space	1
 1697              		.section	.bss.isFading2,"aw",%nobits
 1698              		.set	.LANCHOR11,. + 0
 1701              	isFading2:
 1702 0000 00       		.space	1
 1703              		.section	.bss.leaf,"aw",%nobits
 1704              		.align	2
 1705              		.set	.LANCHOR14,. + 0
 1708              	leaf:
 1709 0000 00000000 		.space	80
 1709      00000000 
 1709      00000000 
 1709      00000000 
 1709      00000000 
 1710              		.section	.bss.leafMemory,"aw",%nobits
 1711              		.align	2
 1714              	leafMemory:
 1715 0000 00000000 		.space	455355
 1715      00000000 
 1715      00000000 
 1715      00000000 
 1715      00000000 
 1716              		.section	.bss.myBuffer,"aw",%nobits
 1717              		.align	2
 1718              		.set	.LANCHOR13,. + 0
 1721              	myBuffer:
 1722 0000 00000000 		.space	4
 1723              		.section	.bss.myEnvelope,"aw",%nobits
 1724              		.align	2
 1725              		.set	.LANCHOR7,. + 0
 1728              	myEnvelope:
 1729 0000 00000000 		.space	4
 1730              		.section	.bss.myEnvelope2,"aw",%nobits
 1731              		.align	2
 1732              		.set	.LANCHOR10,. + 0
 1735              	myEnvelope2:
 1736 0000 00000000 		.space	4
 1737              		.section	.bss.mySampler,"aw",%nobits
 1738              		.align	2
 1739              		.set	.LANCHOR1,. + 0
 1742              	mySampler:
 1743 0000 00000000 		.space	4
 1744              		.section	.bss.mySampler2,"aw",%nobits
 1745              		.align	2
 1746              		.set	.LANCHOR2,. + 0
 1749              	mySampler2:
 1750 0000 00000000 		.space	4
 1751              		.section	.data.bufferSize,"aw"
 1752              		.align	2
ARM GAS  /var/folders/ky/97y1n_614tj15gjp3pmt3wd00000gn/T//ccpV02iO.s 			page 59


 1753              		.set	.LANCHOR4,. + 0
 1756              	bufferSize:
 1757 0000 80A90300 		.word	240000
 1758              		.section	.data.grainSize,"aw"
 1759              		.align	2
 1760              		.set	.LANCHOR6,. + 0
 1763              	grainSize:
 1764 0000 401F0000 		.word	8000
 1765              		.section	.data.grainSize2,"aw"
 1766              		.align	2
 1767              		.set	.LANCHOR8,. + 0
 1770              	grainSize2:
 1771 0000 401F0000 		.word	8000
 1772              		.section	.data.playbackRate,"aw"
 1773              		.align	2
 1774              		.set	.LANCHOR0,. + 0
 1777              	playbackRate:
 1778 0000 0000803F 		.word	1065353216
 1779              		.section	.sdram_bss,"aw"
 1780              		.align	2
 1783              	bigMemory:
 1784 0000 00000000 		.space	67108864
 1784      00000000 
 1784      00000000 
 1784      00000000 
 1784      00000000 
 1785              		.text
 1786              	.Letext0:
 1787              		.file 18 "/Library/DaisyToolchain/0.2.0/arm/arm-none-eabi/include/machine/_default_types.h"
 1788              		.file 19 "/Library/DaisyToolchain/0.2.0/arm/arm-none-eabi/include/sys/_stdint.h"
 1789              		.file 20 "/Library/DaisyToolchain/0.2.0/arm/arm-none-eabi/include/stdint.h"
 1790              		.file 21 "/Library/DaisyToolchain/0.2.0/arm/lib/gcc/arm-none-eabi/10.3.1/include/stddef.h"
 1791              		.file 22 "/Library/DaisyToolchain/0.2.0/arm/arm-none-eabi/include/c++/10.3.1/cmath"
 1792              		.file 23 "/Library/DaisyToolchain/0.2.0/arm/arm-none-eabi/include/c++/10.3.1/bits/std_abs.h"
 1793              		.file 24 "/Library/DaisyToolchain/0.2.0/arm/arm-none-eabi/include/c++/10.3.1/cstdlib"
 1794              		.file 25 "/Library/DaisyToolchain/0.2.0/arm/arm-none-eabi/include/c++/10.3.1/cstdint"
 1795              		.file 26 "/Library/DaisyToolchain/0.2.0/arm/arm-none-eabi/include/c++/10.3.1/type_traits"
 1796              		.file 27 "/Library/DaisyToolchain/0.2.0/arm/arm-none-eabi/include/c++/10.3.1/debug/debug.h"
 1797              		.file 28 "/Library/DaisyToolchain/0.2.0/arm/arm-none-eabi/include/c++/10.3.1/arm-none-eabi/thumb/v
 1798              		.file 29 "/Library/DaisyToolchain/0.2.0/arm/arm-none-eabi/include/c++/10.3.1/bits/algorithmfwd.h"
 1799              		.file 30 "/Library/DaisyToolchain/0.2.0/arm/arm-none-eabi/include/c++/10.3.1/bits/stl_pair.h"
 1800              		.file 31 "/Library/DaisyToolchain/0.2.0/arm/arm-none-eabi/include/c++/10.3.1/bits/exception_ptr.h"
 1801              		.file 32 "/Library/DaisyToolchain/0.2.0/arm/arm-none-eabi/include/c++/10.3.1/cstdarg"
 1802              		.file 33 "/Library/DaisyToolchain/0.2.0/arm/arm-none-eabi/include/c++/10.3.1/cstdio"
 1803              		.file 34 "/Library/DaisyToolchain/0.2.0/arm/arm-none-eabi/include/c++/10.3.1/cstring"
 1804              		.file 35 "/Library/DaisyToolchain/0.2.0/arm/arm-none-eabi/include/c++/10.3.1/bits/predefined_ops.h
 1805              		.file 36 "/Library/DaisyToolchain/0.2.0/arm/arm-none-eabi/include/sys/_types.h"
 1806              		.file 37 "/Library/DaisyToolchain/0.2.0/arm/arm-none-eabi/include/sys/reent.h"
 1807              		.file 38 "/Library/DaisyToolchain/0.2.0/arm/arm-none-eabi/include/sys/lock.h"
 1808              		.file 39 "/Library/DaisyToolchain/0.2.0/arm/arm-none-eabi/include/math.h"
 1809              		.file 40 "/Library/DaisyToolchain/0.2.0/arm/arm-none-eabi/include/stdlib.h"
 1810              		.file 41 "/Library/DaisyToolchain/0.2.0/arm/arm-none-eabi/include/c++/10.3.1/math.h"
 1811              		.file 42 "/Library/DaisyToolchain/0.2.0/arm/arm-none-eabi/include/c++/10.3.1/stdlib.h"
 1812              		.file 43 "../../libDaisy//src/daisy_core.h"
 1813              		.file 44 "../../libDaisy//src/per/tim.h"
 1814              		.file 45 "../../libDaisy//src/per/sai.h"
 1815              		.file 46 "../../libDaisy//src/hid/MidiEvent.h"
ARM GAS  /var/folders/ky/97y1n_614tj15gjp3pmt3wd00000gn/T//ccpV02iO.s 			page 60


 1816              		.file 47 "../../libDaisy//src/per/rng.h"
 1817              		.file 48 "../../libDaisy//src/util/wav_format.h"
 1818              		.file 49 "../../libDaisy//src/util/color.h"
 1819              		.file 50 "../../libDaisy//src/dev/max11300.h"
 1820              		.file 51 "../../libDaisy//src/per/gpio.h"
 1821              		.file 52 "../../libDaisy//src/dev/sdram.h"
 1822              		.file 53 "/Library/DaisyToolchain/0.2.0/arm/lib/gcc/arm-none-eabi/10.3.1/include/stdarg.h"
 1823              		.file 54 "/Library/DaisyToolchain/0.2.0/arm/arm-none-eabi/include/stdio.h"
 1824              		.file 55 "/Library/DaisyToolchain/0.2.0/arm/arm-none-eabi/include/string.h"
 1825              		.file 56 "../../../LEAF/leaf/./Inc/leaf-mempool.h"
 1826              		.file 57 "../../../LEAF/leaf/./Inc/leaf-global.h"
 1827              		.file 58 "../../../LEAF/leaf/./Inc/leaf-envelopes.h"
 1828              		.file 59 "../../../LEAF/leaf/./Inc/leaf-sampling.h"
 1829              		.file 60 "../../../LEAF/leaf/leaf.h"
 1830              		.file 61 "../../../LEAF/leaf/./Inc/leaf-math.h"
 1831              		.file 62 "<built-in>"
 1832              		.file 63 "../../libDaisy//src/dev/sr_595.h"
ARM GAS  /var/folders/ky/97y1n_614tj15gjp3pmt3wd00000gn/T//ccpV02iO.s 			page 61

