ARM GAS  /var/folders/ky/97y1n_614tj15gjp3pmt3wd00000gn/T//ccAAaZFi.s 			page 1


   1              		.cpu cortex-m7
   2              		.arch armv7e-m
   3              		.fpu fpv5-d16
   4              		.eabi_attribute 28, 1
   5              		.eabi_attribute 20, 1
   6              		.eabi_attribute 21, 1
   7              		.eabi_attribute 23, 3
   8              		.eabi_attribute 24, 1
   9              		.eabi_attribute 25, 1
  10              		.eabi_attribute 26, 1
  11              		.eabi_attribute 30, 2
  12              		.eabi_attribute 34, 1
  13              		.eabi_attribute 18, 4
  14              		.file	"diskio.c"
  15              		.text
  16              	.Ltext0:
  17              		.cfi_sections	.debug_frame
  18              		.section	.text.disk_status,"ax",%progbits
  19              		.align	1
  20              		.p2align 2,,3
  21              		.global	disk_status
  22              		.syntax unified
  23              		.thumb
  24              		.thumb_func
  26              	disk_status:
  27              	.LVL0:
  28              	.LFB320:
  29              		.file 1 "../../libDaisy//Middlewares/Third_Party/FatFs/src/diskio.c"
   1:../../libDaisy//Middlewares/Third_Party/FatFs/src/diskio.c **** /*-----------------------------------------------------------------------*/
   2:../../libDaisy//Middlewares/Third_Party/FatFs/src/diskio.c **** /* Low level disk I/O module skeleton for FatFs     (C)ChaN, 2017        */
   3:../../libDaisy//Middlewares/Third_Party/FatFs/src/diskio.c **** /*                                                                       */
   4:../../libDaisy//Middlewares/Third_Party/FatFs/src/diskio.c **** /*   Portions COPYRIGHT 2017 STMicroelectronics                          */
   5:../../libDaisy//Middlewares/Third_Party/FatFs/src/diskio.c **** /*   Portions Copyright (C) 2017, ChaN, all right reserved               */
   6:../../libDaisy//Middlewares/Third_Party/FatFs/src/diskio.c **** /*-----------------------------------------------------------------------*/
   7:../../libDaisy//Middlewares/Third_Party/FatFs/src/diskio.c **** /* If a working storage control module is available, it should be        */
   8:../../libDaisy//Middlewares/Third_Party/FatFs/src/diskio.c **** /* attached to the FatFs via a glue function rather than modifying it.   */
   9:../../libDaisy//Middlewares/Third_Party/FatFs/src/diskio.c **** /* This is an example of glue functions to attach various existing      */
  10:../../libDaisy//Middlewares/Third_Party/FatFs/src/diskio.c **** /* storage control modules to the FatFs module with a defined API.       */
  11:../../libDaisy//Middlewares/Third_Party/FatFs/src/diskio.c **** /*-----------------------------------------------------------------------*/
  12:../../libDaisy//Middlewares/Third_Party/FatFs/src/diskio.c **** 
  13:../../libDaisy//Middlewares/Third_Party/FatFs/src/diskio.c **** /* Includes ------------------------------------------------------------------*/
  14:../../libDaisy//Middlewares/Third_Party/FatFs/src/diskio.c **** #include "diskio.h"
  15:../../libDaisy//Middlewares/Third_Party/FatFs/src/diskio.c **** #include "ff_gen_drv.h"
  16:../../libDaisy//Middlewares/Third_Party/FatFs/src/diskio.c **** 
  17:../../libDaisy//Middlewares/Third_Party/FatFs/src/diskio.c **** #if defined ( __GNUC__ )
  18:../../libDaisy//Middlewares/Third_Party/FatFs/src/diskio.c **** #ifndef __weak
  19:../../libDaisy//Middlewares/Third_Party/FatFs/src/diskio.c **** #define __weak __attribute__((weak))
  20:../../libDaisy//Middlewares/Third_Party/FatFs/src/diskio.c **** #endif
  21:../../libDaisy//Middlewares/Third_Party/FatFs/src/diskio.c **** #endif
  22:../../libDaisy//Middlewares/Third_Party/FatFs/src/diskio.c **** 
  23:../../libDaisy//Middlewares/Third_Party/FatFs/src/diskio.c **** /* Private typedef -----------------------------------------------------------*/
  24:../../libDaisy//Middlewares/Third_Party/FatFs/src/diskio.c **** /* Private define ------------------------------------------------------------*/
  25:../../libDaisy//Middlewares/Third_Party/FatFs/src/diskio.c **** /* Private variables ---------------------------------------------------------*/
  26:../../libDaisy//Middlewares/Third_Party/FatFs/src/diskio.c **** extern Disk_drvTypeDef  disk;
  27:../../libDaisy//Middlewares/Third_Party/FatFs/src/diskio.c **** 
  28:../../libDaisy//Middlewares/Third_Party/FatFs/src/diskio.c **** /* Private function prototypes -----------------------------------------------*/
  29:../../libDaisy//Middlewares/Third_Party/FatFs/src/diskio.c **** /* Private functions ---------------------------------------------------------*/
ARM GAS  /var/folders/ky/97y1n_614tj15gjp3pmt3wd00000gn/T//ccAAaZFi.s 			page 2


  30:../../libDaisy//Middlewares/Third_Party/FatFs/src/diskio.c **** 
  31:../../libDaisy//Middlewares/Third_Party/FatFs/src/diskio.c **** /**
  32:../../libDaisy//Middlewares/Third_Party/FatFs/src/diskio.c ****   * @brief  Gets Disk Status
  33:../../libDaisy//Middlewares/Third_Party/FatFs/src/diskio.c ****   * @param  pdrv: Physical drive number (0..)
  34:../../libDaisy//Middlewares/Third_Party/FatFs/src/diskio.c ****   * @retval DSTATUS: Operation status
  35:../../libDaisy//Middlewares/Third_Party/FatFs/src/diskio.c ****   */
  36:../../libDaisy//Middlewares/Third_Party/FatFs/src/diskio.c **** DSTATUS disk_status (
  37:../../libDaisy//Middlewares/Third_Party/FatFs/src/diskio.c **** 	BYTE pdrv		/* Physical drive number to identify the drive */
  38:../../libDaisy//Middlewares/Third_Party/FatFs/src/diskio.c **** )
  39:../../libDaisy//Middlewares/Third_Party/FatFs/src/diskio.c **** {
  30              		.loc 1 39 1 view -0
  31              		.cfi_startproc
  32              		@ args = 0, pretend = 0, frame = 0
  33              		@ frame_needed = 0, uses_anonymous_args = 0
  34              		@ link register save eliminated.
  40:../../libDaisy//Middlewares/Third_Party/FatFs/src/diskio.c ****   DSTATUS stat;
  35              		.loc 1 40 3 view .LVU1
  41:../../libDaisy//Middlewares/Third_Party/FatFs/src/diskio.c **** 
  42:../../libDaisy//Middlewares/Third_Party/FatFs/src/diskio.c ****   stat = disk.drv[pdrv]->disk_status(disk.lun[pdrv]);
  36              		.loc 1 42 3 view .LVU2
  37              		.loc 1 42 10 is_stmt 0 view .LVU3
  38 0000 034B     		ldr	r3, .L3
  39              		.loc 1 42 18 view .LVU4
  40 0002 03EB8002 		add	r2, r3, r0, lsl #2
  41              		.loc 1 42 10 view .LVU5
  42 0006 0344     		add	r3, r3, r0
  43              		.loc 1 42 24 view .LVU6
  44 0008 5268     		ldr	r2, [r2, #4]
  45              		.loc 1 42 10 view .LVU7
  46 000a 187B     		ldrb	r0, [r3, #12]	@ zero_extendqisi2
  47              	.LVL1:
  48              		.loc 1 42 10 view .LVU8
  49 000c 5368     		ldr	r3, [r2, #4]
  50 000e 1847     		bx	r3
  51              	.LVL2:
  52              	.L4:
  53              		.align	2
  54              	.L3:
  55 0010 00000000 		.word	disk
  56              		.cfi_endproc
  57              	.LFE320:
  59              		.section	.text.disk_initialize,"ax",%progbits
  60              		.align	1
  61              		.p2align 2,,3
  62              		.global	disk_initialize
  63              		.syntax unified
  64              		.thumb
  65              		.thumb_func
  67              	disk_initialize:
  68              	.LVL3:
  69              	.LFB321:
  43:../../libDaisy//Middlewares/Third_Party/FatFs/src/diskio.c ****   return stat;
  44:../../libDaisy//Middlewares/Third_Party/FatFs/src/diskio.c **** }
  45:../../libDaisy//Middlewares/Third_Party/FatFs/src/diskio.c **** 
  46:../../libDaisy//Middlewares/Third_Party/FatFs/src/diskio.c **** /**
  47:../../libDaisy//Middlewares/Third_Party/FatFs/src/diskio.c ****   * @brief  Initializes a Drive
  48:../../libDaisy//Middlewares/Third_Party/FatFs/src/diskio.c ****   * @param  pdrv: Physical drive number (0..)
ARM GAS  /var/folders/ky/97y1n_614tj15gjp3pmt3wd00000gn/T//ccAAaZFi.s 			page 3


  49:../../libDaisy//Middlewares/Third_Party/FatFs/src/diskio.c ****   * @retval DSTATUS: Operation status
  50:../../libDaisy//Middlewares/Third_Party/FatFs/src/diskio.c ****   */
  51:../../libDaisy//Middlewares/Third_Party/FatFs/src/diskio.c **** DSTATUS disk_initialize (
  52:../../libDaisy//Middlewares/Third_Party/FatFs/src/diskio.c **** 	BYTE pdrv				/* Physical drive nmuber to identify the drive */
  53:../../libDaisy//Middlewares/Third_Party/FatFs/src/diskio.c **** )
  54:../../libDaisy//Middlewares/Third_Party/FatFs/src/diskio.c **** {
  70              		.loc 1 54 1 is_stmt 1 view -0
  71              		.cfi_startproc
  72              		@ args = 0, pretend = 0, frame = 0
  73              		@ frame_needed = 0, uses_anonymous_args = 0
  74              		@ link register save eliminated.
  55:../../libDaisy//Middlewares/Third_Party/FatFs/src/diskio.c ****   DSTATUS stat = RES_OK;
  75              		.loc 1 55 3 view .LVU10
  56:../../libDaisy//Middlewares/Third_Party/FatFs/src/diskio.c **** 
  57:../../libDaisy//Middlewares/Third_Party/FatFs/src/diskio.c ****   if(disk.is_initialized[pdrv] == 0)
  76              		.loc 1 57 3 view .LVU11
  77              		.loc 1 57 25 is_stmt 0 view .LVU12
  78 0000 074B     		ldr	r3, .L7
  79              		.loc 1 57 5 view .LVU13
  80 0002 1A5C     		ldrb	r2, [r3, r0]	@ zero_extendqisi2
  81 0004 52B9     		cbnz	r2, .L6
  58:../../libDaisy//Middlewares/Third_Party/FatFs/src/diskio.c ****   {
  59:../../libDaisy//Middlewares/Third_Party/FatFs/src/diskio.c ****     disk.is_initialized[pdrv] = 1;
  82              		.loc 1 59 5 is_stmt 1 view .LVU14
  60:../../libDaisy//Middlewares/Third_Party/FatFs/src/diskio.c ****     stat = disk.drv[pdrv]->disk_initialize(disk.lun[pdrv]);
  83              		.loc 1 60 20 is_stmt 0 view .LVU15
  84 0006 03EB8002 		add	r2, r3, r0, lsl #2
  85              		.loc 1 60 12 view .LVU16
  86 000a 1918     		adds	r1, r3, r0
  59:../../libDaisy//Middlewares/Third_Party/FatFs/src/diskio.c ****     stat = disk.drv[pdrv]->disk_initialize(disk.lun[pdrv]);
  87              		.loc 1 59 31 view .LVU17
  88 000c 4FF0010C 		mov	ip, #1
  89              		.loc 1 60 26 view .LVU18
  90 0010 5268     		ldr	r2, [r2, #4]
  59:../../libDaisy//Middlewares/Third_Party/FatFs/src/diskio.c ****     stat = disk.drv[pdrv]->disk_initialize(disk.lun[pdrv]);
  91              		.loc 1 59 31 view .LVU19
  92 0012 03F800C0 		strb	ip, [r3, r0]
  93              		.loc 1 60 5 is_stmt 1 view .LVU20
  94              		.loc 1 60 12 is_stmt 0 view .LVU21
  95 0016 087B     		ldrb	r0, [r1, #12]	@ zero_extendqisi2
  96              	.LVL4:
  97              		.loc 1 60 12 view .LVU22
  98 0018 1368     		ldr	r3, [r2]
  99 001a 1847     		bx	r3
 100              	.LVL5:
 101              	.L6:
  61:../../libDaisy//Middlewares/Third_Party/FatFs/src/diskio.c ****   }
  62:../../libDaisy//Middlewares/Third_Party/FatFs/src/diskio.c ****   return stat;
 102              		.loc 1 62 3 is_stmt 1 view .LVU23
  63:../../libDaisy//Middlewares/Third_Party/FatFs/src/diskio.c **** }
 103              		.loc 1 63 1 is_stmt 0 view .LVU24
 104 001c 0020     		movs	r0, #0
 105              	.LVL6:
 106              		.loc 1 63 1 view .LVU25
 107 001e 7047     		bx	lr
 108              	.L8:
 109              		.align	2
ARM GAS  /var/folders/ky/97y1n_614tj15gjp3pmt3wd00000gn/T//ccAAaZFi.s 			page 4


 110              	.L7:
 111 0020 00000000 		.word	disk
 112              		.cfi_endproc
 113              	.LFE321:
 115              		.section	.text.disk_read,"ax",%progbits
 116              		.align	1
 117              		.p2align 2,,3
 118              		.global	disk_read
 119              		.syntax unified
 120              		.thumb
 121              		.thumb_func
 123              	disk_read:
 124              	.LVL7:
 125              	.LFB322:
  64:../../libDaisy//Middlewares/Third_Party/FatFs/src/diskio.c **** 
  65:../../libDaisy//Middlewares/Third_Party/FatFs/src/diskio.c **** /**
  66:../../libDaisy//Middlewares/Third_Party/FatFs/src/diskio.c ****   * @brief  Reads Sector(s)
  67:../../libDaisy//Middlewares/Third_Party/FatFs/src/diskio.c ****   * @param  pdrv: Physical drive number (0..)
  68:../../libDaisy//Middlewares/Third_Party/FatFs/src/diskio.c ****   * @param  *buff: Data buffer to store read data
  69:../../libDaisy//Middlewares/Third_Party/FatFs/src/diskio.c ****   * @param  sector: Sector address (LBA)
  70:../../libDaisy//Middlewares/Third_Party/FatFs/src/diskio.c ****   * @param  count: Number of sectors to read (1..128)
  71:../../libDaisy//Middlewares/Third_Party/FatFs/src/diskio.c ****   * @retval DRESULT: Operation result
  72:../../libDaisy//Middlewares/Third_Party/FatFs/src/diskio.c ****   */
  73:../../libDaisy//Middlewares/Third_Party/FatFs/src/diskio.c **** DRESULT disk_read (
  74:../../libDaisy//Middlewares/Third_Party/FatFs/src/diskio.c **** 	BYTE pdrv,		/* Physical drive nmuber to identify the drive */
  75:../../libDaisy//Middlewares/Third_Party/FatFs/src/diskio.c **** 	BYTE *buff,		/* Data buffer to store read data */
  76:../../libDaisy//Middlewares/Third_Party/FatFs/src/diskio.c **** 	DWORD sector,	        /* Sector address in LBA */
  77:../../libDaisy//Middlewares/Third_Party/FatFs/src/diskio.c **** 	UINT count		/* Number of sectors to read */
  78:../../libDaisy//Middlewares/Third_Party/FatFs/src/diskio.c **** )
  79:../../libDaisy//Middlewares/Third_Party/FatFs/src/diskio.c **** {
 126              		.loc 1 79 1 is_stmt 1 view -0
 127              		.cfi_startproc
 128              		@ args = 0, pretend = 0, frame = 0
 129              		@ frame_needed = 0, uses_anonymous_args = 0
 130              		@ link register save eliminated.
  80:../../libDaisy//Middlewares/Third_Party/FatFs/src/diskio.c ****   DRESULT res;
 131              		.loc 1 80 3 view .LVU27
  81:../../libDaisy//Middlewares/Third_Party/FatFs/src/diskio.c **** 
  82:../../libDaisy//Middlewares/Third_Party/FatFs/src/diskio.c ****   res = disk.drv[pdrv]->disk_read(disk.lun[pdrv], buff, sector, count);
 132              		.loc 1 82 3 view .LVU28
  79:../../libDaisy//Middlewares/Third_Party/FatFs/src/diskio.c ****   DRESULT res;
 133              		.loc 1 79 1 is_stmt 0 view .LVU29
 134 0000 30B4     		push	{r4, r5}
 135              		.cfi_def_cfa_offset 8
 136              		.cfi_offset 4, -8
 137              		.cfi_offset 5, -4
 138              		.loc 1 82 9 view .LVU30
 139 0002 054C     		ldr	r4, .L11
 140              		.loc 1 82 17 view .LVU31
 141 0004 04EB8005 		add	r5, r4, r0, lsl #2
 142              		.loc 1 82 9 view .LVU32
 143 0008 0444     		add	r4, r4, r0
 144              		.loc 1 82 23 view .LVU33
 145 000a 6D68     		ldr	r5, [r5, #4]
 146              		.loc 1 82 9 view .LVU34
 147 000c 207B     		ldrb	r0, [r4, #12]	@ zero_extendqisi2
 148              	.LVL8:
ARM GAS  /var/folders/ky/97y1n_614tj15gjp3pmt3wd00000gn/T//ccAAaZFi.s 			page 5


 149              		.loc 1 82 9 view .LVU35
 150 000e AC68     		ldr	r4, [r5, #8]
 151 0010 A446     		mov	ip, r4
  83:../../libDaisy//Middlewares/Third_Party/FatFs/src/diskio.c ****   return res;
  84:../../libDaisy//Middlewares/Third_Party/FatFs/src/diskio.c **** }
 152              		.loc 1 84 1 view .LVU36
 153 0012 30BC     		pop	{r4, r5}
 154              		.cfi_restore 5
 155              		.cfi_restore 4
 156              		.cfi_def_cfa_offset 0
  82:../../libDaisy//Middlewares/Third_Party/FatFs/src/diskio.c ****   return res;
 157              		.loc 1 82 9 view .LVU37
 158 0014 6047     		bx	ip
 159              	.LVL9:
 160              	.L12:
  82:../../libDaisy//Middlewares/Third_Party/FatFs/src/diskio.c ****   return res;
 161              		.loc 1 82 9 view .LVU38
 162 0016 00BF     		.align	2
 163              	.L11:
 164 0018 00000000 		.word	disk
 165              		.cfi_endproc
 166              	.LFE322:
 168              		.section	.text.disk_write,"ax",%progbits
 169              		.align	1
 170              		.p2align 2,,3
 171              		.global	disk_write
 172              		.syntax unified
 173              		.thumb
 174              		.thumb_func
 176              	disk_write:
 177              	.LVL10:
 178              	.LFB323:
  85:../../libDaisy//Middlewares/Third_Party/FatFs/src/diskio.c **** 
  86:../../libDaisy//Middlewares/Third_Party/FatFs/src/diskio.c **** /**
  87:../../libDaisy//Middlewares/Third_Party/FatFs/src/diskio.c ****   * @brief  Writes Sector(s)
  88:../../libDaisy//Middlewares/Third_Party/FatFs/src/diskio.c ****   * @param  pdrv: Physical drive number (0..)
  89:../../libDaisy//Middlewares/Third_Party/FatFs/src/diskio.c ****   * @param  *buff: Data to be written
  90:../../libDaisy//Middlewares/Third_Party/FatFs/src/diskio.c ****   * @param  sector: Sector address (LBA)
  91:../../libDaisy//Middlewares/Third_Party/FatFs/src/diskio.c ****   * @param  count: Number of sectors to write (1..128)
  92:../../libDaisy//Middlewares/Third_Party/FatFs/src/diskio.c ****   * @retval DRESULT: Operation result
  93:../../libDaisy//Middlewares/Third_Party/FatFs/src/diskio.c ****   */
  94:../../libDaisy//Middlewares/Third_Party/FatFs/src/diskio.c **** #if _USE_WRITE == 1
  95:../../libDaisy//Middlewares/Third_Party/FatFs/src/diskio.c **** DRESULT disk_write (
  96:../../libDaisy//Middlewares/Third_Party/FatFs/src/diskio.c **** 	BYTE pdrv,		/* Physical drive nmuber to identify the drive */
  97:../../libDaisy//Middlewares/Third_Party/FatFs/src/diskio.c **** 	const BYTE *buff,	/* Data to be written */
  98:../../libDaisy//Middlewares/Third_Party/FatFs/src/diskio.c **** 	DWORD sector,		/* Sector address in LBA */
  99:../../libDaisy//Middlewares/Third_Party/FatFs/src/diskio.c **** 	UINT count        	/* Number of sectors to write */
 100:../../libDaisy//Middlewares/Third_Party/FatFs/src/diskio.c **** )
 101:../../libDaisy//Middlewares/Third_Party/FatFs/src/diskio.c **** {
 179              		.loc 1 101 1 is_stmt 1 view -0
 180              		.cfi_startproc
 181              		@ args = 0, pretend = 0, frame = 0
 182              		@ frame_needed = 0, uses_anonymous_args = 0
 183              		@ link register save eliminated.
 102:../../libDaisy//Middlewares/Third_Party/FatFs/src/diskio.c ****   DRESULT res;
 184              		.loc 1 102 3 view .LVU40
 103:../../libDaisy//Middlewares/Third_Party/FatFs/src/diskio.c **** 
ARM GAS  /var/folders/ky/97y1n_614tj15gjp3pmt3wd00000gn/T//ccAAaZFi.s 			page 6


 104:../../libDaisy//Middlewares/Third_Party/FatFs/src/diskio.c ****   res = disk.drv[pdrv]->disk_write(disk.lun[pdrv], buff, sector, count);
 185              		.loc 1 104 3 view .LVU41
 101:../../libDaisy//Middlewares/Third_Party/FatFs/src/diskio.c ****   DRESULT res;
 186              		.loc 1 101 1 is_stmt 0 view .LVU42
 187 0000 30B4     		push	{r4, r5}
 188              		.cfi_def_cfa_offset 8
 189              		.cfi_offset 4, -8
 190              		.cfi_offset 5, -4
 191              		.loc 1 104 9 view .LVU43
 192 0002 054C     		ldr	r4, .L15
 193              		.loc 1 104 17 view .LVU44
 194 0004 04EB8005 		add	r5, r4, r0, lsl #2
 195              		.loc 1 104 9 view .LVU45
 196 0008 0444     		add	r4, r4, r0
 197              		.loc 1 104 23 view .LVU46
 198 000a 6D68     		ldr	r5, [r5, #4]
 199              		.loc 1 104 9 view .LVU47
 200 000c 207B     		ldrb	r0, [r4, #12]	@ zero_extendqisi2
 201              	.LVL11:
 202              		.loc 1 104 9 view .LVU48
 203 000e EC68     		ldr	r4, [r5, #12]
 204 0010 A446     		mov	ip, r4
 105:../../libDaisy//Middlewares/Third_Party/FatFs/src/diskio.c ****   return res;
 106:../../libDaisy//Middlewares/Third_Party/FatFs/src/diskio.c **** }
 205              		.loc 1 106 1 view .LVU49
 206 0012 30BC     		pop	{r4, r5}
 207              		.cfi_restore 5
 208              		.cfi_restore 4
 209              		.cfi_def_cfa_offset 0
 104:../../libDaisy//Middlewares/Third_Party/FatFs/src/diskio.c ****   return res;
 210              		.loc 1 104 9 view .LVU50
 211 0014 6047     		bx	ip
 212              	.LVL12:
 213              	.L16:
 104:../../libDaisy//Middlewares/Third_Party/FatFs/src/diskio.c ****   return res;
 214              		.loc 1 104 9 view .LVU51
 215 0016 00BF     		.align	2
 216              	.L15:
 217 0018 00000000 		.word	disk
 218              		.cfi_endproc
 219              	.LFE323:
 221              		.section	.text.disk_ioctl,"ax",%progbits
 222              		.align	1
 223              		.p2align 2,,3
 224              		.global	disk_ioctl
 225              		.syntax unified
 226              		.thumb
 227              		.thumb_func
 229              	disk_ioctl:
 230              	.LVL13:
 231              	.LFB324:
 107:../../libDaisy//Middlewares/Third_Party/FatFs/src/diskio.c **** #endif /* _USE_WRITE == 1 */
 108:../../libDaisy//Middlewares/Third_Party/FatFs/src/diskio.c **** 
 109:../../libDaisy//Middlewares/Third_Party/FatFs/src/diskio.c **** /**
 110:../../libDaisy//Middlewares/Third_Party/FatFs/src/diskio.c ****   * @brief  I/O control operation
 111:../../libDaisy//Middlewares/Third_Party/FatFs/src/diskio.c ****   * @param  pdrv: Physical drive number (0..)
 112:../../libDaisy//Middlewares/Third_Party/FatFs/src/diskio.c ****   * @param  cmd: Control code
ARM GAS  /var/folders/ky/97y1n_614tj15gjp3pmt3wd00000gn/T//ccAAaZFi.s 			page 7


 113:../../libDaisy//Middlewares/Third_Party/FatFs/src/diskio.c ****   * @param  *buff: Buffer to send/receive control data
 114:../../libDaisy//Middlewares/Third_Party/FatFs/src/diskio.c ****   * @retval DRESULT: Operation result
 115:../../libDaisy//Middlewares/Third_Party/FatFs/src/diskio.c ****   */
 116:../../libDaisy//Middlewares/Third_Party/FatFs/src/diskio.c **** #if _USE_IOCTL == 1
 117:../../libDaisy//Middlewares/Third_Party/FatFs/src/diskio.c **** DRESULT disk_ioctl (
 118:../../libDaisy//Middlewares/Third_Party/FatFs/src/diskio.c **** 	BYTE pdrv,		/* Physical drive nmuber (0..) */
 119:../../libDaisy//Middlewares/Third_Party/FatFs/src/diskio.c **** 	BYTE cmd,		/* Control code */
 120:../../libDaisy//Middlewares/Third_Party/FatFs/src/diskio.c **** 	void *buff		/* Buffer to send/receive control data */
 121:../../libDaisy//Middlewares/Third_Party/FatFs/src/diskio.c **** )
 122:../../libDaisy//Middlewares/Third_Party/FatFs/src/diskio.c **** {
 232              		.loc 1 122 1 is_stmt 1 view -0
 233              		.cfi_startproc
 234              		@ args = 0, pretend = 0, frame = 0
 235              		@ frame_needed = 0, uses_anonymous_args = 0
 236              		@ link register save eliminated.
 123:../../libDaisy//Middlewares/Third_Party/FatFs/src/diskio.c ****   DRESULT res;
 237              		.loc 1 123 3 view .LVU53
 124:../../libDaisy//Middlewares/Third_Party/FatFs/src/diskio.c **** 
 125:../../libDaisy//Middlewares/Third_Party/FatFs/src/diskio.c ****   res = disk.drv[pdrv]->disk_ioctl(disk.lun[pdrv], cmd, buff);
 238              		.loc 1 125 3 view .LVU54
 239              		.loc 1 125 9 is_stmt 0 view .LVU55
 240 0000 044B     		ldr	r3, .L18
 241 0002 03EB000C 		add	ip, r3, r0
 242              		.loc 1 125 17 view .LVU56
 243 0006 03EB8003 		add	r3, r3, r0, lsl #2
 244              		.loc 1 125 23 view .LVU57
 245 000a 5B68     		ldr	r3, [r3, #4]
 246              		.loc 1 125 9 view .LVU58
 247 000c 9CF80C00 		ldrb	r0, [ip, #12]	@ zero_extendqisi2
 248              	.LVL14:
 249              		.loc 1 125 9 view .LVU59
 250 0010 1B69     		ldr	r3, [r3, #16]
 251 0012 1847     		bx	r3
 252              	.LVL15:
 253              	.L19:
 254              		.loc 1 125 9 view .LVU60
 255              		.align	2
 256              	.L18:
 257 0014 00000000 		.word	disk
 258              		.cfi_endproc
 259              	.LFE324:
 261              		.section	.text.get_fattime,"ax",%progbits
 262              		.align	1
 263              		.p2align 2,,3
 264              		.weak	get_fattime
 265              		.syntax unified
 266              		.thumb
 267              		.thumb_func
 269              	get_fattime:
 270              	.LFB325:
 126:../../libDaisy//Middlewares/Third_Party/FatFs/src/diskio.c ****   return res;
 127:../../libDaisy//Middlewares/Third_Party/FatFs/src/diskio.c **** }
 128:../../libDaisy//Middlewares/Third_Party/FatFs/src/diskio.c **** #endif /* _USE_IOCTL == 1 */
 129:../../libDaisy//Middlewares/Third_Party/FatFs/src/diskio.c **** 
 130:../../libDaisy//Middlewares/Third_Party/FatFs/src/diskio.c **** /**
 131:../../libDaisy//Middlewares/Third_Party/FatFs/src/diskio.c ****   * @brief  Gets Time from RTC
 132:../../libDaisy//Middlewares/Third_Party/FatFs/src/diskio.c ****   * @param  None
ARM GAS  /var/folders/ky/97y1n_614tj15gjp3pmt3wd00000gn/T//ccAAaZFi.s 			page 8


 133:../../libDaisy//Middlewares/Third_Party/FatFs/src/diskio.c ****   * @retval Time in DWORD
 134:../../libDaisy//Middlewares/Third_Party/FatFs/src/diskio.c ****   */
 135:../../libDaisy//Middlewares/Third_Party/FatFs/src/diskio.c **** __weak DWORD get_fattime (void)
 136:../../libDaisy//Middlewares/Third_Party/FatFs/src/diskio.c **** {
 271              		.loc 1 136 1 is_stmt 1 view -0
 272              		.cfi_startproc
 273              		@ args = 0, pretend = 0, frame = 0
 274              		@ frame_needed = 0, uses_anonymous_args = 0
 275              		@ link register save eliminated.
 137:../../libDaisy//Middlewares/Third_Party/FatFs/src/diskio.c ****   return 0;
 276              		.loc 1 137 3 view .LVU62
 138:../../libDaisy//Middlewares/Third_Party/FatFs/src/diskio.c **** }
 277              		.loc 1 138 1 is_stmt 0 view .LVU63
 278 0000 0020     		movs	r0, #0
 279 0002 7047     		bx	lr
 280              		.cfi_endproc
 281              	.LFE325:
 283              		.text
 284              	.Letext0:
 285              		.file 2 "/Library/DaisyToolchain/0.2.0/arm/arm-none-eabi/include/machine/_default_types.h"
 286              		.file 3 "/Library/DaisyToolchain/0.2.0/arm/arm-none-eabi/include/sys/_stdint.h"
 287              		.file 4 "../../libDaisy//Middlewares/Third_Party/FatFs/src/integer.h"
 288              		.file 5 "../../libDaisy//Middlewares/Third_Party/FatFs/src/diskio.h"
 289              		.file 6 "../../libDaisy//Middlewares/Third_Party/FatFs/src/ff_gen_drv.h"
ARM GAS  /var/folders/ky/97y1n_614tj15gjp3pmt3wd00000gn/T//ccAAaZFi.s 			page 9

