ARM GAS  /var/folders/ky/97y1n_614tj15gjp3pmt3wd00000gn/T//cc7uyuiG.s 			page 1


   1              		.cpu cortex-m7
   2              		.arch armv7e-m
   3              		.fpu fpv5-d16
   4              		.eabi_attribute 28, 1
   5              		.eabi_attribute 20, 1
   6              		.eabi_attribute 21, 1
   7              		.eabi_attribute 23, 3
   8              		.eabi_attribute 24, 1
   9              		.eabi_attribute 25, 1
  10              		.eabi_attribute 26, 1
  11              		.eabi_attribute 30, 2
  12              		.eabi_attribute 34, 1
  13              		.eabi_attribute 18, 4
  14              		.file	"MyProj.cpp"
  15              		.text
  16              	.Ltext0:
  17              		.cfi_sections	.debug_frame
  18              		.section	.text._ZN5daisy8DaisyPodD2Ev,"axG",%progbits,_ZN5daisy8DaisyPodD5Ev,comdat
  19              		.align	1
  20              		.p2align 2,,3
  21              		.weak	_ZN5daisy8DaisyPodD2Ev
  22              		.syntax unified
  23              		.thumb
  24              		.thumb_func
  26              	_ZN5daisy8DaisyPodD2Ev:
  27              	.LVL0:
  28              	.LFB2538:
  29              		.file 1 "../../libDaisy//src/daisy_pod.h"
   1:../../libDaisy//src/daisy_pod.h **** #pragma once
   2:../../libDaisy//src/daisy_pod.h **** #ifndef DSY_POD_BSP_H
   3:../../libDaisy//src/daisy_pod.h **** #define DSY_POD_BSP_H
   4:../../libDaisy//src/daisy_pod.h **** 
   5:../../libDaisy//src/daisy_pod.h **** #include "daisy_seed.h"
   6:../../libDaisy//src/daisy_pod.h **** 
   7:../../libDaisy//src/daisy_pod.h **** namespace daisy
   8:../../libDaisy//src/daisy_pod.h **** {
   9:../../libDaisy//src/daisy_pod.h **** /**
  10:../../libDaisy//src/daisy_pod.h ****     @brief Class that handles initializing all of the hardware specific to the Daisy Patch Board. \
  11:../../libDaisy//src/daisy_pod.h ****     Helper funtions are also in place to provide easy access to built-in controls and peripherals.
  12:../../libDaisy//src/daisy_pod.h ****     @author Stephen Hensley
  13:../../libDaisy//src/daisy_pod.h ****     @date November 2019
  14:../../libDaisy//src/daisy_pod.h ****     @ingroup boards
  15:../../libDaisy//src/daisy_pod.h **** */
  16:../../libDaisy//src/daisy_pod.h **** class DaisyPod
  17:../../libDaisy//src/daisy_pod.h **** {
  18:../../libDaisy//src/daisy_pod.h ****   public:
  19:../../libDaisy//src/daisy_pod.h ****     /** Switches */
  20:../../libDaisy//src/daisy_pod.h ****     enum Sw
  21:../../libDaisy//src/daisy_pod.h ****     {
  22:../../libDaisy//src/daisy_pod.h ****         BUTTON_1,    /** & */
  23:../../libDaisy//src/daisy_pod.h ****         BUTTON_2,    /** & */
  24:../../libDaisy//src/daisy_pod.h ****         BUTTON_LAST, /** &  */
  25:../../libDaisy//src/daisy_pod.h ****     };
  26:../../libDaisy//src/daisy_pod.h **** 
  27:../../libDaisy//src/daisy_pod.h ****     /** Knobs */
  28:../../libDaisy//src/daisy_pod.h ****     enum Knob
  29:../../libDaisy//src/daisy_pod.h ****     {
ARM GAS  /var/folders/ky/97y1n_614tj15gjp3pmt3wd00000gn/T//cc7uyuiG.s 			page 2


  30:../../libDaisy//src/daisy_pod.h ****         KNOB_1,    /** &  */
  31:../../libDaisy//src/daisy_pod.h ****         KNOB_2,    /** & */
  32:../../libDaisy//src/daisy_pod.h ****         KNOB_LAST, /** & */
  33:../../libDaisy//src/daisy_pod.h ****     };
  34:../../libDaisy//src/daisy_pod.h **** 
  35:../../libDaisy//src/daisy_pod.h ****     DaisyPod() {}
  36:../../libDaisy//src/daisy_pod.h ****     ~DaisyPod() {}
  30              		.loc 1 36 5 view -0
  31              		.cfi_startproc
  32              		@ args = 0, pretend = 0, frame = 0
  33              		@ frame_needed = 0, uses_anonymous_args = 0
  34              		@ link register save eliminated.
  35              	.LBB267:
  36              	.LBI267:
  37              		.file 2 "../../libDaisy//src/hid/midi.h"
   1:../../libDaisy//src/hid/midi.h **** #pragma once
   2:../../libDaisy//src/hid/midi.h **** #ifndef DSY_MIDI_H
   3:../../libDaisy//src/hid/midi.h **** #define DSY_MIDI_H
   4:../../libDaisy//src/hid/midi.h **** 
   5:../../libDaisy//src/hid/midi.h **** // TODO: make this adjustable
   6:../../libDaisy//src/hid/midi.h **** #define SYSEX_BUFFER_LEN 128
   7:../../libDaisy//src/hid/midi.h **** 
   8:../../libDaisy//src/hid/midi.h **** #include <stdint.h>
   9:../../libDaisy//src/hid/midi.h **** #include <stdlib.h>
  10:../../libDaisy//src/hid/midi.h **** #include "per/uart.h"
  11:../../libDaisy//src/hid/midi.h **** #include "util/ringbuffer.h"
  12:../../libDaisy//src/hid/midi.h **** #include "hid/MidiEvent.h"
  13:../../libDaisy//src/hid/midi.h **** #include "hid/usb_midi.h"
  14:../../libDaisy//src/hid/midi.h **** #include "sys/system.h"
  15:../../libDaisy//src/hid/midi.h **** 
  16:../../libDaisy//src/hid/midi.h **** namespace daisy
  17:../../libDaisy//src/hid/midi.h **** {
  18:../../libDaisy//src/hid/midi.h **** /** @brief   Transport layer for sending and receiving MIDI data over UART 
  19:../../libDaisy//src/hid/midi.h ****  *  @details This is the mode of communication used for TRS and DIN MIDI
  20:../../libDaisy//src/hid/midi.h ****  *  @ingroup midi
  21:../../libDaisy//src/hid/midi.h **** */
  22:../../libDaisy//src/hid/midi.h **** class MidiUartTransport
  23:../../libDaisy//src/hid/midi.h **** {
  24:../../libDaisy//src/hid/midi.h ****   public:
  25:../../libDaisy//src/hid/midi.h ****     MidiUartTransport() {}
  26:../../libDaisy//src/hid/midi.h ****     ~MidiUartTransport() {}
  27:../../libDaisy//src/hid/midi.h **** 
  28:../../libDaisy//src/hid/midi.h ****     struct Config
  29:../../libDaisy//src/hid/midi.h ****     {
  30:../../libDaisy//src/hid/midi.h ****         UartHandler::Config::Peripheral periph;
  31:../../libDaisy//src/hid/midi.h ****         dsy_gpio_pin                    rx;
  32:../../libDaisy//src/hid/midi.h ****         dsy_gpio_pin                    tx;
  33:../../libDaisy//src/hid/midi.h **** 
  34:../../libDaisy//src/hid/midi.h ****         Config()
  35:../../libDaisy//src/hid/midi.h ****         {
  36:../../libDaisy//src/hid/midi.h ****             periph = UartHandler::Config::Peripheral::USART_1;
  37:../../libDaisy//src/hid/midi.h ****             rx     = {DSY_GPIOB, 7};
  38:../../libDaisy//src/hid/midi.h ****             tx     = {DSY_GPIOB, 6};
  39:../../libDaisy//src/hid/midi.h ****         }
  40:../../libDaisy//src/hid/midi.h ****     };
  41:../../libDaisy//src/hid/midi.h **** 
  42:../../libDaisy//src/hid/midi.h ****     inline void Init(Config config)
ARM GAS  /var/folders/ky/97y1n_614tj15gjp3pmt3wd00000gn/T//cc7uyuiG.s 			page 3


  43:../../libDaisy//src/hid/midi.h ****     {
  44:../../libDaisy//src/hid/midi.h ****         UartHandler::Config uart_config;
  45:../../libDaisy//src/hid/midi.h **** 
  46:../../libDaisy//src/hid/midi.h ****         //defaults
  47:../../libDaisy//src/hid/midi.h ****         uart_config.baudrate   = 31250;
  48:../../libDaisy//src/hid/midi.h ****         uart_config.stopbits   = UartHandler::Config::StopBits::BITS_1;
  49:../../libDaisy//src/hid/midi.h ****         uart_config.parity     = UartHandler::Config::Parity::NONE;
  50:../../libDaisy//src/hid/midi.h ****         uart_config.mode       = UartHandler::Config::Mode::TX_RX;
  51:../../libDaisy//src/hid/midi.h ****         uart_config.wordlength = UartHandler::Config::WordLength::BITS_8;
  52:../../libDaisy//src/hid/midi.h **** 
  53:../../libDaisy//src/hid/midi.h ****         //user settings
  54:../../libDaisy//src/hid/midi.h ****         uart_config.periph        = config.periph;
  55:../../libDaisy//src/hid/midi.h ****         uart_config.pin_config.rx = config.rx;
  56:../../libDaisy//src/hid/midi.h ****         uart_config.pin_config.tx = config.tx;
  57:../../libDaisy//src/hid/midi.h **** 
  58:../../libDaisy//src/hid/midi.h ****         uart_.Init(uart_config);
  59:../../libDaisy//src/hid/midi.h ****     }
  60:../../libDaisy//src/hid/midi.h **** 
  61:../../libDaisy//src/hid/midi.h ****     inline void    StartRx() { uart_.StartRx(); }
  62:../../libDaisy//src/hid/midi.h ****     inline size_t  Readable() { return uart_.Readable(); }
  63:../../libDaisy//src/hid/midi.h ****     inline uint8_t Rx() { return uart_.PopRx(); }
  64:../../libDaisy//src/hid/midi.h ****     inline bool    RxActive() { return uart_.RxActive(); }
  65:../../libDaisy//src/hid/midi.h ****     inline void    FlushRx() { uart_.FlushRx(); }
  66:../../libDaisy//src/hid/midi.h ****     inline void    Tx(uint8_t* buff, size_t size) { uart_.PollTx(buff, size); }
  67:../../libDaisy//src/hid/midi.h **** 
  68:../../libDaisy//src/hid/midi.h ****   private:
  69:../../libDaisy//src/hid/midi.h ****     UartHandler uart_;
  70:../../libDaisy//src/hid/midi.h **** };
  71:../../libDaisy//src/hid/midi.h **** 
  72:../../libDaisy//src/hid/midi.h **** /** 
  73:../../libDaisy//src/hid/midi.h ****     @brief Simple MIDI Handler \n 
  74:../../libDaisy//src/hid/midi.h ****     Parses bytes from an input into valid MidiEvents. \n 
  75:../../libDaisy//src/hid/midi.h ****     The MidiEvents fill a FIFO queue that the user can pop messages from.
  76:../../libDaisy//src/hid/midi.h ****     @author shensley
  77:../../libDaisy//src/hid/midi.h ****     @date March 2020
  78:../../libDaisy//src/hid/midi.h ****     @ingroup midi
  79:../../libDaisy//src/hid/midi.h **** */
  80:../../libDaisy//src/hid/midi.h **** template <typename Transport>
  81:../../libDaisy//src/hid/midi.h **** class MidiHandler
  82:../../libDaisy//src/hid/midi.h **** {
  83:../../libDaisy//src/hid/midi.h ****   public:
  84:../../libDaisy//src/hid/midi.h ****     MidiHandler() {}
  85:../../libDaisy//src/hid/midi.h ****     ~MidiHandler() {}
  38              		.loc 2 85 5 view .LVU1
  39              	.LBB268:
  40              	.LBI268:
  26:../../libDaisy//src/hid/midi.h **** 
  41              		.loc 2 26 5 view .LVU2
  26:../../libDaisy//src/hid/midi.h **** 
  42              		.loc 2 26 5 is_stmt 0 view .LVU3
  43              	.LBE268:
  44              	.LBE267:
  45              	.LBB269:
  46              	.LBI269:
  47              		.file 3 "../../libDaisy//src/hid/rgb_led.h"
   1:../../libDaisy//src/hid/rgb_led.h **** #pragma once
   2:../../libDaisy//src/hid/rgb_led.h **** #ifndef DSY_RGB_LED_H
ARM GAS  /var/folders/ky/97y1n_614tj15gjp3pmt3wd00000gn/T//cc7uyuiG.s 			page 4


   3:../../libDaisy//src/hid/rgb_led.h **** #define DSY_RGB_LED_H
   4:../../libDaisy//src/hid/rgb_led.h **** #include "hid/led.h"
   5:../../libDaisy//src/hid/rgb_led.h **** #include "util/color.h"
   6:../../libDaisy//src/hid/rgb_led.h **** 
   7:../../libDaisy//src/hid/rgb_led.h **** namespace daisy
   8:../../libDaisy//src/hid/rgb_led.h **** {
   9:../../libDaisy//src/hid/rgb_led.h **** /** @addtogroup feedback
  10:../../libDaisy//src/hid/rgb_led.h ****     @{
  11:../../libDaisy//src/hid/rgb_led.h **** */
  12:../../libDaisy//src/hid/rgb_led.h **** 
  13:../../libDaisy//src/hid/rgb_led.h **** /** 3x LEDs configured as an RGB for ease of use. */
  14:../../libDaisy//src/hid/rgb_led.h **** class RgbLed
  15:../../libDaisy//src/hid/rgb_led.h **** {
  16:../../libDaisy//src/hid/rgb_led.h ****   public:
  17:../../libDaisy//src/hid/rgb_led.h ****     RgbLed() {}
  18:../../libDaisy//src/hid/rgb_led.h ****     ~RgbLed() {}
  48              		.loc 3 18 5 is_stmt 1 view .LVU4
  49              	.LBB270:
  50              	.LBI270:
  51              		.file 4 "../../libDaisy//src/hid/led.h"
   1:../../libDaisy//src/hid/led.h **** 
   2:../../libDaisy//src/hid/led.h **** #pragma once
   3:../../libDaisy//src/hid/led.h **** #ifndef DSY_LED_H
   4:../../libDaisy//src/hid/led.h **** #define DSY_LED_H
   5:../../libDaisy//src/hid/led.h **** #include "daisy_core.h"
   6:../../libDaisy//src/hid/led.h **** #include "per/gpio.h"
   7:../../libDaisy//src/hid/led.h **** 
   8:../../libDaisy//src/hid/led.h **** /* TODO - Get this set up to work with the dev_leddriver stuff as well
   9:../../libDaisy//src/hid/led.h **** - Setup Hardware PWM for pins that have it
  10:../../libDaisy//src/hid/led.h **** */
  11:../../libDaisy//src/hid/led.h **** 
  12:../../libDaisy//src/hid/led.h **** namespace daisy
  13:../../libDaisy//src/hid/led.h **** {
  14:../../libDaisy//src/hid/led.h **** /**
  15:../../libDaisy//src/hid/led.h ****     @brief LED Class providing simple Software PWM ability, etc \n 
  16:../../libDaisy//src/hid/led.h ****     Eventually this will work with hardware PWM, and external LED Driver devices as well.
  17:../../libDaisy//src/hid/led.h ****     @author shensley
  18:../../libDaisy//src/hid/led.h ****     @date March 2020
  19:../../libDaisy//src/hid/led.h ****     @ingroup feedback
  20:../../libDaisy//src/hid/led.h **** */
  21:../../libDaisy//src/hid/led.h **** class Led
  22:../../libDaisy//src/hid/led.h **** {
  23:../../libDaisy//src/hid/led.h ****   public:
  24:../../libDaisy//src/hid/led.h ****     Led() {}
  25:../../libDaisy//src/hid/led.h ****     ~Led() {}
  52              		.loc 4 25 5 view .LVU5
  53              		.loc 4 25 5 is_stmt 0 view .LVU6
  54              	.LBE270:
  55              	.LBB271:
  56              	.LBI271:
  57              		.loc 4 25 5 is_stmt 1 view .LVU7
  58              		.loc 4 25 5 is_stmt 0 view .LVU8
  59              	.LBE271:
  60              	.LBB272:
  61              	.LBI272:
  62              		.loc 4 25 5 is_stmt 1 view .LVU9
  63              		.loc 4 25 5 is_stmt 0 view .LVU10
ARM GAS  /var/folders/ky/97y1n_614tj15gjp3pmt3wd00000gn/T//cc7uyuiG.s 			page 5


  64              	.LBE272:
  65              	.LBE269:
  66              	.LBB273:
  67              	.LBI273:
  68              		.loc 3 18 5 is_stmt 1 view .LVU11
  69              	.LBB274:
  70              	.LBI274:
  71              		.loc 4 25 5 view .LVU12
  72              		.loc 4 25 5 is_stmt 0 view .LVU13
  73              	.LBE274:
  74              	.LBB275:
  75              	.LBI275:
  76              		.loc 4 25 5 is_stmt 1 view .LVU14
  77              		.loc 4 25 5 is_stmt 0 view .LVU15
  78              	.LBE275:
  79              	.LBB276:
  80              	.LBI276:
  81              		.loc 4 25 5 is_stmt 1 view .LVU16
  82              		.loc 4 25 5 is_stmt 0 view .LVU17
  83              	.LBE276:
  84              	.LBE273:
  85              	.LBB277:
  86              	.LBI277:
  87              		.file 5 "../../libDaisy//src/hid/switch.h"
   1:../../libDaisy//src/hid/switch.h **** #pragma once
   2:../../libDaisy//src/hid/switch.h **** #ifndef DSY_SWITCH_H
   3:../../libDaisy//src/hid/switch.h **** #define DSY_SWITCH_H
   4:../../libDaisy//src/hid/switch.h **** #include "daisy_core.h"
   5:../../libDaisy//src/hid/switch.h **** #include "per/gpio.h"
   6:../../libDaisy//src/hid/switch.h **** #include "sys/system.h"
   7:../../libDaisy//src/hid/switch.h **** 
   8:../../libDaisy//src/hid/switch.h **** namespace daisy
   9:../../libDaisy//src/hid/switch.h **** {
  10:../../libDaisy//src/hid/switch.h **** /** 
  11:../../libDaisy//src/hid/switch.h ****     Generic Class for handling momentary/latching switches \n 
  12:../../libDaisy//src/hid/switch.h ****     Inspired/influenced by Mutable Instruments (pichenettes) Switch classes
  13:../../libDaisy//src/hid/switch.h ****     @author Stephen Hensley
  14:../../libDaisy//src/hid/switch.h ****     @date December 2019
  15:../../libDaisy//src/hid/switch.h ****     @ingroup controls
  16:../../libDaisy//src/hid/switch.h **** */
  17:../../libDaisy//src/hid/switch.h **** class Switch
  18:../../libDaisy//src/hid/switch.h **** {
  19:../../libDaisy//src/hid/switch.h ****   public:
  20:../../libDaisy//src/hid/switch.h ****     /** Specifies the expected behavior of the switch */
  21:../../libDaisy//src/hid/switch.h ****     enum Type
  22:../../libDaisy//src/hid/switch.h ****     {
  23:../../libDaisy//src/hid/switch.h ****         TYPE_TOGGLE,    /**< & */
  24:../../libDaisy//src/hid/switch.h ****         TYPE_MOMENTARY, /**< & */
  25:../../libDaisy//src/hid/switch.h ****     };
  26:../../libDaisy//src/hid/switch.h ****     /** Specifies whether the pressed is HIGH or LOW. */
  27:../../libDaisy//src/hid/switch.h ****     enum Polarity
  28:../../libDaisy//src/hid/switch.h ****     {
  29:../../libDaisy//src/hid/switch.h ****         POLARITY_NORMAL,   /**< & */
  30:../../libDaisy//src/hid/switch.h ****         POLARITY_INVERTED, /**< & */
  31:../../libDaisy//src/hid/switch.h ****     };
  32:../../libDaisy//src/hid/switch.h **** 
  33:../../libDaisy//src/hid/switch.h ****     /** Specifies whether to use built-in Pull Up/Down resistors to hold button at a given state wh
ARM GAS  /var/folders/ky/97y1n_614tj15gjp3pmt3wd00000gn/T//cc7uyuiG.s 			page 6


  34:../../libDaisy//src/hid/switch.h ****     enum Pull
  35:../../libDaisy//src/hid/switch.h ****     {
  36:../../libDaisy//src/hid/switch.h ****         PULL_UP,   /**< & */
  37:../../libDaisy//src/hid/switch.h ****         PULL_DOWN, /**< & */
  38:../../libDaisy//src/hid/switch.h ****         PULL_NONE, /**< & */
  39:../../libDaisy//src/hid/switch.h ****     };
  40:../../libDaisy//src/hid/switch.h **** 
  41:../../libDaisy//src/hid/switch.h ****     Switch() {}
  42:../../libDaisy//src/hid/switch.h ****     ~Switch() {}
  88              		.loc 5 42 5 is_stmt 1 view .LVU18
  89              		.loc 5 42 5 is_stmt 0 view .LVU19
  90              	.LBE277:
  91              	.LBB278:
  92              	.LBI278:
  93              		.loc 5 42 5 is_stmt 1 view .LVU20
  94              		.loc 5 42 5 is_stmt 0 view .LVU21
  95              	.LBE278:
  96              	.LBB279:
  97              	.LBI279:
  98              		.file 6 "../../libDaisy//src/hid/ctrl.h"
   1:../../libDaisy//src/hid/ctrl.h **** #pragma once
   2:../../libDaisy//src/hid/ctrl.h **** #ifndef DSY_KNOB_H
   3:../../libDaisy//src/hid/ctrl.h **** #define DSY_KNOB_H /**< & */
   4:../../libDaisy//src/hid/ctrl.h **** #include <stdint.h>
   5:../../libDaisy//src/hid/ctrl.h **** 
   6:../../libDaisy//src/hid/ctrl.h **** #ifdef __cplusplus
   7:../../libDaisy//src/hid/ctrl.h **** namespace daisy
   8:../../libDaisy//src/hid/ctrl.h **** {
   9:../../libDaisy//src/hid/ctrl.h **** /**
  10:../../libDaisy//src/hid/ctrl.h ****     @brief Hardware Interface for control inputs \n 
  11:../../libDaisy//src/hid/ctrl.h ****     Primarily designed for ADC input controls such as \n 
  12:../../libDaisy//src/hid/ctrl.h ****     potentiometers, and control voltage. \n 
  13:../../libDaisy//src/hid/ctrl.h ****     @author Stephen Hensley
  14:../../libDaisy//src/hid/ctrl.h ****     @date November 2019
  15:../../libDaisy//src/hid/ctrl.h ****     @ingroup controls
  16:../../libDaisy//src/hid/ctrl.h **** */
  17:../../libDaisy//src/hid/ctrl.h **** class AnalogControl
  18:../../libDaisy//src/hid/ctrl.h **** {
  19:../../libDaisy//src/hid/ctrl.h ****   public:
  20:../../libDaisy//src/hid/ctrl.h ****     /** Constructor */
  21:../../libDaisy//src/hid/ctrl.h ****     AnalogControl() {}
  22:../../libDaisy//src/hid/ctrl.h ****     /** destructor */
  23:../../libDaisy//src/hid/ctrl.h ****     ~AnalogControl() {}
  99              		.loc 6 23 5 is_stmt 1 view .LVU22
 100              		.loc 6 23 5 is_stmt 0 view .LVU23
 101              	.LBE279:
 102              	.LBB280:
 103              	.LBI280:
 104              		.loc 6 23 5 is_stmt 1 view .LVU24
 105              		.loc 6 23 5 is_stmt 0 view .LVU25
 106              	.LBE280:
 107              	.LBB281:
 108              	.LBI281:
 109              		.file 7 "../../libDaisy//src/hid/encoder.h"
   1:../../libDaisy//src/hid/encoder.h **** #pragma once
   2:../../libDaisy//src/hid/encoder.h **** #ifndef DSY_ENCODER_H
   3:../../libDaisy//src/hid/encoder.h **** #define DSY_ENCODER_H
ARM GAS  /var/folders/ky/97y1n_614tj15gjp3pmt3wd00000gn/T//cc7uyuiG.s 			page 7


   4:../../libDaisy//src/hid/encoder.h **** #include "daisy_core.h"
   5:../../libDaisy//src/hid/encoder.h **** #include "per/gpio.h"
   6:../../libDaisy//src/hid/encoder.h **** #include "hid/switch.h"
   7:../../libDaisy//src/hid/encoder.h **** 
   8:../../libDaisy//src/hid/encoder.h **** namespace daisy
   9:../../libDaisy//src/hid/encoder.h **** {
  10:../../libDaisy//src/hid/encoder.h **** /** 
  11:../../libDaisy//src/hid/encoder.h ****     @brief Generic Class for handling Quadrature Encoders \n 
  12:../../libDaisy//src/hid/encoder.h ****     Inspired/influenced by Mutable Instruments (pichenettes) Encoder classes
  13:../../libDaisy//src/hid/encoder.h ****     @author Stephen Hensley
  14:../../libDaisy//src/hid/encoder.h ****     @date December 2019
  15:../../libDaisy//src/hid/encoder.h ****     @ingroup controls
  16:../../libDaisy//src/hid/encoder.h **** */
  17:../../libDaisy//src/hid/encoder.h **** class Encoder
  18:../../libDaisy//src/hid/encoder.h **** {
  19:../../libDaisy//src/hid/encoder.h ****   public:
  20:../../libDaisy//src/hid/encoder.h ****     Encoder() {}
  21:../../libDaisy//src/hid/encoder.h ****     ~Encoder() {}
 110              		.loc 7 21 5 is_stmt 1 view .LVU26
 111              	.LBB282:
 112              	.LBI282:
 113              		.loc 5 42 5 view .LVU27
 114              		.loc 5 42 5 is_stmt 0 view .LVU28
 115              	.LBE282:
 116              	.LBE281:
 117              	.LBB283:
 118              	.LBI283:
 119              		.file 8 "../../libDaisy//src/daisy_seed.h"
   1:../../libDaisy//src/daisy_seed.h **** #pragma once
   2:../../libDaisy//src/daisy_seed.h **** #ifndef DSY_SEED_H
   3:../../libDaisy//src/daisy_seed.h **** #define DSY_SEED_H
   4:../../libDaisy//src/daisy_seed.h **** 
   5:../../libDaisy//src/daisy_seed.h **** #include "daisy.h"
   6:../../libDaisy//src/daisy_seed.h **** 
   7:../../libDaisy//src/daisy_seed.h **** //Uncomment this out if you're still using the rev2 hardware
   8:../../libDaisy//src/daisy_seed.h **** //#define SEED_REV2
   9:../../libDaisy//src/daisy_seed.h **** 
  10:../../libDaisy//src/daisy_seed.h **** namespace daisy
  11:../../libDaisy//src/daisy_seed.h **** {
  12:../../libDaisy//src/daisy_seed.h **** /**
  13:../../libDaisy//src/daisy_seed.h ****    @brief This is the higher-level interface for the Daisy board. \n 
  14:../../libDaisy//src/daisy_seed.h ****     All basic peripheral configuration/initialization is setup here. \n
  15:../../libDaisy//src/daisy_seed.h **** 
  16:../../libDaisy//src/daisy_seed.h ****    @ingroup boards
  17:../../libDaisy//src/daisy_seed.h **** */
  18:../../libDaisy//src/daisy_seed.h **** class DaisySeed
  19:../../libDaisy//src/daisy_seed.h **** {
  20:../../libDaisy//src/daisy_seed.h ****   public:
  21:../../libDaisy//src/daisy_seed.h ****     DaisySeed() {}
  22:../../libDaisy//src/daisy_seed.h ****     ~DaisySeed() {}
 120              		.loc 8 22 5 is_stmt 1 view .LVU29
 121              	.LBB284:
 122              	.LBI284:
 123              		.file 9 "../../libDaisy//src/sys/system.h"
   1:../../libDaisy//src/sys/system.h **** #ifndef DSY_SYSTEM_H
   2:../../libDaisy//src/sys/system.h **** #define DSY_SYSTEM_H
   3:../../libDaisy//src/sys/system.h **** 
ARM GAS  /var/folders/ky/97y1n_614tj15gjp3pmt3wd00000gn/T//cc7uyuiG.s 			page 8


   4:../../libDaisy//src/sys/system.h **** #ifndef UNIT_TEST // for unit tests, a dummy implementation is provided below
   5:../../libDaisy//src/sys/system.h **** 
   6:../../libDaisy//src/sys/system.h **** #include <cstdint>
   7:../../libDaisy//src/sys/system.h **** #include "per/tim.h"
   8:../../libDaisy//src/sys/system.h **** 
   9:../../libDaisy//src/sys/system.h **** namespace daisy
  10:../../libDaisy//src/sys/system.h **** {
  11:../../libDaisy//src/sys/system.h **** /** A handle for interacting with the Core System. 
  12:../../libDaisy//src/sys/system.h ****  ** This includes the Clock tree, MPU, global DMA initialization,
  13:../../libDaisy//src/sys/system.h ****  ** cache handling, and any other necessary global initiailzation
  14:../../libDaisy//src/sys/system.h ****  **
  15:../../libDaisy//src/sys/system.h ****  ** @author shensley
  16:../../libDaisy//src/sys/system.h ****  ** @ingroup system
  17:../../libDaisy//src/sys/system.h ****  */
  18:../../libDaisy//src/sys/system.h **** class System
  19:../../libDaisy//src/sys/system.h **** {
  20:../../libDaisy//src/sys/system.h ****   public:
  21:../../libDaisy//src/sys/system.h ****     /** Contains settings for initializing the System */
  22:../../libDaisy//src/sys/system.h ****     struct Config
  23:../../libDaisy//src/sys/system.h ****     {
  24:../../libDaisy//src/sys/system.h ****         /** Specifies the system clock frequency that feeds APB/AHB clocks, etc. */
  25:../../libDaisy//src/sys/system.h ****         enum class SysClkFreq
  26:../../libDaisy//src/sys/system.h ****         {
  27:../../libDaisy//src/sys/system.h ****             FREQ_400MHZ,
  28:../../libDaisy//src/sys/system.h ****             FREQ_480MHZ,
  29:../../libDaisy//src/sys/system.h ****         };
  30:../../libDaisy//src/sys/system.h **** 
  31:../../libDaisy//src/sys/system.h ****         /** Method to call on the struct to set to defaults
  32:../../libDaisy//src/sys/system.h ****          ** CPU Freq set to 400MHz
  33:../../libDaisy//src/sys/system.h ****          ** Cache Enabled 
  34:../../libDaisy//src/sys/system.h ****          ** */
  35:../../libDaisy//src/sys/system.h ****         void Defaults()
  36:../../libDaisy//src/sys/system.h ****         {
  37:../../libDaisy//src/sys/system.h ****             cpu_freq    = SysClkFreq::FREQ_400MHZ;
  38:../../libDaisy//src/sys/system.h ****             use_dcache  = true;
  39:../../libDaisy//src/sys/system.h ****             use_icache  = true;
  40:../../libDaisy//src/sys/system.h ****             skip_clocks = false;
  41:../../libDaisy//src/sys/system.h ****         }
  42:../../libDaisy//src/sys/system.h **** 
  43:../../libDaisy//src/sys/system.h ****         /** Method to call on the struct to set to boost mode:
  44:../../libDaisy//src/sys/system.h ****          ** CPU Freq set to 480MHz
  45:../../libDaisy//src/sys/system.h ****          ** Cache Enabled 
  46:../../libDaisy//src/sys/system.h ****          ** */
  47:../../libDaisy//src/sys/system.h ****         void Boost()
  48:../../libDaisy//src/sys/system.h ****         {
  49:../../libDaisy//src/sys/system.h ****             cpu_freq    = SysClkFreq::FREQ_480MHZ;
  50:../../libDaisy//src/sys/system.h ****             use_dcache  = true;
  51:../../libDaisy//src/sys/system.h ****             use_icache  = true;
  52:../../libDaisy//src/sys/system.h ****             skip_clocks = false;
  53:../../libDaisy//src/sys/system.h ****         }
  54:../../libDaisy//src/sys/system.h **** 
  55:../../libDaisy//src/sys/system.h ****         SysClkFreq cpu_freq;
  56:../../libDaisy//src/sys/system.h ****         bool       use_dcache;
  57:../../libDaisy//src/sys/system.h ****         bool       use_icache;
  58:../../libDaisy//src/sys/system.h ****         bool       skip_clocks;
  59:../../libDaisy//src/sys/system.h ****     };
  60:../../libDaisy//src/sys/system.h **** 
ARM GAS  /var/folders/ky/97y1n_614tj15gjp3pmt3wd00000gn/T//cc7uyuiG.s 			page 9


  61:../../libDaisy//src/sys/system.h ****     /** Describes the different regions of memory available to the Daisy
  62:../../libDaisy//src/sys/system.h ****      * 
  63:../../libDaisy//src/sys/system.h ****      */
  64:../../libDaisy//src/sys/system.h ****     enum MemoryRegion
  65:../../libDaisy//src/sys/system.h ****     {
  66:../../libDaisy//src/sys/system.h ****         INTERNAL_FLASH = 0,
  67:../../libDaisy//src/sys/system.h ****         ITCMRAM,
  68:../../libDaisy//src/sys/system.h ****         DTCMRAM,
  69:../../libDaisy//src/sys/system.h ****         SRAM_D1,
  70:../../libDaisy//src/sys/system.h ****         SRAM_D2,
  71:../../libDaisy//src/sys/system.h ****         SRAM_D3,
  72:../../libDaisy//src/sys/system.h ****         SDRAM,
  73:../../libDaisy//src/sys/system.h ****         QSPI,
  74:../../libDaisy//src/sys/system.h ****         INVALID_ADDRESS,
  75:../../libDaisy//src/sys/system.h ****     };
  76:../../libDaisy//src/sys/system.h **** 
  77:../../libDaisy//src/sys/system.h ****     System() {}
  78:../../libDaisy//src/sys/system.h ****     ~System() {}
 124              		.loc 9 78 5 view .LVU30
 125              		.loc 9 78 5 is_stmt 0 view .LVU31
 126              	.LBE284:
 127              	.LBB285:
 128              	.LBI285:
 129              		.file 10 "../../libDaisy//src/hid/usb.h"
   1:../../libDaisy//src/hid/usb.h **** #pragma once
   2:../../libDaisy//src/hid/usb.h **** #ifndef DSY_HID_USB_H
   3:../../libDaisy//src/hid/usb.h **** #define DSY_HID_USB_H
   4:../../libDaisy//src/hid/usb.h **** #include <stdint.h>
   5:../../libDaisy//src/hid/usb.h **** #include <stdlib.h>
   6:../../libDaisy//src/hid/usb.h **** 
   7:../../libDaisy//src/hid/usb.h **** namespace daisy
   8:../../libDaisy//src/hid/usb.h **** /** @addtogroup human_interface
   9:../../libDaisy//src/hid/usb.h ****     @{
  10:../../libDaisy//src/hid/usb.h **** */
  11:../../libDaisy//src/hid/usb.h **** 
  12:../../libDaisy//src/hid/usb.h **** {
  13:../../libDaisy//src/hid/usb.h **** /** 
  14:../../libDaisy//src/hid/usb.h ****     @brief Interface for initializing and using the USB Peripherals on the daisy
  15:../../libDaisy//src/hid/usb.h ****     @author Stephen Hensley
  16:../../libDaisy//src/hid/usb.h ****     @date December 2019
  17:../../libDaisy//src/hid/usb.h **** */
  18:../../libDaisy//src/hid/usb.h **** class UsbHandle
  19:../../libDaisy//src/hid/usb.h **** {
  20:../../libDaisy//src/hid/usb.h ****   public:
  21:../../libDaisy//src/hid/usb.h ****     /** Return values for USBHandle Functions */
  22:../../libDaisy//src/hid/usb.h ****     enum class Result
  23:../../libDaisy//src/hid/usb.h ****     {
  24:../../libDaisy//src/hid/usb.h ****         OK,
  25:../../libDaisy//src/hid/usb.h ****         ERR,
  26:../../libDaisy//src/hid/usb.h ****     };
  27:../../libDaisy//src/hid/usb.h **** 
  28:../../libDaisy//src/hid/usb.h ****     /** Specified which of the two USB Peripherals to initialize. */
  29:../../libDaisy//src/hid/usb.h ****     enum UsbPeriph
  30:../../libDaisy//src/hid/usb.h ****     {
  31:../../libDaisy//src/hid/usb.h ****         FS_INTERNAL, /**< Internal pin */
  32:../../libDaisy//src/hid/usb.h ****         FS_EXTERNAL, /**< FS External D+ pin is Pin 38 (GPIO32). FS External D- pin is Pin 37 (GPIO
  33:../../libDaisy//src/hid/usb.h ****         FS_BOTH,     /**< Both */
ARM GAS  /var/folders/ky/97y1n_614tj15gjp3pmt3wd00000gn/T//cc7uyuiG.s 			page 10


  34:../../libDaisy//src/hid/usb.h ****     };
  35:../../libDaisy//src/hid/usb.h **** 
  36:../../libDaisy//src/hid/usb.h **** 
  37:../../libDaisy//src/hid/usb.h ****     /** Function called upon reception of a buffer */
  38:../../libDaisy//src/hid/usb.h ****     typedef void (*ReceiveCallback)(uint8_t* buff, uint32_t* len);
  39:../../libDaisy//src/hid/usb.h **** 
  40:../../libDaisy//src/hid/usb.h ****     UsbHandle() {}
  41:../../libDaisy//src/hid/usb.h **** 
  42:../../libDaisy//src/hid/usb.h ****     ~UsbHandle() {}
 130              		.loc 10 42 5 is_stmt 1 view .LVU32
 131              		.loc 10 42 5 is_stmt 0 view .LVU33
 132              	.LBE285:
 133              	.LBB286:
 134              	.LBI286:
 135              		.file 11 "../../libDaisy//src/per/adc.h"
   1:../../libDaisy//src/per/adc.h **** #pragma once
   2:../../libDaisy//src/per/adc.h **** #ifndef DSY_ADC_H
   3:../../libDaisy//src/per/adc.h **** #define DSY_ADC_H /**< Macro */
   4:../../libDaisy//src/per/adc.h **** #include <stdint.h>
   5:../../libDaisy//src/per/adc.h **** #include <stdlib.h>
   6:../../libDaisy//src/per/adc.h **** #include "daisy_core.h"
   7:../../libDaisy//src/per/adc.h **** #include "per/gpio.h"
   8:../../libDaisy//src/per/adc.h **** 
   9:../../libDaisy//src/per/adc.h **** #define DSY_ADC_MAX_CHANNELS 16 /**< Maximum number of ADC channels */
  10:../../libDaisy//src/per/adc.h **** 
  11:../../libDaisy//src/per/adc.h **** namespace daisy
  12:../../libDaisy//src/per/adc.h **** {
  13:../../libDaisy//src/per/adc.h **** /** @addtogroup per_analog
  14:../../libDaisy//src/per/adc.h ****     @{
  15:../../libDaisy//src/per/adc.h **** */
  16:../../libDaisy//src/per/adc.h **** 
  17:../../libDaisy//src/per/adc.h **** /* While there may not be many configuration options here,
  18:../../libDaisy//src/per/adc.h **** using a struct like this allows us to add more configuration
  19:../../libDaisy//src/per/adc.h **** later without breaking existing functionality.
  20:../../libDaisy//src/per/adc.h **** */
  21:../../libDaisy//src/per/adc.h **** 
  22:../../libDaisy//src/per/adc.h **** /** @brief   Configuration Structure for an ADC Channel 
  23:../../libDaisy//src/per/adc.h ****  *  @details This can be used to configure a a single input, 
  24:../../libDaisy//src/per/adc.h ****  *           or a multiplexed input, allowing up to 8 inputs on 
  25:../../libDaisy//src/per/adc.h ****  *           one channel.
  26:../../libDaisy//src/per/adc.h ****  *  @note    Sharing data lines to multiple muxes _is_ possible, but
  27:../../libDaisy//src/per/adc.h ****  *           each channel sharing data lines must be set to the maximum
  28:../../libDaisy//src/per/adc.h ****  *           number of channels, even if some multiplexers have fewer
  29:../../libDaisy//src/per/adc.h ****  *           inputs connected.
  30:../../libDaisy//src/per/adc.h **** */
  31:../../libDaisy//src/per/adc.h **** struct AdcChannelConfig
  32:../../libDaisy//src/per/adc.h **** {
  33:../../libDaisy//src/per/adc.h ****     /** Which pin to use for multiplexing */
  34:../../libDaisy//src/per/adc.h ****     enum MuxPin
  35:../../libDaisy//src/per/adc.h ****     {
  36:../../libDaisy//src/per/adc.h ****         MUX_SEL_0,    /**< & */
  37:../../libDaisy//src/per/adc.h ****         MUX_SEL_1,    /**< & */
  38:../../libDaisy//src/per/adc.h ****         MUX_SEL_2,    /**< & */
  39:../../libDaisy//src/per/adc.h ****         MUX_SEL_LAST, /**< & */
  40:../../libDaisy//src/per/adc.h ****     };
  41:../../libDaisy//src/per/adc.h **** 
  42:../../libDaisy//src/per/adc.h ****     /** Initializes a single ADC pin as an ADC. 
ARM GAS  /var/folders/ky/97y1n_614tj15gjp3pmt3wd00000gn/T//cc7uyuiG.s 			page 11


  43:../../libDaisy//src/per/adc.h ****     \param pin Pin to init.
  44:../../libDaisy//src/per/adc.h ****      */
  45:../../libDaisy//src/per/adc.h ****     void InitSingle(dsy_gpio_pin pin);
  46:../../libDaisy//src/per/adc.h **** 
  47:../../libDaisy//src/per/adc.h ****     /** 
  48:../../libDaisy//src/per/adc.h ****     Initializes a single ADC pin as a Multiplexed ADC.
  49:../../libDaisy//src/per/adc.h ****     Requires a CD405X Multiplexer connected to the pin.
  50:../../libDaisy//src/per/adc.h ****     You only need to supply the mux pins that are required,
  51:../../libDaisy//src/per/adc.h ****     e.g. a 4052 mux would only require mux_0 and mux_1.
  52:../../libDaisy//src/per/adc.h ****     Internal Callbacks handle the pin addressing.
  53:../../libDaisy//src/per/adc.h ****     \param mux_channels must be 1-8
  54:../../libDaisy//src/per/adc.h ****     \param mux_0 First mux pin
  55:../../libDaisy//src/per/adc.h ****     \param mux_1 Second mux pin
  56:../../libDaisy//src/per/adc.h ****     \param mux_2 Third mux pin
  57:../../libDaisy//src/per/adc.h ****     \param adc_pin &
  58:../../libDaisy//src/per/adc.h ****     */
  59:../../libDaisy//src/per/adc.h ****     void InitMux(dsy_gpio_pin adc_pin,
  60:../../libDaisy//src/per/adc.h ****                  size_t       mux_channels,
  61:../../libDaisy//src/per/adc.h ****                  dsy_gpio_pin mux_0,
  62:../../libDaisy//src/per/adc.h ****                  dsy_gpio_pin mux_1 = {DSY_GPIOX, 0},
  63:../../libDaisy//src/per/adc.h ****                  dsy_gpio_pin mux_2 = {DSY_GPIOX, 0});
  64:../../libDaisy//src/per/adc.h **** 
  65:../../libDaisy//src/per/adc.h ****     dsy_gpio pin_;                   /**< & */
  66:../../libDaisy//src/per/adc.h ****     dsy_gpio mux_pin_[MUX_SEL_LAST]; /**< & */
  67:../../libDaisy//src/per/adc.h ****     uint8_t  mux_channels_;          /**< & */
  68:../../libDaisy//src/per/adc.h **** };
  69:../../libDaisy//src/per/adc.h **** 
  70:../../libDaisy//src/per/adc.h **** /**
  71:../../libDaisy//src/per/adc.h ****    @brief Handler for analog to digital conversion
  72:../../libDaisy//src/per/adc.h **** */
  73:../../libDaisy//src/per/adc.h **** class AdcHandle
  74:../../libDaisy//src/per/adc.h **** {
  75:../../libDaisy//src/per/adc.h ****   public:
  76:../../libDaisy//src/per/adc.h ****     /** Supported oversampling amounts */
  77:../../libDaisy//src/per/adc.h ****     enum OverSampling
  78:../../libDaisy//src/per/adc.h ****     {
  79:../../libDaisy//src/per/adc.h ****         OVS_NONE, /**< & */
  80:../../libDaisy//src/per/adc.h ****         OVS_4,    /**< & */
  81:../../libDaisy//src/per/adc.h ****         OVS_8,    /**< & */
  82:../../libDaisy//src/per/adc.h ****         OVS_16,   /**< & */
  83:../../libDaisy//src/per/adc.h ****         OVS_32,   /**< & */
  84:../../libDaisy//src/per/adc.h ****         OVS_64,   /**< & */
  85:../../libDaisy//src/per/adc.h ****         OVS_128,  /**< & */
  86:../../libDaisy//src/per/adc.h ****         OVS_256,  /**< & */
  87:../../libDaisy//src/per/adc.h ****         OVS_512,  /**< & */
  88:../../libDaisy//src/per/adc.h ****         OVS_1024, /**< & */
  89:../../libDaisy//src/per/adc.h ****         OVS_LAST, /**< & */
  90:../../libDaisy//src/per/adc.h ****     };
  91:../../libDaisy//src/per/adc.h **** 
  92:../../libDaisy//src/per/adc.h ****     AdcHandle() {}
  93:../../libDaisy//src/per/adc.h ****     ~AdcHandle() {}
 136              		.loc 11 93 5 is_stmt 1 view .LVU34
 137              		.loc 11 93 5 is_stmt 0 view .LVU35
 138              	.LBE286:
 139              	.LBB287:
 140              	.LBI287:
 141              		.file 12 "../../libDaisy//src/hid/audio.h"
ARM GAS  /var/folders/ky/97y1n_614tj15gjp3pmt3wd00000gn/T//cc7uyuiG.s 			page 12


   1:../../libDaisy//src/hid/audio.h **** #ifndef DSY_AUDIO_H
   2:../../libDaisy//src/hid/audio.h **** #define DSY_AUDIO_H /**< & */
   3:../../libDaisy//src/hid/audio.h **** 
   4:../../libDaisy//src/hid/audio.h **** #include "per/sai.h"
   5:../../libDaisy//src/hid/audio.h **** 
   6:../../libDaisy//src/hid/audio.h **** namespace daisy
   7:../../libDaisy//src/hid/audio.h **** {
   8:../../libDaisy//src/hid/audio.h **** /** @brief Audio Engine Handle
   9:../../libDaisy//src/hid/audio.h ****  *  @ingroup audio 
  10:../../libDaisy//src/hid/audio.h ****  *  @details This class allows for higher level access to an audio engine.
  11:../../libDaisy//src/hid/audio.h ****  *           If you're using a SOM like the DaisySeed or DaisyPatchSM (or any 
  12:../../libDaisy//src/hid/audio.h ****  *            board that includes one of those objects) then the intialization
  13:../../libDaisy//src/hid/audio.h ****  *            is already taken  care of.
  14:../../libDaisy//src/hid/audio.h ****  *           If you're setting up your own custom hardware, or need to make changes
  15:../../libDaisy//src/hid/audio.h ****  *           you will have to take the following steps:
  16:../../libDaisy//src/hid/audio.h ****  *             1. Create and Initialize an SaiHandle or two depending on your requirements
  17:../../libDaisy//src/hid/audio.h ****  *             2. Initialize the Audio Handle with the desired settings and the Initialized SaiHand
  18:../../libDaisy//src/hid/audio.h ****  *             3. If the connected codec requires special configuration or initialization, do so
  19:../../libDaisy//src/hid/audio.h ****  *             4. Write a callback method using either the AudioCallback or the InterleavingAudioCa
  20:../../libDaisy//src/hid/audio.h ****  *             5. Start the Audio using one of the StartAudio function
  21:../../libDaisy//src/hid/audio.h ****  */
  22:../../libDaisy//src/hid/audio.h **** class AudioHandle
  23:../../libDaisy//src/hid/audio.h **** {
  24:../../libDaisy//src/hid/audio.h ****   public:
  25:../../libDaisy//src/hid/audio.h ****     /** Manually configurable details about the Audio Engine */
  26:../../libDaisy//src/hid/audio.h ****     /** TODO: Figure out how to get samplerate in here. */
  27:../../libDaisy//src/hid/audio.h ****     struct Config
  28:../../libDaisy//src/hid/audio.h ****     {
  29:../../libDaisy//src/hid/audio.h ****         /** number of samples to process per callback */
  30:../../libDaisy//src/hid/audio.h ****         size_t blocksize;
  31:../../libDaisy//src/hid/audio.h **** 
  32:../../libDaisy//src/hid/audio.h ****         /**< Sample rate of audio */
  33:../../libDaisy//src/hid/audio.h ****         SaiHandle::Config::SampleRate samplerate;
  34:../../libDaisy//src/hid/audio.h **** 
  35:../../libDaisy//src/hid/audio.h ****         /** factor for adjustment before and after callback for hardware that may have extra headro
  36:../../libDaisy//src/hid/audio.h ****         float postgain;
  37:../../libDaisy//src/hid/audio.h **** 
  38:../../libDaisy//src/hid/audio.h ****         /** factor for additional one-sided compensation to audio path for hardware that may
  39:../../libDaisy//src/hid/audio.h ****          *  have unequal input/output ranges
  40:../../libDaisy//src/hid/audio.h ****          */
  41:../../libDaisy//src/hid/audio.h ****         float output_compensation;
  42:../../libDaisy//src/hid/audio.h **** 
  43:../../libDaisy//src/hid/audio.h ****         /** Sets default values for config struct */
  44:../../libDaisy//src/hid/audio.h ****         Config()
  45:../../libDaisy//src/hid/audio.h ****         : blocksize(48),
  46:../../libDaisy//src/hid/audio.h ****           samplerate(SaiHandle::Config::SampleRate::SAI_48KHZ),
  47:../../libDaisy//src/hid/audio.h ****           postgain(1.f),
  48:../../libDaisy//src/hid/audio.h ****           output_compensation(1.f)
  49:../../libDaisy//src/hid/audio.h ****         {
  50:../../libDaisy//src/hid/audio.h ****         }
  51:../../libDaisy//src/hid/audio.h ****     };
  52:../../libDaisy//src/hid/audio.h **** 
  53:../../libDaisy//src/hid/audio.h ****     enum class Result
  54:../../libDaisy//src/hid/audio.h ****     {
  55:../../libDaisy//src/hid/audio.h ****         OK,
  56:../../libDaisy//src/hid/audio.h ****         ERR,
  57:../../libDaisy//src/hid/audio.h ****     };
ARM GAS  /var/folders/ky/97y1n_614tj15gjp3pmt3wd00000gn/T//cc7uyuiG.s 			page 13


  58:../../libDaisy//src/hid/audio.h **** 
  59:../../libDaisy//src/hid/audio.h ****     /** Non-Interleaving input buffer
  60:../../libDaisy//src/hid/audio.h ****      * Buffer arranged by float[chn][sample] 
  61:../../libDaisy//src/hid/audio.h ****      * const so that the user can't modify the input
  62:../../libDaisy//src/hid/audio.h ****      */
  63:../../libDaisy//src/hid/audio.h ****     typedef const float* const* InputBuffer;
  64:../../libDaisy//src/hid/audio.h **** 
  65:../../libDaisy//src/hid/audio.h ****     /** Non-Interleaving output buffer
  66:../../libDaisy//src/hid/audio.h ****      * Arranged by float[chn][sample] 
  67:../../libDaisy//src/hid/audio.h ****      */
  68:../../libDaisy//src/hid/audio.h ****     typedef float** OutputBuffer;
  69:../../libDaisy//src/hid/audio.h **** 
  70:../../libDaisy//src/hid/audio.h ****     /** Type for a Non-Interleaving audio callback 
  71:../../libDaisy//src/hid/audio.h ****      * Non-Interleaving audio callbacks in daisy will be of this type
  72:../../libDaisy//src/hid/audio.h ****      */
  73:../../libDaisy//src/hid/audio.h ****     typedef void (*AudioCallback)(InputBuffer  in,
  74:../../libDaisy//src/hid/audio.h ****                                   OutputBuffer out,
  75:../../libDaisy//src/hid/audio.h ****                                   size_t       size);
  76:../../libDaisy//src/hid/audio.h **** 
  77:../../libDaisy//src/hid/audio.h ****     /** Interleaving Input buffer
  78:../../libDaisy//src/hid/audio.h ****      ** audio is prepared as { L0, R0, L1, R1, . . . LN, RN }]
  79:../../libDaisy//src/hid/audio.h ****      ** this is const, as the user shouldn't modify it
  80:../../libDaisy//src/hid/audio.h ****     */
  81:../../libDaisy//src/hid/audio.h ****     typedef const float* InterleavingInputBuffer;
  82:../../libDaisy//src/hid/audio.h **** 
  83:../../libDaisy//src/hid/audio.h ****     /** Interleaving Output buffer 
  84:../../libDaisy//src/hid/audio.h ****      ** audio is prepared as { L0, R0, L1, R1, . . . LN, RN }
  85:../../libDaisy//src/hid/audio.h ****     */
  86:../../libDaisy//src/hid/audio.h ****     typedef float* InterleavingOutputBuffer;
  87:../../libDaisy//src/hid/audio.h **** 
  88:../../libDaisy//src/hid/audio.h ****     /** Interleaving Audio Callback 
  89:../../libDaisy//src/hid/audio.h ****      * Interleaving audio callbacks in daisy must be of this type
  90:../../libDaisy//src/hid/audio.h ****      */
  91:../../libDaisy//src/hid/audio.h ****     typedef void (*InterleavingAudioCallback)(InterleavingInputBuffer  in,
  92:../../libDaisy//src/hid/audio.h ****                                               InterleavingOutputBuffer out,
  93:../../libDaisy//src/hid/audio.h ****                                               size_t                   size);
  94:../../libDaisy//src/hid/audio.h **** 
  95:../../libDaisy//src/hid/audio.h ****     AudioHandle() : pimpl_(nullptr) {}
  96:../../libDaisy//src/hid/audio.h ****     ~AudioHandle() {}
 142              		.loc 12 96 5 is_stmt 1 view .LVU36
 143              		.loc 12 96 5 is_stmt 0 view .LVU37
 144              	.LBE287:
 145              	.LBE283:
 146              		.loc 1 36 18 view .LVU38
 147 0000 7047     		bx	lr
 148              		.cfi_endproc
 149              	.LFE2538:
 151              		.weak	_ZN5daisy8DaisyPodD1Ev
 152              		.thumb_set _ZN5daisy8DaisyPodD1Ev,_ZN5daisy8DaisyPodD2Ev
 153 0002 00BF     		.section	.text._Z12randomNumberv,"ax",%progbits
 154              		.align	1
 155              		.p2align 2,,3
 156              		.global	_Z12randomNumberv
 157              		.syntax unified
 158              		.thumb
 159              		.thumb_func
 161              	_Z12randomNumberv:
ARM GAS  /var/folders/ky/97y1n_614tj15gjp3pmt3wd00000gn/T//cc7uyuiG.s 			page 14


 162              	.LFB2541:
 163              		.file 13 "MyProj.cpp"
   1:MyProj.cpp    **** #include "daisy_pod.h"
   2:MyProj.cpp    **** #include "leaf.h"
   3:MyProj.cpp    **** using namespace daisy;
   4:MyProj.cpp    **** LEAF leaf;
   5:MyProj.cpp    **** char leafMemory[470355];
   6:MyProj.cpp    **** DaisyPod hw;
   7:MyProj.cpp    **** 
   8:MyProj.cpp    **** tSimpleRetune mySimpleRetune;
   9:MyProj.cpp    **** 
  10:MyProj.cpp    **** //MORE COMPLEX DELAY ON AUDIO INPUT - adds feedback and a filter
  11:MyProj.cpp    **** // this example takes audio into the left line in channel.
  12:MyProj.cpp    **** // it also adds a delay, and the delay time is controlled by knob 1 and the delay feedback amount i
  13:MyProj.cpp    **** // a lowpass filter in the feedback loop helps it not go out of control in the high frequencies.
  14:MyProj.cpp    **** 
  15:MyProj.cpp    **** 
  16:MyProj.cpp    **** 
  17:MyProj.cpp    **** float randomNumber()
  18:MyProj.cpp    **** {
 164              		.loc 13 18 1 is_stmt 1 view -0
 165              		.cfi_startproc
 166              		@ args = 0, pretend = 0, frame = 0
 167              		@ frame_needed = 0, uses_anonymous_args = 0
 168              		@ link register save eliminated.
  19:MyProj.cpp    ****     return Random::GetFloat(0.0f, 1.0f);
 169              		.loc 13 19 5 view .LVU40
 170              		.loc 13 19 28 is_stmt 0 view .LVU41
 171 0000 F7EE000A 		vmov.f32	s1, #1.0e+0
 172 0004 9FED010A 		vldr.32	s0, .L4
 173 0008 FFF7FEBF 		b	_ZN5daisy6Random8GetFloatEff
 174              	.LVL1:
 175              	.L5:
 176              		.align	2
 177              	.L4:
 178 000c 00000000 		.word	0
 179              		.cfi_endproc
 180              	.LFE2541:
 182              		.section	.text._Z13AudioCallbackPKPKfPPfj,"ax",%progbits
 183              		.align	1
 184              		.p2align 2,,3
 185              		.global	_Z13AudioCallbackPKPKfPPfj
 186              		.syntax unified
 187              		.thumb
 188              		.thumb_func
 190              	_Z13AudioCallbackPKPKfPPfj:
 191              	.LVL2:
 192              	.LFB2542:
  20:MyProj.cpp    **** }
  21:MyProj.cpp    **** 
  22:MyProj.cpp    **** 
  23:MyProj.cpp    **** void AudioCallback(AudioHandle::InputBuffer in, AudioHandle::OutputBuffer out, size_t size)
  24:MyProj.cpp    **** {
 193              		.loc 13 24 1 is_stmt 1 view -0
 194              		.cfi_startproc
 195              		@ args = 0, pretend = 0, frame = 0
 196              		@ frame_needed = 0, uses_anonymous_args = 0
ARM GAS  /var/folders/ky/97y1n_614tj15gjp3pmt3wd00000gn/T//cc7uyuiG.s 			page 15


  25:MyProj.cpp    ****     hw.ProcessAllControls();
 197              		.loc 13 25 5 view .LVU43
 198              	.LBB288:
 199              	.LBI288:
  37:../../libDaisy//src/daisy_pod.h **** 
  38:../../libDaisy//src/daisy_pod.h ****     /** Init related stuff. */
  39:../../libDaisy//src/daisy_pod.h ****     void Init(bool boost = false);
  40:../../libDaisy//src/daisy_pod.h **** 
  41:../../libDaisy//src/daisy_pod.h ****     /** Wait for a bit
  42:../../libDaisy//src/daisy_pod.h ****     \param del Time to wait in ms.
  43:../../libDaisy//src/daisy_pod.h ****     */
  44:../../libDaisy//src/daisy_pod.h ****     void DelayMs(size_t del);
  45:../../libDaisy//src/daisy_pod.h **** 
  46:../../libDaisy//src/daisy_pod.h ****     /** Starts the callback
  47:../../libDaisy//src/daisy_pod.h ****     \param cb Interleaved callback function
  48:../../libDaisy//src/daisy_pod.h ****     */
  49:../../libDaisy//src/daisy_pod.h ****     void StartAudio(AudioHandle::InterleavingAudioCallback cb);
  50:../../libDaisy//src/daisy_pod.h **** 
  51:../../libDaisy//src/daisy_pod.h ****     /** Starts the callback
  52:../../libDaisy//src/daisy_pod.h ****     \param cb multichannel callback function
  53:../../libDaisy//src/daisy_pod.h ****     */
  54:../../libDaisy//src/daisy_pod.h ****     void StartAudio(AudioHandle::AudioCallback cb);
  55:../../libDaisy//src/daisy_pod.h **** 
  56:../../libDaisy//src/daisy_pod.h ****     /**
  57:../../libDaisy//src/daisy_pod.h ****        Switch callback functions
  58:../../libDaisy//src/daisy_pod.h ****        \param cb New interleaved callback function.
  59:../../libDaisy//src/daisy_pod.h ****     */
  60:../../libDaisy//src/daisy_pod.h ****     void ChangeAudioCallback(AudioHandle::InterleavingAudioCallback cb);
  61:../../libDaisy//src/daisy_pod.h **** 
  62:../../libDaisy//src/daisy_pod.h ****     /**
  63:../../libDaisy//src/daisy_pod.h ****        Switch callback functions
  64:../../libDaisy//src/daisy_pod.h ****        \param cb New multichannel callback function.
  65:../../libDaisy//src/daisy_pod.h ****     */
  66:../../libDaisy//src/daisy_pod.h ****     void ChangeAudioCallback(AudioHandle::AudioCallback cb);
  67:../../libDaisy//src/daisy_pod.h **** 
  68:../../libDaisy//src/daisy_pod.h ****     /** Stops the audio if it is running. */
  69:../../libDaisy//src/daisy_pod.h ****     void StopAudio();
  70:../../libDaisy//src/daisy_pod.h **** 
  71:../../libDaisy//src/daisy_pod.h ****     /** Updates the Audio Sample Rate, and reinitializes.
  72:../../libDaisy//src/daisy_pod.h ****      ** Audio must be stopped for this to work.
  73:../../libDaisy//src/daisy_pod.h ****      */
  74:../../libDaisy//src/daisy_pod.h ****     void SetAudioSampleRate(SaiHandle::Config::SampleRate samplerate);
  75:../../libDaisy//src/daisy_pod.h **** 
  76:../../libDaisy//src/daisy_pod.h ****     /** Returns the audio sample rate in Hz as a floating point number.
  77:../../libDaisy//src/daisy_pod.h ****      */
  78:../../libDaisy//src/daisy_pod.h ****     float AudioSampleRate();
  79:../../libDaisy//src/daisy_pod.h **** 
  80:../../libDaisy//src/daisy_pod.h ****     /** Sets the number of samples processed per channel by the audio callback.
  81:../../libDaisy//src/daisy_pod.h ****      */
  82:../../libDaisy//src/daisy_pod.h ****     void SetAudioBlockSize(size_t blocksize);
  83:../../libDaisy//src/daisy_pod.h **** 
  84:../../libDaisy//src/daisy_pod.h ****     /** Returns the number of samples per channel in a block of audio. */
  85:../../libDaisy//src/daisy_pod.h ****     size_t AudioBlockSize();
  86:../../libDaisy//src/daisy_pod.h **** 
  87:../../libDaisy//src/daisy_pod.h ****     /** Returns the rate in Hz that the Audio callback is called */
  88:../../libDaisy//src/daisy_pod.h ****     float AudioCallbackRate();
  89:../../libDaisy//src/daisy_pod.h **** 
ARM GAS  /var/folders/ky/97y1n_614tj15gjp3pmt3wd00000gn/T//cc7uyuiG.s 			page 16


  90:../../libDaisy//src/daisy_pod.h ****     /**
  91:../../libDaisy//src/daisy_pod.h ****        Start analog to digital conversion.
  92:../../libDaisy//src/daisy_pod.h ****      */
  93:../../libDaisy//src/daisy_pod.h ****     void StartAdc();
  94:../../libDaisy//src/daisy_pod.h **** 
  95:../../libDaisy//src/daisy_pod.h ****     /** Stops Transfering data from the ADC */
  96:../../libDaisy//src/daisy_pod.h ****     void StopAdc();
  97:../../libDaisy//src/daisy_pod.h **** 
  98:../../libDaisy//src/daisy_pod.h ****     /** Call at same rate as analog reads for smooth reading.*/
  99:../../libDaisy//src/daisy_pod.h ****     void ProcessAnalogControls();
 100:../../libDaisy//src/daisy_pod.h **** 
 101:../../libDaisy//src/daisy_pod.h ****     /** Process Analog and Digital Controls */
 102:../../libDaisy//src/daisy_pod.h ****     inline void ProcessAllControls()
 200              		.loc 1 102 17 view .LVU44
 201              	.LBB289:
 103:../../libDaisy//src/daisy_pod.h ****     {
 104:../../libDaisy//src/daisy_pod.h ****         ProcessAnalogControls();
 202              		.loc 1 104 9 view .LVU45
 203              	.LBE289:
 204              	.LBE288:
  24:MyProj.cpp    ****     hw.ProcessAllControls();
 205              		.loc 13 24 1 is_stmt 0 view .LVU46
 206 0000 2DE9F843 		push	{r3, r4, r5, r6, r7, r8, r9, lr}
 207              		.cfi_def_cfa_offset 32
 208              		.cfi_offset 3, -32
 209              		.cfi_offset 4, -28
 210              		.cfi_offset 5, -24
 211              		.cfi_offset 6, -20
 212              		.cfi_offset 7, -16
 213              		.cfi_offset 8, -12
 214              		.cfi_offset 9, -8
 215              		.cfi_offset 14, -4
 216 0004 1546     		mov	r5, r2
 217 0006 0646     		mov	r6, r0
 218              	.LBB292:
 219              	.LBB290:
 220              		.loc 1 104 30 view .LVU47
 221 0008 1848     		ldr	r0, .L14
 222              	.LVL3:
 223              		.loc 1 104 30 view .LVU48
 224              	.LBE290:
 225              	.LBE292:
  24:MyProj.cpp    ****     hw.ProcessAllControls();
 226              		.loc 13 24 1 view .LVU49
 227 000a 0F46     		mov	r7, r1
 228 000c 2DED028B 		vpush.64	{d8}
 229              		.cfi_def_cfa_offset 40
 230              		.cfi_offset 80, -40
 231              		.cfi_offset 81, -36
 232              	.LBB293:
 233              	.LBB291:
 234              		.loc 1 104 30 view .LVU50
 235 0010 FFF7FEFF 		bl	_ZN5daisy8DaisyPod21ProcessAnalogControlsEv
 236              	.LVL4:
 105:../../libDaisy//src/daisy_pod.h ****         ProcessDigitalControls();
 237              		.loc 1 105 9 is_stmt 1 view .LVU51
 238              		.loc 1 105 31 is_stmt 0 view .LVU52
ARM GAS  /var/folders/ky/97y1n_614tj15gjp3pmt3wd00000gn/T//cc7uyuiG.s 			page 17


 239 0014 1548     		ldr	r0, .L14
 240 0016 FFF7FEFF 		bl	_ZN5daisy8DaisyPod22ProcessDigitalControlsEv
 241              	.LVL5:
 242              		.loc 1 105 31 view .LVU53
 243              	.LBE291:
 244              	.LBE293:
  26:MyProj.cpp    ****     //now here's the per sample stuff
  27:MyProj.cpp    ****     for (size_t i = 0; i < size; i++)
 245              		.loc 13 27 5 is_stmt 1 view .LVU54
 246              	.LBB294:
 247              		.loc 13 27 26 view .LVU55
 248 001a 15B3     		cbz	r5, .L6
 249              		.loc 13 27 17 is_stmt 0 view .LVU56
 250 001c 0024     		movs	r4, #0
 251 001e DFF84C80 		ldr	r8, .L14
 252              	.LVL6:
 253              	.L8:
 254              	.LBB295:
  28:MyProj.cpp    ****     {
  29:MyProj.cpp    ****         //get the next sample from the left channel of the input (right channel would be in[1][i])
  30:MyProj.cpp    ****         float mySample = in[0][i];
 255              		.loc 13 30 9 is_stmt 1 discriminator 2 view .LVU57
 256              		.loc 13 30 15 is_stmt 0 discriminator 2 view .LVU58
 257 0022 3368     		ldr	r3, [r6]
  31:MyProj.cpp    **** 
  32:MyProj.cpp    ****         tSimpleRetune_tuneVoice(&mySimpleRetune, 0, 2.0f * hw.knob1.Value());
 258              		.loc 13 32 32 discriminator 2 view .LVU59
 259 0024 0021     		movs	r1, #0
 260 0026 98ED1C0A 		vldr.32	s0, [r8, #112]
 261 002a 4FEA8409 		lsl	r9, r4, #2
  30:MyProj.cpp    **** 
 262              		.loc 13 30 15 discriminator 2 view .LVU60
 263 002e 03EB8403 		add	r3, r3, r4, lsl #2
 264              		.loc 13 32 32 discriminator 2 view .LVU61
 265 0032 0F48     		ldr	r0, .L14+4
 266 0034 30EE000A 		vadd.f32	s0, s0, s0
 267              	.LBE295:
  27:MyProj.cpp    ****     {
 268              		.loc 13 27 5 discriminator 2 view .LVU62
 269 0038 0134     		adds	r4, r4, #1
 270              	.LVL7:
 271              	.LBB298:
  30:MyProj.cpp    **** 
 272              		.loc 13 30 15 discriminator 2 view .LVU63
 273 003a 93ED008A 		vldr.32	s16, [r3]
 274              	.LVL8:
 275              		.loc 13 32 9 is_stmt 1 discriminator 2 view .LVU64
 276              	.LBB296:
 277              	.LBI296:
  24:../../libDaisy//src/hid/ctrl.h **** 
  25:../../libDaisy//src/hid/ctrl.h ****     /** 
  26:../../libDaisy//src/hid/ctrl.h ****     Initializes the control
  27:../../libDaisy//src/hid/ctrl.h ****     \param *adcptr is a pointer to the raw adc read value -- This can be acquired with dsy_adc_get_
  28:../../libDaisy//src/hid/ctrl.h ****     \param sr is the samplerate in Hz that the Process function will be called at.
  29:../../libDaisy//src/hid/ctrl.h ****     \param flip determines whether the input is flipped (i.e. 1.f - input) or not before being proc
  30:../../libDaisy//src/hid/ctrl.h ****     \param invert determines whether the input is inverted (i.e. -1.f * input) or note before being
  31:../../libDaisy//src/hid/ctrl.h ****     \param slew_seconds is the slew time in seconds that it takes for the control to change to a ne
ARM GAS  /var/folders/ky/97y1n_614tj15gjp3pmt3wd00000gn/T//cc7uyuiG.s 			page 18


  32:../../libDaisy//src/hid/ctrl.h ****     */
  33:../../libDaisy//src/hid/ctrl.h ****     void Init(uint16_t *adcptr,
  34:../../libDaisy//src/hid/ctrl.h ****               float     sr,
  35:../../libDaisy//src/hid/ctrl.h ****               bool      flip         = false,
  36:../../libDaisy//src/hid/ctrl.h ****               bool      invert       = false,
  37:../../libDaisy//src/hid/ctrl.h ****               float     slew_seconds = 0.002f);
  38:../../libDaisy//src/hid/ctrl.h **** 
  39:../../libDaisy//src/hid/ctrl.h ****     /** 
  40:../../libDaisy//src/hid/ctrl.h ****     This Initializes the AnalogControl for a -5V to 5V inverted input
  41:../../libDaisy//src/hid/ctrl.h ****     All of the Init details are the same otherwise
  42:../../libDaisy//src/hid/ctrl.h ****     \param *adcptr Pointer to analog digital converter
  43:../../libDaisy//src/hid/ctrl.h ****     \param sr Audio engine sample rate
  44:../../libDaisy//src/hid/ctrl.h ****     */
  45:../../libDaisy//src/hid/ctrl.h ****     void InitBipolarCv(uint16_t *adcptr, float sr);
  46:../../libDaisy//src/hid/ctrl.h **** 
  47:../../libDaisy//src/hid/ctrl.h ****     /** 
  48:../../libDaisy//src/hid/ctrl.h ****     Filters, and transforms a raw ADC read into a normalized range.
  49:../../libDaisy//src/hid/ctrl.h ****     this should be called at the rate of specified by samplerate at Init time.   
  50:../../libDaisy//src/hid/ctrl.h ****     Default Initializations will return 0.0 -> 1.0
  51:../../libDaisy//src/hid/ctrl.h ****     Bi-polar CV inputs will return -1.0 -> 1.0
  52:../../libDaisy//src/hid/ctrl.h ****     */
  53:../../libDaisy//src/hid/ctrl.h ****     float Process();
  54:../../libDaisy//src/hid/ctrl.h **** 
  55:../../libDaisy//src/hid/ctrl.h ****     /** Returns the current stored value, without reprocessing */
  56:../../libDaisy//src/hid/ctrl.h ****     inline float Value() const { return val_; }
 278              		.loc 6 56 18 discriminator 2 view .LVU65
 279              	.LBB297:
 280              		.loc 6 56 34 discriminator 2 view .LVU66
 281              		.loc 6 56 34 is_stmt 0 discriminator 2 view .LVU67
 282              	.LBE297:
 283              	.LBE296:
 284              		.loc 13 32 32 discriminator 2 view .LVU68
 285 003e FFF7FEFF 		bl	tSimpleRetune_tuneVoice
 286              	.LVL9:
  33:MyProj.cpp    ****         mySample = tSimpleRetune_tick(&mySimpleRetune, mySample);
 287              		.loc 13 33 9 is_stmt 1 discriminator 2 view .LVU69
 288              		.loc 13 33 38 is_stmt 0 discriminator 2 view .LVU70
 289 0042 0B48     		ldr	r0, .L14+4
 290 0044 B0EE480A 		vmov.f32	s0, s16
 291 0048 FFF7FEFF 		bl	tSimpleRetune_tick
 292              	.LVL10:
 293              	.LBE298:
  27:MyProj.cpp    ****     {
 294              		.loc 13 27 26 discriminator 2 view .LVU71
 295 004c A542     		cmp	r5, r4
 296              	.LBB299:
  34:MyProj.cpp    **** 
  35:MyProj.cpp    **** 
  36:MyProj.cpp    ****         out[0][i] = mySample;
 297              		.loc 13 36 19 discriminator 2 view .LVU72
 298 004e D7E90023 		ldrd	r2, r3, [r7]
 299 0052 02EB090C 		add	ip, r2, r9
  37:MyProj.cpp    ****         out[1][i] = mySample;
 300              		.loc 13 37 19 discriminator 2 view .LVU73
 301 0056 4B44     		add	r3, r3, r9
  36:MyProj.cpp    ****         out[1][i] = mySample;
 302              		.loc 13 36 19 discriminator 2 view .LVU74
ARM GAS  /var/folders/ky/97y1n_614tj15gjp3pmt3wd00000gn/T//cc7uyuiG.s 			page 19


 303 0058 8CED000A 		vstr.32	s0, [ip]
 304              		.loc 13 37 9 is_stmt 1 discriminator 2 view .LVU75
 305              		.loc 13 37 19 is_stmt 0 discriminator 2 view .LVU76
 306 005c 83ED000A 		vstr.32	s0, [r3]
 307              	.LBE299:
  27:MyProj.cpp    ****     {
 308              		.loc 13 27 5 is_stmt 1 discriminator 2 view .LVU77
 309              	.LVL11:
  27:MyProj.cpp    ****     {
 310              		.loc 13 27 26 discriminator 2 view .LVU78
 311 0060 DFD1     		bne	.L8
 312              	.LVL12:
 313              	.L6:
  27:MyProj.cpp    ****     {
 314              		.loc 13 27 26 is_stmt 0 discriminator 2 view .LVU79
 315              	.LBE294:
  38:MyProj.cpp    ****     }
  39:MyProj.cpp    **** }
 316              		.loc 13 39 1 view .LVU80
 317 0062 BDEC028B 		vldm	sp!, {d8}
 318              		.cfi_restore 80
 319              		.cfi_restore 81
 320              		.cfi_def_cfa_offset 32
 321 0066 BDE8F883 		pop	{r3, r4, r5, r6, r7, r8, r9, pc}
 322              	.LVL13:
 323              	.L15:
 324              		.loc 13 39 1 view .LVU81
 325 006a 00BF     		.align	2
 326              	.L14:
 327 006c 00000000 		.word	hw
 328 0070 00000000 		.word	.LANCHOR0
 329              		.cfi_endproc
 330              	.LFE2542:
 332              		.section	.text.startup.main,"ax",%progbits
 333              		.align	1
 334              		.p2align 2,,3
 335              		.global	main
 336              		.syntax unified
 337              		.thumb
 338              		.thumb_func
 340              	main:
 341              	.LFB2543:
  40:MyProj.cpp    **** 
  41:MyProj.cpp    **** int main(void)
  42:MyProj.cpp    **** {
 342              		.loc 13 42 1 is_stmt 1 view -0
 343              		.cfi_startproc
 344              		@ Volatile: function does not return.
 345              		@ args = 0, pretend = 0, frame = 0
 346              		@ frame_needed = 0, uses_anonymous_args = 0
  43:MyProj.cpp    ****     hw.Init();
 347              		.loc 13 43 5 view .LVU83
  42:MyProj.cpp    ****     hw.Init();
 348              		.loc 13 42 1 is_stmt 0 view .LVU84
 349 0000 08B5     		push	{r3, lr}
 350              		.cfi_def_cfa_offset 8
 351              		.cfi_offset 3, -8
ARM GAS  /var/folders/ky/97y1n_614tj15gjp3pmt3wd00000gn/T//cc7uyuiG.s 			page 20


 352              		.cfi_offset 14, -4
 353              		.loc 13 43 12 view .LVU85
 354 0002 0021     		movs	r1, #0
 355 0004 1A48     		ldr	r0, .L19
 356 0006 FFF7FEFF 		bl	_ZN5daisy8DaisyPod4InitEb
 357              	.LVL14:
  44:MyProj.cpp    ****     hw.SetAudioBlockSize(64); // number of samples handled per callback
 358              		.loc 13 44 5 is_stmt 1 view .LVU86
 359              		.loc 13 44 25 is_stmt 0 view .LVU87
 360 000a 4021     		movs	r1, #64
 361 000c 1848     		ldr	r0, .L19
 362 000e FFF7FEFF 		bl	_ZN5daisy8DaisyPod17SetAudioBlockSizeEj
 363              	.LVL15:
  45:MyProj.cpp    ****     hw.SetAudioSampleRate(SaiHandle::Config::SampleRate::SAI_48KHZ);
 364              		.loc 13 45 5 is_stmt 1 view .LVU88
 365              		.loc 13 45 26 is_stmt 0 view .LVU89
 366 0012 0321     		movs	r1, #3
 367 0014 1648     		ldr	r0, .L19
 368 0016 FFF7FEFF 		bl	_ZN5daisy8DaisyPod18SetAudioSampleRateENS_9SaiHandle6Config10SampleRateE
 369              	.LVL16:
  46:MyProj.cpp    ****     Random::Init();
 370              		.loc 13 46 5 is_stmt 1 view .LVU90
 371              		.loc 13 46 17 is_stmt 0 view .LVU91
 372 001a FFF7FEFF 		bl	_ZN5daisy6Random4InitEv
 373              	.LVL17:
  47:MyProj.cpp    ****     hw.StartAdc();
 374              		.loc 13 47 5 is_stmt 1 view .LVU92
 375              		.loc 13 47 16 is_stmt 0 view .LVU93
 376 001e 1448     		ldr	r0, .L19
 377 0020 FFF7FEFF 		bl	_ZN5daisy8DaisyPod8StartAdcEv
 378              	.LVL18:
  48:MyProj.cpp    **** 
  49:MyProj.cpp    ****     LEAF_init(&leaf, 48000, leafMemory, 470355, randomNumber);
 379              		.loc 13 49 5 is_stmt 1 view .LVU94
 380              		.loc 13 49 14 is_stmt 0 view .LVU95
 381 0024 134B     		ldr	r3, .L19+4
 382 0026 144A     		ldr	r2, .L19+8
 383 0028 1449     		ldr	r1, .L19+12
 384 002a 1548     		ldr	r0, .L19+16
 385 002c 9FED150A 		vldr.32	s0, .L19+20
 386 0030 FFF7FEFF 		bl	LEAF_init
 387              	.LVL19:
  50:MyProj.cpp    ****     tSimpleRetune_init(&mySimpleRetune, 1, mtof(42.0f), mtof(84.0f), 1024, &leaf);
 388              		.loc 13 50 5 is_stmt 1 view .LVU96
 389              		.loc 13 50 23 is_stmt 0 view .LVU97
 390 0034 9FED140A 		vldr.32	s0, .L19+24
 391 0038 FFF7FEFF 		bl	mtof
 392              	.LVL20:
 393 003c B0EE408A 		vmov.f32	s16, s0
 394 0040 9FED120A 		vldr.32	s0, .L19+28
 395 0044 FFF7FEFF 		bl	mtof
 396              	.LVL21:
 397 0048 0121     		movs	r1, #1
 398 004a F0EE400A 		vmov.f32	s1, s0
 399 004e 1048     		ldr	r0, .L19+32
 400 0050 B0EE480A 		vmov.f32	s0, s16
 401 0054 0A4B     		ldr	r3, .L19+16
ARM GAS  /var/folders/ky/97y1n_614tj15gjp3pmt3wd00000gn/T//cc7uyuiG.s 			page 21


 402 0056 4FF48062 		mov	r2, #1024
 403 005a FFF7FEFF 		bl	tSimpleRetune_init
 404              	.LVL22:
  51:MyProj.cpp    **** 
  52:MyProj.cpp    ****     hw.StartAudio(AudioCallback);
 405              		.loc 13 52 5 is_stmt 1 view .LVU98
 406              		.loc 13 52 18 is_stmt 0 view .LVU99
 407 005e 0D49     		ldr	r1, .L19+36
 408 0060 0348     		ldr	r0, .L19
 409 0062 FFF7FEFF 		bl	_ZN5daisy8DaisyPod10StartAudioEPFvPKPKfPPfjE
 410              	.LVL23:
 411              	.L17:
  53:MyProj.cpp    **** 
  54:MyProj.cpp    **** 
  55:MyProj.cpp    ****     while(1) {
 412              		.loc 13 55 5 is_stmt 1 discriminator 1 view .LVU100
  56:MyProj.cpp    ****         //the RGB leds on the pod need to be updated with the "update" function here to work
  57:MyProj.cpp    **** 
  58:MyProj.cpp    ****         hw.UpdateLeds();
 413              		.loc 13 58 9 discriminator 1 view .LVU101
 414              		.loc 13 58 22 is_stmt 0 discriminator 1 view .LVU102
 415 0066 0248     		ldr	r0, .L19
 416 0068 FFF7FEFF 		bl	_ZN5daisy8DaisyPod10UpdateLedsEv
 417              	.LVL24:
  55:MyProj.cpp    ****         //the RGB leds on the pod need to be updated with the "update" function here to work
 418              		.loc 13 55 5 is_stmt 1 discriminator 1 view .LVU103
 419 006c FBE7     		b	.L17
 420              	.L20:
 421 006e 00BF     		.align	2
 422              	.L19:
 423 0070 00000000 		.word	hw
 424 0074 00000000 		.word	_Z12randomNumberv
 425 0078 532D0700 		.word	470355
 426 007c 00000000 		.word	leafMemory
 427 0080 00000000 		.word	.LANCHOR1
 428 0084 00803B47 		.word	1195081728
 429 0088 00002842 		.word	1109917696
 430 008c 0000A842 		.word	1118306304
 431 0090 00000000 		.word	.LANCHOR0
 432 0094 00000000 		.word	_Z13AudioCallbackPKPKfPPfj
 433              		.cfi_endproc
 434              	.LFE2543:
 436              		.section	.text.startup._GLOBAL__sub_I_leaf,"ax",%progbits
 437              		.align	1
 438              		.p2align 2,,3
 439              		.syntax unified
 440              		.thumb
 441              		.thumb_func
 443              	_GLOBAL__sub_I_leaf:
 444              	.LFB2571:
  59:MyProj.cpp    ****     }
  60:MyProj.cpp    **** }
 445              		.loc 13 60 1 view -0
 446              		.cfi_startproc
 447              		@ args = 0, pretend = 0, frame = 0
 448              		@ frame_needed = 0, uses_anonymous_args = 0
 449              	.LBB365:
ARM GAS  /var/folders/ky/97y1n_614tj15gjp3pmt3wd00000gn/T//cc7uyuiG.s 			page 22


 450              	.LBI365:
 451              		.loc 13 60 1 view .LVU105
 452              	.LVL25:
 453              	.LBB366:
 454              	.LBB367:
 455              	.LBI367:
  35:../../libDaisy//src/daisy_pod.h ****     ~DaisyPod() {}
 456              		.loc 1 35 5 view .LVU106
 457              	.LBB368:
 458              	.LBB369:
 459              	.LBI369:
  21:../../libDaisy//src/daisy_seed.h ****     ~DaisySeed() {}
 460              		.loc 8 21 5 view .LVU107
 461              	.LBB370:
 462              	.LBB371:
 463              	.LBI371:
 464              		.file 14 "../../libDaisy//src/per/qspi.h"
   1:../../libDaisy//src/per/qspi.h **** #ifndef DSY_QSPI
   2:../../libDaisy//src/per/qspi.h **** #define DSY_QSPI /**< Macro */
   3:../../libDaisy//src/per/qspi.h **** 
   4:../../libDaisy//src/per/qspi.h **** #ifndef UNIT_TEST // for unit tests, a dummy implementation
   5:../../libDaisy//src/per/qspi.h **** 
   6:../../libDaisy//src/per/qspi.h **** #include <cstdint>
   7:../../libDaisy//src/per/qspi.h **** #include "daisy_core.h" // Added for dsy_gpio_pin typedef
   8:../../libDaisy//src/per/qspi.h **** 
   9:../../libDaisy//src/per/qspi.h **** #define DSY_QSPI_TEXT       \
  10:../../libDaisy//src/per/qspi.h ****     __attribute__((section( \
  11:../../libDaisy//src/per/qspi.h ****         ".qspiflash_text"))) /**< used for reading memory in memory_mapped mode. */
  12:../../libDaisy//src/per/qspi.h **** #define DSY_QSPI_DATA       \
  13:../../libDaisy//src/per/qspi.h ****     __attribute__((section( \
  14:../../libDaisy//src/per/qspi.h ****         ".qspiflash_data"))) /**< used for reading memory in memory_mapped mode. */
  15:../../libDaisy//src/per/qspi.h **** #define DSY_QSPI_BSS        \
  16:../../libDaisy//src/per/qspi.h ****     __attribute__((section( \
  17:../../libDaisy//src/per/qspi.h ****         ".qspiflash_bss"))) /**< used for reading memory in memory_mapped mode. */
  18:../../libDaisy//src/per/qspi.h **** 
  19:../../libDaisy//src/per/qspi.h **** namespace daisy
  20:../../libDaisy//src/per/qspi.h **** {
  21:../../libDaisy//src/per/qspi.h **** /** @addtogroup serial
  22:../../libDaisy//src/per/qspi.h **** @{
  23:../../libDaisy//src/per/qspi.h **** */
  24:../../libDaisy//src/per/qspi.h **** 
  25:../../libDaisy//src/per/qspi.h **** /** 
  26:../../libDaisy//src/per/qspi.h ****  Driver for QSPI peripheral to interface with external flash memory. \n 
  27:../../libDaisy//src/per/qspi.h ****     Currently supported QSPI Devices: \n 
  28:../../libDaisy//src/per/qspi.h ****     * IS25LP080D
  29:../../libDaisy//src/per/qspi.h **** */
  30:../../libDaisy//src/per/qspi.h **** class QSPIHandle
  31:../../libDaisy//src/per/qspi.h **** {
  32:../../libDaisy//src/per/qspi.h ****   public:
  33:../../libDaisy//src/per/qspi.h ****     enum Result
  34:../../libDaisy//src/per/qspi.h ****     {
  35:../../libDaisy//src/per/qspi.h ****         OK = 0,
  36:../../libDaisy//src/per/qspi.h ****         ERR
  37:../../libDaisy//src/per/qspi.h ****     };
  38:../../libDaisy//src/per/qspi.h **** 
  39:../../libDaisy//src/per/qspi.h ****     /** Indicates the current status of the module. 
  40:../../libDaisy//src/per/qspi.h ****          *  Warnings are indicated by a leading W.
ARM GAS  /var/folders/ky/97y1n_614tj15gjp3pmt3wd00000gn/T//cc7uyuiG.s 			page 23


  41:../../libDaisy//src/per/qspi.h ****          *  Errors are indicated by a leading E and cause an immediate exit.
  42:../../libDaisy//src/per/qspi.h ****          * 
  43:../../libDaisy//src/per/qspi.h ****          *  \param GOOD - No errors have been reported.
  44:../../libDaisy//src/per/qspi.h ****          *  \param E_HAL_ERROR - HAL code did not return HAL_OK.
  45:../../libDaisy//src/per/qspi.h ****          *  \param E_SWITCHING_MODES - An error was encountered while switching QSPI peripheral mod
  46:../../libDaisy//src/per/qspi.h ****          *  \param E_INVALID_MODE - QSPI should not be written to while the program is executing fr
  47:../../libDaisy//src/per/qspi.h ****          */
  48:../../libDaisy//src/per/qspi.h ****     enum Status
  49:../../libDaisy//src/per/qspi.h ****     {
  50:../../libDaisy//src/per/qspi.h ****         GOOD = 0,
  51:../../libDaisy//src/per/qspi.h ****         E_HAL_ERROR,
  52:../../libDaisy//src/per/qspi.h ****         E_SWITCHING_MODES,
  53:../../libDaisy//src/per/qspi.h ****         E_INVALID_MODE,
  54:../../libDaisy//src/per/qspi.h ****     };
  55:../../libDaisy//src/per/qspi.h **** 
  56:../../libDaisy//src/per/qspi.h ****     /** Configuration structure for interfacing with QSPI Driver */
  57:../../libDaisy//src/per/qspi.h ****     struct Config
  58:../../libDaisy//src/per/qspi.h ****     {
  59:../../libDaisy//src/per/qspi.h ****         /** Flash Devices supported. (Both of these are more-or-less the same, just different sizes
  60:../../libDaisy//src/per/qspi.h ****         enum Device
  61:../../libDaisy//src/per/qspi.h ****         {
  62:../../libDaisy//src/per/qspi.h ****             IS25LP080D,  /**< & */
  63:../../libDaisy//src/per/qspi.h ****             IS25LP064A,  /**< & */
  64:../../libDaisy//src/per/qspi.h ****             DEVICE_LAST, /**< & */
  65:../../libDaisy//src/per/qspi.h ****         };
  66:../../libDaisy//src/per/qspi.h **** 
  67:../../libDaisy//src/per/qspi.h ****         /** 
  68:../../libDaisy//src/per/qspi.h ****         Modes of operation.
  69:../../libDaisy//src/per/qspi.h ****         Memory Mapped mode: QSPI configured so that the QSPI can be
  70:../../libDaisy//src/per/qspi.h ****         read from starting address 0x90000000. Writing is not
  71:../../libDaisy//src/per/qspi.h ****         possible in this mode. \n 
  72:../../libDaisy//src/per/qspi.h ****         Indirect Polling mode: Device driver enabled. 
  73:../../libDaisy//src/per/qspi.h ****         */
  74:../../libDaisy//src/per/qspi.h ****         enum Mode
  75:../../libDaisy//src/per/qspi.h ****         {
  76:../../libDaisy//src/per/qspi.h ****             MEMORY_MAPPED,    /**< & */
  77:../../libDaisy//src/per/qspi.h ****             INDIRECT_POLLING, /**< & */
  78:../../libDaisy//src/per/qspi.h ****             MODE_LAST,
  79:../../libDaisy//src/per/qspi.h ****         };
  80:../../libDaisy//src/per/qspi.h **** 
  81:../../libDaisy//src/per/qspi.h ****         //SCK,  CE# (active low)
  82:../../libDaisy//src/per/qspi.h ****         struct
  83:../../libDaisy//src/per/qspi.h ****         {
  84:../../libDaisy//src/per/qspi.h ****             dsy_gpio_pin io0; /**< & */
  85:../../libDaisy//src/per/qspi.h ****             dsy_gpio_pin io1; /**< & */
  86:../../libDaisy//src/per/qspi.h ****             dsy_gpio_pin io2; /**< & */
  87:../../libDaisy//src/per/qspi.h ****             dsy_gpio_pin io3; /**< & */
  88:../../libDaisy//src/per/qspi.h ****             dsy_gpio_pin clk; /**< & */
  89:../../libDaisy//src/per/qspi.h ****             dsy_gpio_pin ncs; /**< & */
  90:../../libDaisy//src/per/qspi.h ****         } pin_config;
  91:../../libDaisy//src/per/qspi.h **** 
  92:../../libDaisy//src/per/qspi.h ****         Device device;
  93:../../libDaisy//src/per/qspi.h ****         Mode   mode;
  94:../../libDaisy//src/per/qspi.h ****     };
  95:../../libDaisy//src/per/qspi.h **** 
  96:../../libDaisy//src/per/qspi.h ****     /** 
  97:../../libDaisy//src/per/qspi.h ****         Initializes QSPI peripheral, and Resets, and prepares memory for access.
ARM GAS  /var/folders/ky/97y1n_614tj15gjp3pmt3wd00000gn/T//cc7uyuiG.s 			page 24


  98:../../libDaisy//src/per/qspi.h ****         \param config should be populated with the mode, device and pin_config before calling this 
  99:../../libDaisy//src/per/qspi.h ****         \return Result::OK or Result::ERR
 100:../../libDaisy//src/per/qspi.h ****         */
 101:../../libDaisy//src/per/qspi.h ****     Result Init(const Config& config);
 102:../../libDaisy//src/per/qspi.h **** 
 103:../../libDaisy//src/per/qspi.h ****     /** Returns the current config. */
 104:../../libDaisy//src/per/qspi.h ****     const Config& GetConfig() const;
 105:../../libDaisy//src/per/qspi.h **** 
 106:../../libDaisy//src/per/qspi.h ****     // Couldn't this just be called before anything else in init? That
 107:../../libDaisy//src/per/qspi.h ****     // would make manually calling it unnecessary.
 108:../../libDaisy//src/per/qspi.h ****     /** 
 109:../../libDaisy//src/per/qspi.h ****         Deinitializes the peripheral
 110:../../libDaisy//src/per/qspi.h ****         This should be called before reinitializing QSPI in a different mode.
 111:../../libDaisy//src/per/qspi.h ****         \return Result::OK or Result::ERR
 112:../../libDaisy//src/per/qspi.h ****         */
 113:../../libDaisy//src/per/qspi.h ****     Result DeInit();
 114:../../libDaisy//src/per/qspi.h **** 
 115:../../libDaisy//src/per/qspi.h ****     /** 
 116:../../libDaisy//src/per/qspi.h ****         Writes a single page to to the specified address on the QSPI chip.
 117:../../libDaisy//src/per/qspi.h ****         For IS25LP*, page size is 256 bytes.
 118:../../libDaisy//src/per/qspi.h ****         \param address Address to write to
 119:../../libDaisy//src/per/qspi.h ****         \param size Buffer size
 120:../../libDaisy//src/per/qspi.h ****         \param buffer Buffer to write
 121:../../libDaisy//src/per/qspi.h ****         \return Result::OK or Result::ERR
 122:../../libDaisy//src/per/qspi.h ****         */
 123:../../libDaisy//src/per/qspi.h ****     Result WritePage(uint32_t address, uint32_t size, uint8_t* buffer);
 124:../../libDaisy//src/per/qspi.h **** 
 125:../../libDaisy//src/per/qspi.h ****     /** 
 126:../../libDaisy//src/per/qspi.h ****         Writes data in buffer to to the QSPI. Starting at address to address+size 
 127:../../libDaisy//src/per/qspi.h ****         \param address Address to write to
 128:../../libDaisy//src/per/qspi.h ****         \param size Buffer size
 129:../../libDaisy//src/per/qspi.h ****         \param buffer Buffer to write
 130:../../libDaisy//src/per/qspi.h ****         \return Result::OK or Result::ERR
 131:../../libDaisy//src/per/qspi.h ****         */
 132:../../libDaisy//src/per/qspi.h ****     Result Write(uint32_t address, uint32_t size, uint8_t* buffer);
 133:../../libDaisy//src/per/qspi.h **** 
 134:../../libDaisy//src/per/qspi.h ****     /** 
 135:../../libDaisy//src/per/qspi.h ****         Erases the area specified on the chip.
 136:../../libDaisy//src/per/qspi.h ****         Erasures will happen by 4K, 32K or 64K increments.
 137:../../libDaisy//src/per/qspi.h ****         Smallest erase possible is 4kB at a time. (on IS25LP*)
 138:../../libDaisy//src/per/qspi.h ****         \param start_addr Address to begin erasing from
 139:../../libDaisy//src/per/qspi.h ****         \param end_addr  Address to stop erasing at
 140:../../libDaisy//src/per/qspi.h ****         \return Result::OK or Result::ERR
 141:../../libDaisy//src/per/qspi.h ****         */
 142:../../libDaisy//src/per/qspi.h ****     Result Erase(uint32_t start_addr, uint32_t end_addr);
 143:../../libDaisy//src/per/qspi.h **** 
 144:../../libDaisy//src/per/qspi.h ****     /**  
 145:../../libDaisy//src/per/qspi.h ****          Erases a single sector of the chip.  
 146:../../libDaisy//src/per/qspi.h ****         TODO: Document the size of this function. 
 147:../../libDaisy//src/per/qspi.h ****         \param address Address of sector to erase
 148:../../libDaisy//src/per/qspi.h ****         \return Result::OK or Result::ERR
 149:../../libDaisy//src/per/qspi.h ****         */
 150:../../libDaisy//src/per/qspi.h ****     Result EraseSector(uint32_t address);
 151:../../libDaisy//src/per/qspi.h **** 
 152:../../libDaisy//src/per/qspi.h ****     /** Returns the current class status. Useful for debugging.
 153:../../libDaisy//src/per/qspi.h ****      *  \returns Status
 154:../../libDaisy//src/per/qspi.h ****      */
ARM GAS  /var/folders/ky/97y1n_614tj15gjp3pmt3wd00000gn/T//cc7uyuiG.s 			page 25


 155:../../libDaisy//src/per/qspi.h ****     Status GetStatus();
 156:../../libDaisy//src/per/qspi.h **** 
 157:../../libDaisy//src/per/qspi.h ****     /** Returns a pointer to the actual memory used 
 158:../../libDaisy//src/per/qspi.h ****      *  The memory at this address is read-only
 159:../../libDaisy//src/per/qspi.h ****      *  to write to it use the Write function.
 160:../../libDaisy//src/per/qspi.h ****      * 
 161:../../libDaisy//src/per/qspi.h ****      *  \param offset returns the pointer starting this 
 162:../../libDaisy//src/per/qspi.h ****      *                many bytes into the memory
 163:../../libDaisy//src/per/qspi.h ****     */
 164:../../libDaisy//src/per/qspi.h ****     void* GetData(uint32_t offset = 0);
 165:../../libDaisy//src/per/qspi.h **** 
 166:../../libDaisy//src/per/qspi.h ****     QSPIHandle() : pimpl_(nullptr) {}
 465              		.loc 14 166 5 view .LVU108
 466              	.LBB372:
 467              	.LBB373:
 468              		.loc 14 166 34 is_stmt 0 view .LVU109
 469 0000 1348     		ldr	r0, .L23
 470 0002 0022     		movs	r2, #0
 471              	.LBE373:
 472              	.LBE372:
 473              	.LBE371:
 474              	.LBE370:
 475              	.LBE369:
 476              	.LBB389:
 477              	.LBB390:
 478              	.LBB391:
 479              	.LBB392:
 480              	.LBB393:
 481              	.LBB394:
 482              	.LBB395:
  37:../../libDaisy//src/hid/midi.h ****             tx     = {DSY_GPIOB, 6};
 483              		.loc 2 37 20 view .LVU110
 484 0004 1349     		ldr	r1, .L23+4
  36:../../libDaisy//src/hid/midi.h ****             rx     = {DSY_GPIOB, 7};
 485              		.loc 2 36 20 view .LVU111
 486 0006 00F51043 		add	r3, r0, #36864
  38:../../libDaisy//src/hid/midi.h ****         }
 487              		.loc 2 38 20 view .LVU112
 488 000a B1F804C0 		ldrh	ip, [r1, #4]
 489              	.LBE395:
 490              	.LBE394:
 491              	.LBE393:
 492              	.LBE392:
 493              	.LBE391:
 494              	.LBE390:
 495              	.LBE389:
 496              	.LBE368:
 497              	.LBE367:
 498              	.LBE366:
 499              	.LBE365:
 500              		.loc 13 60 1 view .LVU113
 501 000e 00B5     		push	{lr}
 502              		.cfi_def_cfa_offset 4
 503              		.cfi_offset 14, -4
 504              	.LBB450:
 505              	.LBB448:
 506              	.LBB447:
ARM GAS  /var/folders/ky/97y1n_614tj15gjp3pmt3wd00000gn/T//cc7uyuiG.s 			page 26


 507              	.LBB446:
 508              	.LBB424:
 509              	.LBB421:
 510              	.LBB418:
 511              	.LBB405:
 512              	.LBB402:
 513              	.LBB399:
 514              	.LBB396:
  37:../../libDaisy//src/hid/midi.h ****             tx     = {DSY_GPIOB, 6};
 515              		.loc 2 37 20 view .LVU114
 516 0010 B1F800E0 		ldrh	lr, [r1]
 517              	.LBE396:
 518              	.LBE399:
 519              	.LBE402:
 520              	.LBE405:
 521              	.LBE418:
 522              	.LBE421:
 523              	.LBE424:
 524              	.LBB425:
 525              	.LBB387:
 526              	.LBB376:
 527              	.LBB375:
 528              	.LBB374:
 529              		.loc 14 166 34 view .LVU115
 530 0014 0260     		str	r2, [r0]
 531              	.LVL26:
 532              		.loc 14 166 34 view .LVU116
 533              	.LBE374:
 534              	.LBE375:
 535              	.LBE376:
 536              	.LBB377:
 537              	.LBI377:
  95:../../libDaisy//src/hid/audio.h ****     ~AudioHandle() {}
 538              		.loc 12 95 5 is_stmt 1 view .LVU117
 539              	.LBE377:
 540              	.LBE387:
 541              	.LBE425:
 542              	.LBB426:
 543              	.LBB422:
 544              	.LBB419:
  84:../../libDaisy//src/hid/midi.h ****     ~MidiHandler() {}
 545              		.loc 2 84 19 is_stmt 0 view .LVU118
 546 0016 1049     		ldr	r1, .L23+8
 547              	.LBE419:
 548              	.LBE422:
 549              	.LBE426:
 550              	.LBB427:
 551              	.LBB388:
 552              	.LBB380:
 553              	.LBB378:
 554              	.LBB379:
  95:../../libDaisy//src/hid/audio.h ****     ~AudioHandle() {}
 555              		.loc 12 95 35 view .LVU119
 556 0018 4261     		str	r2, [r0, #20]
 557              	.LVL27:
  95:../../libDaisy//src/hid/audio.h ****     ~AudioHandle() {}
 558              		.loc 12 95 35 view .LVU120
ARM GAS  /var/folders/ky/97y1n_614tj15gjp3pmt3wd00000gn/T//cc7uyuiG.s 			page 27


 559              	.LBE379:
 560              	.LBE378:
 561              	.LBE380:
 562              	.LBB381:
 563              	.LBI381:
  92:../../libDaisy//src/per/adc.h ****     ~AdcHandle() {}
 564              		.loc 11 92 5 is_stmt 1 view .LVU121
  92:../../libDaisy//src/per/adc.h ****     ~AdcHandle() {}
 565              		.loc 11 92 5 is_stmt 0 view .LVU122
 566              	.LBE381:
 567              	.LBB382:
 568              	.LBI382:
 569              		.file 15 "../../libDaisy//src/per/dac.h"
   1:../../libDaisy//src/per/dac.h **** #pragma once
   2:../../libDaisy//src/per/dac.h **** #ifndef DSY_DAC_H
   3:../../libDaisy//src/per/dac.h **** #define DSY_DAC_H
   4:../../libDaisy//src/per/dac.h **** 
   5:../../libDaisy//src/per/dac.h **** #include "daisy_core.h"
   6:../../libDaisy//src/per/dac.h **** 
   7:../../libDaisy//src/per/dac.h **** namespace daisy
   8:../../libDaisy//src/per/dac.h **** {
   9:../../libDaisy//src/per/dac.h **** /** @brief DAC handle for Built-in DAC Peripheral 
  10:../../libDaisy//src/per/dac.h ****  *  @ingroup per_analog
  11:../../libDaisy//src/per/dac.h ****  ** 
  12:../../libDaisy//src/per/dac.h ****  ** For now only Normal Mode is supported,
  13:../../libDaisy//src/per/dac.h ****  ** Sample and hold mode provides reduced power consumption, but requires a bit more setup.
  14:../../libDaisy//src/per/dac.h ****  **
  15:../../libDaisy//src/per/dac.h ****  ** For now connecting the DAC through other internal peripherals is also not supported.
  16:../../libDaisy//src/per/dac.h ****  **
  17:../../libDaisy//src/per/dac.h ****  ** Since the DAC channels have dedicated pins we don't need to pass in a pin config like with
  18:../../libDaisy//src/per/dac.h ****  ** other modules. However, it is still important to not try to use the DAC pins for anything else.
  19:../../libDaisy//src/per/dac.h ****  ** DAC Channel 1 is on PA4, and DAC Channel 2 is on PA5
  20:../../libDaisy//src/per/dac.h ****  ***/
  21:../../libDaisy//src/per/dac.h **** class DacHandle
  22:../../libDaisy//src/per/dac.h **** {
  23:../../libDaisy//src/per/dac.h ****   public:
  24:../../libDaisy//src/per/dac.h ****     /** Return Values for the DacHandle class */
  25:../../libDaisy//src/per/dac.h ****     enum class Result
  26:../../libDaisy//src/per/dac.h ****     {
  27:../../libDaisy//src/per/dac.h ****         OK,
  28:../../libDaisy//src/per/dac.h ****         ERR,
  29:../../libDaisy//src/per/dac.h ****     };
  30:../../libDaisy//src/per/dac.h **** 
  31:../../libDaisy//src/per/dac.h ****     /** Selects which channel(s) will be configured for use. */
  32:../../libDaisy//src/per/dac.h ****     enum class Channel
  33:../../libDaisy//src/per/dac.h ****     {
  34:../../libDaisy//src/per/dac.h ****         ONE,
  35:../../libDaisy//src/per/dac.h ****         TWO,
  36:../../libDaisy//src/per/dac.h ****         BOTH,
  37:../../libDaisy//src/per/dac.h ****     };
  38:../../libDaisy//src/per/dac.h **** 
  39:../../libDaisy//src/per/dac.h ****     /** Sets the Mode for the DAC channels.
  40:../../libDaisy//src/per/dac.h ****      **
  41:../../libDaisy//src/per/dac.h ****      ** Polling mode uses the blocking mode to transmit a single value at a time.
  42:../../libDaisy//src/per/dac.h ****      **
  43:../../libDaisy//src/per/dac.h ****      ** DMA mode uses a buffer, and periodically transmits it triggering a 
  44:../../libDaisy//src/per/dac.h ****      ** callback to fill the buffer when it is ready for more samples.
ARM GAS  /var/folders/ky/97y1n_614tj15gjp3pmt3wd00000gn/T//cc7uyuiG.s 			page 28


  45:../../libDaisy//src/per/dac.h ****      ***/
  46:../../libDaisy//src/per/dac.h ****     enum class Mode
  47:../../libDaisy//src/per/dac.h ****     {
  48:../../libDaisy//src/per/dac.h ****         POLLING,
  49:../../libDaisy//src/per/dac.h ****         DMA,
  50:../../libDaisy//src/per/dac.h ****     };
  51:../../libDaisy//src/per/dac.h **** 
  52:../../libDaisy//src/per/dac.h ****     /** Sets the number of bits per sample transmitted out of the DAC.
  53:../../libDaisy//src/per/dac.h ****      ** The output range will be: 0V - VDDA
  54:../../libDaisy//src/per/dac.h ****      ** The resolution will be roughly: bitdepth / (VDDA - 0V) 
  55:../../libDaisy//src/per/dac.h ****      ***/
  56:../../libDaisy//src/per/dac.h ****     enum class BitDepth
  57:../../libDaisy//src/per/dac.h ****     {
  58:../../libDaisy//src/per/dac.h ****         BITS_8,
  59:../../libDaisy//src/per/dac.h ****         BITS_12
  60:../../libDaisy//src/per/dac.h ****     };
  61:../../libDaisy//src/per/dac.h **** 
  62:../../libDaisy//src/per/dac.h ****     /** Sets whether the DAC output is buffered for higher drive ability. */
  63:../../libDaisy//src/per/dac.h ****     enum class BufferState
  64:../../libDaisy//src/per/dac.h ****     {
  65:../../libDaisy//src/per/dac.h ****         ENABLED,
  66:../../libDaisy//src/per/dac.h ****         DISABLED,
  67:../../libDaisy//src/per/dac.h ****     };
  68:../../libDaisy//src/per/dac.h **** 
  69:../../libDaisy//src/per/dac.h ****     /** Configuration structure for initializing the DAC structure. */
  70:../../libDaisy//src/per/dac.h ****     struct Config
  71:../../libDaisy//src/per/dac.h ****     {
  72:../../libDaisy//src/per/dac.h ****         /** Target Samplerate in Hz used to configure the internal 
  73:../../libDaisy//src/per/dac.h ****          ** timebase for DMA mode. Does nothing in POLLING mode.
  74:../../libDaisy//src/per/dac.h ****          ** If the value is 0 at Init time this will default to 48000Hz 
  75:../../libDaisy//src/per/dac.h ****          ** otherwise the driver will attempt meet the target.*/
  76:../../libDaisy//src/per/dac.h ****         uint32_t target_samplerate;
  77:../../libDaisy//src/per/dac.h **** 
  78:../../libDaisy//src/per/dac.h ****         Channel     chn;
  79:../../libDaisy//src/per/dac.h ****         Mode        mode;
  80:../../libDaisy//src/per/dac.h ****         BitDepth    bitdepth;
  81:../../libDaisy//src/per/dac.h ****         BufferState buff_state;
  82:../../libDaisy//src/per/dac.h ****     };
  83:../../libDaisy//src/per/dac.h **** 
  84:../../libDaisy//src/per/dac.h ****     DacHandle() : pimpl_(nullptr) {}
 570              		.loc 15 84 5 is_stmt 1 view .LVU123
 571              	.LBB383:
 572              	.LBB384:
 573              		.loc 15 84 33 is_stmt 0 view .LVU124
 574 001a 0262     		str	r2, [r0, #32]
 575              	.LVL28:
 576              		.loc 15 84 33 view .LVU125
 577              	.LBE384:
 578              	.LBE383:
 579              	.LBE382:
 580              	.LBB385:
 581              	.LBI385:
  40:../../libDaisy//src/hid/usb.h **** 
 582              		.loc 10 40 5 is_stmt 1 view .LVU126
  40:../../libDaisy//src/hid/usb.h **** 
 583              		.loc 10 40 5 is_stmt 0 view .LVU127
 584              	.LBE385:
ARM GAS  /var/folders/ky/97y1n_614tj15gjp3pmt3wd00000gn/T//cc7uyuiG.s 			page 29


 585              	.LBB386:
 586              	.LBI386:
  77:../../libDaisy//src/sys/system.h ****     ~System() {}
 587              		.loc 9 77 5 is_stmt 1 view .LVU128
  77:../../libDaisy//src/sys/system.h ****     ~System() {}
 588              		.loc 9 77 5 is_stmt 0 view .LVU129
 589              	.LBE386:
 590              	.LBE388:
 591              	.LBE427:
 592              	.LBB428:
 593              	.LBI428:
  20:../../libDaisy//src/hid/encoder.h ****     ~Encoder() {}
 594              		.loc 7 20 5 is_stmt 1 view .LVU130
 595              	.LBB429:
 596              	.LBB430:
 597              	.LBI430:
  41:../../libDaisy//src/hid/switch.h ****     ~Switch() {}
 598              		.loc 5 41 5 view .LVU131
  41:../../libDaisy//src/hid/switch.h ****     ~Switch() {}
 599              		.loc 5 41 5 is_stmt 0 view .LVU132
 600              	.LBE430:
 601              	.LBE429:
 602              	.LBE428:
 603              	.LBB431:
 604              	.LBI431:
  21:../../libDaisy//src/hid/ctrl.h ****     /** destructor */
 605              		.loc 6 21 5 is_stmt 1 view .LVU133
  21:../../libDaisy//src/hid/ctrl.h ****     /** destructor */
 606              		.loc 6 21 5 is_stmt 0 view .LVU134
 607              	.LBE431:
 608              	.LBB432:
 609              	.LBI432:
  21:../../libDaisy//src/hid/ctrl.h ****     /** destructor */
 610              		.loc 6 21 5 is_stmt 1 view .LVU135
  21:../../libDaisy//src/hid/ctrl.h ****     /** destructor */
 611              		.loc 6 21 5 is_stmt 0 view .LVU136
 612              	.LBE432:
 613              	.LBB433:
 614              	.LBI433:
  41:../../libDaisy//src/hid/switch.h ****     ~Switch() {}
 615              		.loc 5 41 5 is_stmt 1 view .LVU137
  41:../../libDaisy//src/hid/switch.h ****     ~Switch() {}
 616              		.loc 5 41 5 is_stmt 0 view .LVU138
 617              	.LBE433:
 618              	.LBB434:
 619              	.LBI434:
  41:../../libDaisy//src/hid/switch.h ****     ~Switch() {}
 620              		.loc 5 41 5 is_stmt 1 view .LVU139
  41:../../libDaisy//src/hid/switch.h ****     ~Switch() {}
 621              		.loc 5 41 5 is_stmt 0 view .LVU140
 622              	.LBE434:
 623              	.LBB435:
 624              	.LBI435:
  17:../../libDaisy//src/hid/rgb_led.h ****     ~RgbLed() {}
 625              		.loc 3 17 5 is_stmt 1 view .LVU141
 626              	.LBB436:
 627              	.LBB437:
ARM GAS  /var/folders/ky/97y1n_614tj15gjp3pmt3wd00000gn/T//cc7uyuiG.s 			page 30


 628              	.LBI437:
  24:../../libDaisy//src/hid/led.h ****     ~Led() {}
 629              		.loc 4 24 5 view .LVU142
  24:../../libDaisy//src/hid/led.h ****     ~Led() {}
 630              		.loc 4 24 5 is_stmt 0 view .LVU143
 631              	.LBE437:
 632              	.LBB438:
 633              	.LBI438:
  24:../../libDaisy//src/hid/led.h ****     ~Led() {}
 634              		.loc 4 24 5 is_stmt 1 view .LVU144
  24:../../libDaisy//src/hid/led.h ****     ~Led() {}
 635              		.loc 4 24 5 is_stmt 0 view .LVU145
 636              	.LBE438:
 637              	.LBB439:
 638              	.LBI439:
  24:../../libDaisy//src/hid/led.h ****     ~Led() {}
 639              		.loc 4 24 5 is_stmt 1 view .LVU146
  24:../../libDaisy//src/hid/led.h ****     ~Led() {}
 640              		.loc 4 24 5 is_stmt 0 view .LVU147
 641              	.LBE439:
 642              	.LBE436:
 643              	.LBE435:
 644              	.LBB440:
 645              	.LBI440:
  17:../../libDaisy//src/hid/rgb_led.h ****     ~RgbLed() {}
 646              		.loc 3 17 5 is_stmt 1 view .LVU148
 647              	.LBB441:
 648              	.LBB442:
 649              	.LBI442:
  24:../../libDaisy//src/hid/led.h ****     ~Led() {}
 650              		.loc 4 24 5 view .LVU149
  24:../../libDaisy//src/hid/led.h ****     ~Led() {}
 651              		.loc 4 24 5 is_stmt 0 view .LVU150
 652              	.LBE442:
 653              	.LBB443:
 654              	.LBI443:
  24:../../libDaisy//src/hid/led.h ****     ~Led() {}
 655              		.loc 4 24 5 is_stmt 1 view .LVU151
  24:../../libDaisy//src/hid/led.h ****     ~Led() {}
 656              		.loc 4 24 5 is_stmt 0 view .LVU152
 657              	.LBE443:
 658              	.LBB444:
 659              	.LBI444:
  24:../../libDaisy//src/hid/led.h ****     ~Led() {}
 660              		.loc 4 24 5 is_stmt 1 view .LVU153
  24:../../libDaisy//src/hid/led.h ****     ~Led() {}
 661              		.loc 4 24 5 is_stmt 0 view .LVU154
 662              	.LBE444:
 663              	.LBE441:
 664              	.LBE440:
 665              	.LBB445:
 666              	.LBI389:
  84:../../libDaisy//src/hid/midi.h ****     ~MidiHandler() {}
 667              		.loc 2 84 5 is_stmt 1 view .LVU155
 668              	.LBB423:
 669              	.LBB420:
 670              	.LBB406:
ARM GAS  /var/folders/ky/97y1n_614tj15gjp3pmt3wd00000gn/T//cc7uyuiG.s 			page 31


 671              	.LBI406:
 672              		.file 16 "../../libDaisy//src/per/uart.h"
   1:../../libDaisy//src/per/uart.h **** /* 
   2:../../libDaisy//src/per/uart.h **** TODO
   3:../../libDaisy//src/per/uart.h **** - UART1 defaults to DMA, add flexible config for DMA on all periphs
   4:../../libDaisy//src/per/uart.h **** - Transmit function improvements.
   5:../../libDaisy//src/per/uart.h **** - Overflow handling, etc. for Rx Queue.
   6:../../libDaisy//src/per/uart.h **** */
   7:../../libDaisy//src/per/uart.h **** 
   8:../../libDaisy//src/per/uart.h **** #pragma once
   9:../../libDaisy//src/per/uart.h **** #ifndef DSY_UART_H
  10:../../libDaisy//src/per/uart.h **** #define DSY_UART_H /**< macro */
  11:../../libDaisy//src/per/uart.h **** #include "daisy_core.h"
  12:../../libDaisy//src/per/uart.h **** 
  13:../../libDaisy//src/per/uart.h **** 
  14:../../libDaisy//src/per/uart.h **** namespace daisy
  15:../../libDaisy//src/per/uart.h **** {
  16:../../libDaisy//src/per/uart.h **** /** @addtogroup serial
  17:../../libDaisy//src/per/uart.h ****     @{
  18:../../libDaisy//src/per/uart.h ****     */
  19:../../libDaisy//src/per/uart.h **** 
  20:../../libDaisy//src/per/uart.h **** /** 
  21:../../libDaisy//src/per/uart.h ****     Uart Peripheral
  22:../../libDaisy//src/per/uart.h ****     @author shensley
  23:../../libDaisy//src/per/uart.h ****     @date March 2020
  24:../../libDaisy//src/per/uart.h ****     */
  25:../../libDaisy//src/per/uart.h **** class UartHandler
  26:../../libDaisy//src/per/uart.h **** {
  27:../../libDaisy//src/per/uart.h ****   public:
  28:../../libDaisy//src/per/uart.h ****     struct Config
  29:../../libDaisy//src/per/uart.h ****     {
  30:../../libDaisy//src/per/uart.h ****         enum class Peripheral
  31:../../libDaisy//src/per/uart.h ****         {
  32:../../libDaisy//src/per/uart.h ****             USART_1,
  33:../../libDaisy//src/per/uart.h ****             USART_2,
  34:../../libDaisy//src/per/uart.h ****             USART_3,
  35:../../libDaisy//src/per/uart.h ****             UART_4,
  36:../../libDaisy//src/per/uart.h ****             UART_5,
  37:../../libDaisy//src/per/uart.h ****             USART_6,
  38:../../libDaisy//src/per/uart.h ****             UART_7,
  39:../../libDaisy//src/per/uart.h ****             UART_8,
  40:../../libDaisy//src/per/uart.h ****             LPUART_1,
  41:../../libDaisy//src/per/uart.h ****         };
  42:../../libDaisy//src/per/uart.h **** 
  43:../../libDaisy//src/per/uart.h ****         enum class StopBits
  44:../../libDaisy//src/per/uart.h ****         {
  45:../../libDaisy//src/per/uart.h ****             BITS_0_5,
  46:../../libDaisy//src/per/uart.h ****             BITS_1,
  47:../../libDaisy//src/per/uart.h ****             BITS_1_5,
  48:../../libDaisy//src/per/uart.h ****             BITS_2,
  49:../../libDaisy//src/per/uart.h ****         };
  50:../../libDaisy//src/per/uart.h **** 
  51:../../libDaisy//src/per/uart.h ****         enum class Parity
  52:../../libDaisy//src/per/uart.h ****         {
  53:../../libDaisy//src/per/uart.h ****             NONE,
  54:../../libDaisy//src/per/uart.h ****             EVEN,
  55:../../libDaisy//src/per/uart.h ****             ODD,
ARM GAS  /var/folders/ky/97y1n_614tj15gjp3pmt3wd00000gn/T//cc7uyuiG.s 			page 32


  56:../../libDaisy//src/per/uart.h ****         };
  57:../../libDaisy//src/per/uart.h **** 
  58:../../libDaisy//src/per/uart.h ****         enum class Mode
  59:../../libDaisy//src/per/uart.h ****         {
  60:../../libDaisy//src/per/uart.h ****             RX,
  61:../../libDaisy//src/per/uart.h ****             TX,
  62:../../libDaisy//src/per/uart.h ****             TX_RX,
  63:../../libDaisy//src/per/uart.h ****         };
  64:../../libDaisy//src/per/uart.h **** 
  65:../../libDaisy//src/per/uart.h ****         enum class WordLength
  66:../../libDaisy//src/per/uart.h ****         {
  67:../../libDaisy//src/per/uart.h ****             BITS_7,
  68:../../libDaisy//src/per/uart.h ****             BITS_8,
  69:../../libDaisy//src/per/uart.h ****             BITS_9,
  70:../../libDaisy//src/per/uart.h ****         };
  71:../../libDaisy//src/per/uart.h **** 
  72:../../libDaisy//src/per/uart.h ****         struct
  73:../../libDaisy//src/per/uart.h ****         {
  74:../../libDaisy//src/per/uart.h ****             dsy_gpio_pin tx; /**< & */
  75:../../libDaisy//src/per/uart.h ****             dsy_gpio_pin rx; /**< & */
  76:../../libDaisy//src/per/uart.h ****         } pin_config;        /**< & */
  77:../../libDaisy//src/per/uart.h **** 
  78:../../libDaisy//src/per/uart.h ****         Config()
  79:../../libDaisy//src/per/uart.h ****         {
  80:../../libDaisy//src/per/uart.h ****             // user must init periph, pin_config, and mode
  81:../../libDaisy//src/per/uart.h ****             stopbits   = StopBits::BITS_1;
  82:../../libDaisy//src/per/uart.h ****             parity     = Parity::NONE;
  83:../../libDaisy//src/per/uart.h ****             wordlength = WordLength::BITS_8;
  84:../../libDaisy//src/per/uart.h ****             baudrate   = 4800;
  85:../../libDaisy//src/per/uart.h ****             // baudrate   = 31250;
  86:../../libDaisy//src/per/uart.h ****         }
  87:../../libDaisy//src/per/uart.h **** 
  88:../../libDaisy//src/per/uart.h ****         Peripheral periph;
  89:../../libDaisy//src/per/uart.h ****         StopBits   stopbits;
  90:../../libDaisy//src/per/uart.h ****         Parity     parity;
  91:../../libDaisy//src/per/uart.h ****         Mode       mode;
  92:../../libDaisy//src/per/uart.h ****         WordLength wordlength;
  93:../../libDaisy//src/per/uart.h ****         uint32_t   baudrate;
  94:../../libDaisy//src/per/uart.h ****     };
  95:../../libDaisy//src/per/uart.h **** 
  96:../../libDaisy//src/per/uart.h **** 
  97:../../libDaisy//src/per/uart.h ****     UartHandler() : pimpl_(nullptr) {}
 673              		.loc 16 97 5 view .LVU156
 674              	.LBB407:
 675              	.LBB408:
 676              		.loc 16 97 35 is_stmt 0 view .LVU157
 677 001c C0F87C21 		str	r2, [r0, #380]
 678              	.LVL29:
 679              		.loc 16 97 35 view .LVU158
 680              	.LBE408:
 681              	.LBE407:
 682              	.LBE406:
 683              	.LBB409:
 684              	.LBI409:
 685              		.file 17 "../../libDaisy//src/util/ringbuffer.h"
   1:../../libDaisy//src/util/ringbuffer.h **** #pragma once
   2:../../libDaisy//src/util/ringbuffer.h **** #ifndef DSY_RINGBUFFER_H
ARM GAS  /var/folders/ky/97y1n_614tj15gjp3pmt3wd00000gn/T//cc7uyuiG.s 			page 33


   3:../../libDaisy//src/util/ringbuffer.h **** #define DSY_RINGBUFFER_H
   4:../../libDaisy//src/util/ringbuffer.h **** 
   5:../../libDaisy//src/util/ringbuffer.h **** #include <algorithm>
   6:../../libDaisy//src/util/ringbuffer.h **** 
   7:../../libDaisy//src/util/ringbuffer.h **** namespace daisy
   8:../../libDaisy//src/util/ringbuffer.h **** {
   9:../../libDaisy//src/util/ringbuffer.h **** /** @addtogroup utility
  10:../../libDaisy//src/util/ringbuffer.h ****     @{
  11:../../libDaisy//src/util/ringbuffer.h **** */
  12:../../libDaisy//src/util/ringbuffer.h **** 
  13:../../libDaisy//src/util/ringbuffer.h **** /**
  14:../../libDaisy//src/util/ringbuffer.h **** Utility Ring Buffer \n 
  15:../../libDaisy//src/util/ringbuffer.h **** imported from pichenettes/stmlib
  16:../../libDaisy//src/util/ringbuffer.h **** */
  17:../../libDaisy//src/util/ringbuffer.h **** template <typename T, size_t size>
  18:../../libDaisy//src/util/ringbuffer.h **** class RingBuffer
  19:../../libDaisy//src/util/ringbuffer.h **** {
  20:../../libDaisy//src/util/ringbuffer.h ****   public:
  21:../../libDaisy//src/util/ringbuffer.h ****     RingBuffer() {}
 686              		.loc 17 21 5 is_stmt 1 view .LVU159
 687              		.loc 17 21 5 is_stmt 0 view .LVU160
 688              	.LBE409:
 689              	.LBB410:
 690              	.LBI392:
  86:../../libDaisy//src/hid/midi.h **** 
  87:../../libDaisy//src/hid/midi.h ****     struct Config
 691              		.loc 2 87 12 is_stmt 1 view .LVU161
 692              	.LBB403:
 693              	.LBI393:
  34:../../libDaisy//src/hid/midi.h ****         {
 694              		.loc 2 34 9 view .LVU162
 695              	.LBB400:
 696              	.LBB397:
  36:../../libDaisy//src/hid/midi.h ****             rx     = {DSY_GPIOB, 7};
 697              		.loc 2 36 13 view .LVU163
  36:../../libDaisy//src/hid/midi.h ****             rx     = {DSY_GPIOB, 7};
 698              		.loc 2 36 20 is_stmt 0 view .LVU164
 699 0020 C3F82422 		str	r2, [r3, #548]
  37:../../libDaisy//src/hid/midi.h ****             tx     = {DSY_GPIOB, 6};
 700              		.loc 2 37 13 is_stmt 1 view .LVU165
  38:../../libDaisy//src/hid/midi.h ****         }
 701              		.loc 2 38 20 is_stmt 0 view .LVU166
 702 0024 A3F82AC2 		strh	ip, [r3, #554]	@ movhi
 703              	.LBE397:
 704              	.LBE400:
 705              	.LBE403:
 706              	.LBE410:
  84:../../libDaisy//src/hid/midi.h ****     ~MidiHandler() {}
 707              		.loc 2 84 19 view .LVU167
 708 0028 4FF0070C 		mov	ip, #7
 709              	.LBB411:
 710              	.LBB412:
 711              	.LBB413:
 712              	.LBB414:
 713              		.loc 16 97 35 view .LVU168
 714 002c C3F82C22 		str	r2, [r3, #556]
 715              	.LBE414:
ARM GAS  /var/folders/ky/97y1n_614tj15gjp3pmt3wd00000gn/T//cc7uyuiG.s 			page 34


 716              	.LBE413:
 717              	.LBE412:
 718              	.LBE411:
  84:../../libDaisy//src/hid/midi.h ****     ~MidiHandler() {}
 719              		.loc 2 84 19 view .LVU169
 720 0030 4FF60F02 		movw	r2, #63503
 721 0034 C3F83012 		str	r1, [r3, #560]
 722 0038 A3F83422 		strh	r2, [r3, #564]	@ movhi
 723 003c 83F836C2 		strb	ip, [r3, #566]
 724              	.LBB416:
 725              	.LBB404:
 726              	.LBB401:
 727              	.LBB398:
  37:../../libDaisy//src/hid/midi.h ****             tx     = {DSY_GPIOB, 6};
 728              		.loc 2 37 20 view .LVU170
 729 0040 A3F828E2 		strh	lr, [r3, #552]	@ movhi
  38:../../libDaisy//src/hid/midi.h ****         }
 730              		.loc 2 38 13 is_stmt 1 view .LVU171
 731              	.LVL30:
  38:../../libDaisy//src/hid/midi.h ****         }
 732              		.loc 2 38 13 is_stmt 0 view .LVU172
 733              	.LBE398:
 734              	.LBE401:
 735              	.LBE404:
 736              	.LBE416:
 737              	.LBB417:
 738              	.LBI411:
  25:../../libDaisy//src/hid/midi.h ****     ~MidiUartTransport() {}
 739              		.loc 2 25 5 is_stmt 1 view .LVU173
 740              	.LBB415:
 741              	.LBI412:
 742              		.loc 16 97 5 view .LVU174
 743              		.loc 16 97 5 is_stmt 0 view .LVU175
 744              	.LBE415:
 745              	.LBE417:
 746              	.LBE420:
 747              	.LBE423:
 748              	.LBE445:
 749              	.LBE446:
 750              	.LBE447:
   6:MyProj.cpp    **** 
 751              		.loc 13 6 10 view .LVU176
 752 0044 054A     		ldr	r2, .L23+12
 753 0046 0649     		ldr	r1, .L23+16
 754              	.LBE448:
 755              	.LBE450:
 756              		.loc 13 60 1 view .LVU177
 757 0048 5DF804EB 		ldr	lr, [sp], #4
 758              		.cfi_restore 14
 759              		.cfi_def_cfa_offset 0
 760              	.LBB451:
 761              	.LBB449:
   6:MyProj.cpp    **** 
 762              		.loc 13 6 10 view .LVU178
 763 004c FFF7FEBF 		b	__aeabi_atexit
 764              	.LVL31:
 765              	.L24:
ARM GAS  /var/folders/ky/97y1n_614tj15gjp3pmt3wd00000gn/T//cc7uyuiG.s 			page 35


 766              		.align	2
 767              	.L23:
 768 0050 00000000 		.word	hw
 769 0054 00000000 		.word	.LANCHOR2
 770 0058 80707FF0 		.word	-260083584
 771 005c 00000000 		.word	__dso_handle
 772 0060 00000000 		.word	_ZN5daisy8DaisyPodD1Ev
 773              	.LBE449:
 774              	.LBE451:
 775              		.cfi_endproc
 776              	.LFE2571:
 778              		.section	.init_array,"aw",%init_array
 779              		.align	2
 780 0000 00000000 		.word	_GLOBAL__sub_I_leaf(target1)
 781              		.global	mySimpleRetune
 782              		.global	hw
 783              		.global	leafMemory
 784              		.global	leaf
 785              		.section	.rodata
 786              		.align	2
 787              		.set	.LANCHOR2,. + 0
 788              	.LC0:
 789 0000 01       		.byte	1
 790 0001 07       		.byte	7
 791 0002 0000     		.space	2
 792              	.LC1:
 793 0004 01       		.byte	1
 794 0005 06       		.byte	6
 795              		.section	.bss.hw,"aw",%nobits
 796              		.align	2
 799              	hw:
 800 0000 00000000 		.space	37432
 800      00000000 
 800      00000000 
 800      00000000 
 800      00000000 
 801              		.section	.bss.leaf,"aw",%nobits
 802              		.align	2
 803              		.set	.LANCHOR1,. + 0
 806              	leaf:
 807 0000 00000000 		.space	80
 807      00000000 
 807      00000000 
 807      00000000 
 807      00000000 
 808              		.section	.bss.leafMemory,"aw",%nobits
 809              		.align	2
 812              	leafMemory:
 813 0000 00000000 		.space	470355
 813      00000000 
 813      00000000 
 813      00000000 
 813      00000000 
 814              		.section	.bss.mySimpleRetune,"aw",%nobits
 815              		.align	2
 816              		.set	.LANCHOR0,. + 0
 819              	mySimpleRetune:
ARM GAS  /var/folders/ky/97y1n_614tj15gjp3pmt3wd00000gn/T//cc7uyuiG.s 			page 36


 820 0000 00000000 		.space	4
 821              		.text
 822              	.Letext0:
 823              		.file 18 "/Library/DaisyToolchain/0.2.0/arm/arm-none-eabi/include/machine/_default_types.h"
 824              		.file 19 "/Library/DaisyToolchain/0.2.0/arm/arm-none-eabi/include/sys/_stdint.h"
 825              		.file 20 "/Library/DaisyToolchain/0.2.0/arm/arm-none-eabi/include/stdint.h"
 826              		.file 21 "/Library/DaisyToolchain/0.2.0/arm/lib/gcc/arm-none-eabi/10.3.1/include/stddef.h"
 827              		.file 22 "/Library/DaisyToolchain/0.2.0/arm/arm-none-eabi/include/c++/10.3.1/cmath"
 828              		.file 23 "/Library/DaisyToolchain/0.2.0/arm/arm-none-eabi/include/c++/10.3.1/bits/std_abs.h"
 829              		.file 24 "/Library/DaisyToolchain/0.2.0/arm/arm-none-eabi/include/c++/10.3.1/cstdlib"
 830              		.file 25 "/Library/DaisyToolchain/0.2.0/arm/arm-none-eabi/include/c++/10.3.1/cstdint"
 831              		.file 26 "/Library/DaisyToolchain/0.2.0/arm/arm-none-eabi/include/c++/10.3.1/type_traits"
 832              		.file 27 "/Library/DaisyToolchain/0.2.0/arm/arm-none-eabi/include/c++/10.3.1/debug/debug.h"
 833              		.file 28 "/Library/DaisyToolchain/0.2.0/arm/arm-none-eabi/include/c++/10.3.1/arm-none-eabi/thumb/v
 834              		.file 29 "/Library/DaisyToolchain/0.2.0/arm/arm-none-eabi/include/c++/10.3.1/bits/algorithmfwd.h"
 835              		.file 30 "/Library/DaisyToolchain/0.2.0/arm/arm-none-eabi/include/c++/10.3.1/bits/stl_pair.h"
 836              		.file 31 "/Library/DaisyToolchain/0.2.0/arm/arm-none-eabi/include/c++/10.3.1/bits/exception_ptr.h"
 837              		.file 32 "/Library/DaisyToolchain/0.2.0/arm/arm-none-eabi/include/c++/10.3.1/cstdarg"
 838              		.file 33 "/Library/DaisyToolchain/0.2.0/arm/arm-none-eabi/include/c++/10.3.1/cstdio"
 839              		.file 34 "/Library/DaisyToolchain/0.2.0/arm/arm-none-eabi/include/c++/10.3.1/cstring"
 840              		.file 35 "/Library/DaisyToolchain/0.2.0/arm/arm-none-eabi/include/c++/10.3.1/bits/predefined_ops.h
 841              		.file 36 "/Library/DaisyToolchain/0.2.0/arm/arm-none-eabi/include/sys/_types.h"
 842              		.file 37 "/Library/DaisyToolchain/0.2.0/arm/arm-none-eabi/include/sys/reent.h"
 843              		.file 38 "/Library/DaisyToolchain/0.2.0/arm/arm-none-eabi/include/sys/lock.h"
 844              		.file 39 "/Library/DaisyToolchain/0.2.0/arm/arm-none-eabi/include/math.h"
 845              		.file 40 "/Library/DaisyToolchain/0.2.0/arm/arm-none-eabi/include/stdlib.h"
 846              		.file 41 "/Library/DaisyToolchain/0.2.0/arm/arm-none-eabi/include/c++/10.3.1/math.h"
 847              		.file 42 "/Library/DaisyToolchain/0.2.0/arm/arm-none-eabi/include/c++/10.3.1/stdlib.h"
 848              		.file 43 "../../libDaisy//src/daisy_core.h"
 849              		.file 44 "../../libDaisy//src/per/tim.h"
 850              		.file 45 "../../libDaisy//src/per/sai.h"
 851              		.file 46 "../../libDaisy//src/hid/MidiEvent.h"
 852              		.file 47 "../../libDaisy//src/per/rng.h"
 853              		.file 48 "../../libDaisy//src/util/wav_format.h"
 854              		.file 49 "../../libDaisy//src/util/color.h"
 855              		.file 50 "../../libDaisy//src/dev/max11300.h"
 856              		.file 51 "../../libDaisy//src/per/gpio.h"
 857              		.file 52 "../../libDaisy//src/dev/sdram.h"
 858              		.file 53 "/Library/DaisyToolchain/0.2.0/arm/lib/gcc/arm-none-eabi/10.3.1/include/stdarg.h"
 859              		.file 54 "/Library/DaisyToolchain/0.2.0/arm/arm-none-eabi/include/stdio.h"
 860              		.file 55 "/Library/DaisyToolchain/0.2.0/arm/arm-none-eabi/include/string.h"
 861              		.file 56 "../../../LEAF/leaf/./Inc/leaf-mempool.h"
 862              		.file 57 "../../../LEAF/leaf/./Inc/leaf-global.h"
 863              		.file 58 "../../../LEAF/leaf/./Inc/leaf-filters.h"
 864              		.file 59 "../../../LEAF/leaf/./Inc/leaf-analysis.h"
 865              		.file 60 "../../../LEAF/leaf/./Inc/leaf-effects.h"
 866              		.file 61 "../../../LEAF/leaf/leaf.h"
 867              		.file 62 "../../../LEAF/leaf/./Inc/leaf-math.h"
 868              		.file 63 "<built-in>"
 869              		.file 64 "../../libDaisy//src/dev/sr_595.h"
ARM GAS  /var/folders/ky/97y1n_614tj15gjp3pmt3wd00000gn/T//cc7uyuiG.s 			page 37

