ARM GAS  /var/folders/ky/97y1n_614tj15gjp3pmt3wd00000gn/T//cczhqtVy.s 			page 1


   1              		.cpu cortex-m7
   2              		.arch armv7e-m
   3              		.fpu fpv5-d16
   4              		.eabi_attribute 28, 1
   5              		.eabi_attribute 20, 1
   6              		.eabi_attribute 21, 1
   7              		.eabi_attribute 23, 3
   8              		.eabi_attribute 24, 1
   9              		.eabi_attribute 25, 1
  10              		.eabi_attribute 26, 1
  11              		.eabi_attribute 30, 2
  12              		.eabi_attribute 34, 1
  13              		.eabi_attribute 18, 4
  14              		.file	"MyProj.cpp"
  15              		.text
  16              	.Ltext0:
  17              		.cfi_sections	.debug_frame
  18              		.section	.text._ZN5daisy8DaisyPodD2Ev,"axG",%progbits,_ZN5daisy8DaisyPodD5Ev,comdat
  19              		.align	1
  20              		.p2align 2,,3
  21              		.weak	_ZN5daisy8DaisyPodD2Ev
  22              		.syntax unified
  23              		.thumb
  24              		.thumb_func
  26              	_ZN5daisy8DaisyPodD2Ev:
  27              	.LVL0:
  28              	.LFB2538:
  29              		.file 1 "../../libDaisy//src/daisy_pod.h"
   1:../../libDaisy//src/daisy_pod.h **** #pragma once
   2:../../libDaisy//src/daisy_pod.h **** #ifndef DSY_POD_BSP_H
   3:../../libDaisy//src/daisy_pod.h **** #define DSY_POD_BSP_H
   4:../../libDaisy//src/daisy_pod.h **** 
   5:../../libDaisy//src/daisy_pod.h **** #include "daisy_seed.h"
   6:../../libDaisy//src/daisy_pod.h **** 
   7:../../libDaisy//src/daisy_pod.h **** namespace daisy
   8:../../libDaisy//src/daisy_pod.h **** {
   9:../../libDaisy//src/daisy_pod.h **** /**
  10:../../libDaisy//src/daisy_pod.h ****     @brief Class that handles initializing all of the hardware specific to the Daisy Patch Board. \
  11:../../libDaisy//src/daisy_pod.h ****     Helper funtions are also in place to provide easy access to built-in controls and peripherals.
  12:../../libDaisy//src/daisy_pod.h ****     @author Stephen Hensley
  13:../../libDaisy//src/daisy_pod.h ****     @date November 2019
  14:../../libDaisy//src/daisy_pod.h ****     @ingroup boards
  15:../../libDaisy//src/daisy_pod.h **** */
  16:../../libDaisy//src/daisy_pod.h **** class DaisyPod
  17:../../libDaisy//src/daisy_pod.h **** {
  18:../../libDaisy//src/daisy_pod.h ****   public:
  19:../../libDaisy//src/daisy_pod.h ****     /** Switches */
  20:../../libDaisy//src/daisy_pod.h ****     enum Sw
  21:../../libDaisy//src/daisy_pod.h ****     {
  22:../../libDaisy//src/daisy_pod.h ****         BUTTON_1,    /** & */
  23:../../libDaisy//src/daisy_pod.h ****         BUTTON_2,    /** & */
  24:../../libDaisy//src/daisy_pod.h ****         BUTTON_LAST, /** &  */
  25:../../libDaisy//src/daisy_pod.h ****     };
  26:../../libDaisy//src/daisy_pod.h **** 
  27:../../libDaisy//src/daisy_pod.h ****     /** Knobs */
  28:../../libDaisy//src/daisy_pod.h ****     enum Knob
  29:../../libDaisy//src/daisy_pod.h ****     {
ARM GAS  /var/folders/ky/97y1n_614tj15gjp3pmt3wd00000gn/T//cczhqtVy.s 			page 2


  30:../../libDaisy//src/daisy_pod.h ****         KNOB_1,    /** &  */
  31:../../libDaisy//src/daisy_pod.h ****         KNOB_2,    /** & */
  32:../../libDaisy//src/daisy_pod.h ****         KNOB_LAST, /** & */
  33:../../libDaisy//src/daisy_pod.h ****     };
  34:../../libDaisy//src/daisy_pod.h **** 
  35:../../libDaisy//src/daisy_pod.h ****     DaisyPod() {}
  36:../../libDaisy//src/daisy_pod.h ****     ~DaisyPod() {}
  30              		.loc 1 36 5 view -0
  31              		.cfi_startproc
  32              		@ args = 0, pretend = 0, frame = 0
  33              		@ frame_needed = 0, uses_anonymous_args = 0
  34              		@ link register save eliminated.
  35              	.LBB265:
  36              	.LBI265:
  37              		.file 2 "../../libDaisy//src/hid/midi.h"
   1:../../libDaisy//src/hid/midi.h **** #pragma once
   2:../../libDaisy//src/hid/midi.h **** #ifndef DSY_MIDI_H
   3:../../libDaisy//src/hid/midi.h **** #define DSY_MIDI_H
   4:../../libDaisy//src/hid/midi.h **** 
   5:../../libDaisy//src/hid/midi.h **** // TODO: make this adjustable
   6:../../libDaisy//src/hid/midi.h **** #define SYSEX_BUFFER_LEN 128
   7:../../libDaisy//src/hid/midi.h **** 
   8:../../libDaisy//src/hid/midi.h **** #include <stdint.h>
   9:../../libDaisy//src/hid/midi.h **** #include <stdlib.h>
  10:../../libDaisy//src/hid/midi.h **** #include "per/uart.h"
  11:../../libDaisy//src/hid/midi.h **** #include "util/ringbuffer.h"
  12:../../libDaisy//src/hid/midi.h **** #include "hid/MidiEvent.h"
  13:../../libDaisy//src/hid/midi.h **** #include "hid/usb_midi.h"
  14:../../libDaisy//src/hid/midi.h **** #include "sys/system.h"
  15:../../libDaisy//src/hid/midi.h **** 
  16:../../libDaisy//src/hid/midi.h **** namespace daisy
  17:../../libDaisy//src/hid/midi.h **** {
  18:../../libDaisy//src/hid/midi.h **** /** @brief   Transport layer for sending and receiving MIDI data over UART 
  19:../../libDaisy//src/hid/midi.h ****  *  @details This is the mode of communication used for TRS and DIN MIDI
  20:../../libDaisy//src/hid/midi.h ****  *  @ingroup midi
  21:../../libDaisy//src/hid/midi.h **** */
  22:../../libDaisy//src/hid/midi.h **** class MidiUartTransport
  23:../../libDaisy//src/hid/midi.h **** {
  24:../../libDaisy//src/hid/midi.h ****   public:
  25:../../libDaisy//src/hid/midi.h ****     MidiUartTransport() {}
  26:../../libDaisy//src/hid/midi.h ****     ~MidiUartTransport() {}
  27:../../libDaisy//src/hid/midi.h **** 
  28:../../libDaisy//src/hid/midi.h ****     struct Config
  29:../../libDaisy//src/hid/midi.h ****     {
  30:../../libDaisy//src/hid/midi.h ****         UartHandler::Config::Peripheral periph;
  31:../../libDaisy//src/hid/midi.h ****         dsy_gpio_pin                    rx;
  32:../../libDaisy//src/hid/midi.h ****         dsy_gpio_pin                    tx;
  33:../../libDaisy//src/hid/midi.h **** 
  34:../../libDaisy//src/hid/midi.h ****         Config()
  35:../../libDaisy//src/hid/midi.h ****         {
  36:../../libDaisy//src/hid/midi.h ****             periph = UartHandler::Config::Peripheral::USART_1;
  37:../../libDaisy//src/hid/midi.h ****             rx     = {DSY_GPIOB, 7};
  38:../../libDaisy//src/hid/midi.h ****             tx     = {DSY_GPIOB, 6};
  39:../../libDaisy//src/hid/midi.h ****         }
  40:../../libDaisy//src/hid/midi.h ****     };
  41:../../libDaisy//src/hid/midi.h **** 
  42:../../libDaisy//src/hid/midi.h ****     inline void Init(Config config)
ARM GAS  /var/folders/ky/97y1n_614tj15gjp3pmt3wd00000gn/T//cczhqtVy.s 			page 3


  43:../../libDaisy//src/hid/midi.h ****     {
  44:../../libDaisy//src/hid/midi.h ****         UartHandler::Config uart_config;
  45:../../libDaisy//src/hid/midi.h **** 
  46:../../libDaisy//src/hid/midi.h ****         //defaults
  47:../../libDaisy//src/hid/midi.h ****         uart_config.baudrate   = 31250;
  48:../../libDaisy//src/hid/midi.h ****         uart_config.stopbits   = UartHandler::Config::StopBits::BITS_1;
  49:../../libDaisy//src/hid/midi.h ****         uart_config.parity     = UartHandler::Config::Parity::NONE;
  50:../../libDaisy//src/hid/midi.h ****         uart_config.mode       = UartHandler::Config::Mode::TX_RX;
  51:../../libDaisy//src/hid/midi.h ****         uart_config.wordlength = UartHandler::Config::WordLength::BITS_8;
  52:../../libDaisy//src/hid/midi.h **** 
  53:../../libDaisy//src/hid/midi.h ****         //user settings
  54:../../libDaisy//src/hid/midi.h ****         uart_config.periph        = config.periph;
  55:../../libDaisy//src/hid/midi.h ****         uart_config.pin_config.rx = config.rx;
  56:../../libDaisy//src/hid/midi.h ****         uart_config.pin_config.tx = config.tx;
  57:../../libDaisy//src/hid/midi.h **** 
  58:../../libDaisy//src/hid/midi.h ****         uart_.Init(uart_config);
  59:../../libDaisy//src/hid/midi.h ****     }
  60:../../libDaisy//src/hid/midi.h **** 
  61:../../libDaisy//src/hid/midi.h ****     inline void    StartRx() { uart_.StartRx(); }
  62:../../libDaisy//src/hid/midi.h ****     inline size_t  Readable() { return uart_.Readable(); }
  63:../../libDaisy//src/hid/midi.h ****     inline uint8_t Rx() { return uart_.PopRx(); }
  64:../../libDaisy//src/hid/midi.h ****     inline bool    RxActive() { return uart_.RxActive(); }
  65:../../libDaisy//src/hid/midi.h ****     inline void    FlushRx() { uart_.FlushRx(); }
  66:../../libDaisy//src/hid/midi.h ****     inline void    Tx(uint8_t* buff, size_t size) { uart_.PollTx(buff, size); }
  67:../../libDaisy//src/hid/midi.h **** 
  68:../../libDaisy//src/hid/midi.h ****   private:
  69:../../libDaisy//src/hid/midi.h ****     UartHandler uart_;
  70:../../libDaisy//src/hid/midi.h **** };
  71:../../libDaisy//src/hid/midi.h **** 
  72:../../libDaisy//src/hid/midi.h **** /** 
  73:../../libDaisy//src/hid/midi.h ****     @brief Simple MIDI Handler \n 
  74:../../libDaisy//src/hid/midi.h ****     Parses bytes from an input into valid MidiEvents. \n 
  75:../../libDaisy//src/hid/midi.h ****     The MidiEvents fill a FIFO queue that the user can pop messages from.
  76:../../libDaisy//src/hid/midi.h ****     @author shensley
  77:../../libDaisy//src/hid/midi.h ****     @date March 2020
  78:../../libDaisy//src/hid/midi.h ****     @ingroup midi
  79:../../libDaisy//src/hid/midi.h **** */
  80:../../libDaisy//src/hid/midi.h **** template <typename Transport>
  81:../../libDaisy//src/hid/midi.h **** class MidiHandler
  82:../../libDaisy//src/hid/midi.h **** {
  83:../../libDaisy//src/hid/midi.h ****   public:
  84:../../libDaisy//src/hid/midi.h ****     MidiHandler() {}
  85:../../libDaisy//src/hid/midi.h ****     ~MidiHandler() {}
  38              		.loc 2 85 5 view .LVU1
  39              	.LBB266:
  40              	.LBI266:
  26:../../libDaisy//src/hid/midi.h **** 
  41              		.loc 2 26 5 view .LVU2
  26:../../libDaisy//src/hid/midi.h **** 
  42              		.loc 2 26 5 is_stmt 0 view .LVU3
  43              	.LBE266:
  44              	.LBE265:
  45              	.LBB267:
  46              	.LBI267:
  47              		.file 3 "../../libDaisy//src/hid/rgb_led.h"
   1:../../libDaisy//src/hid/rgb_led.h **** #pragma once
   2:../../libDaisy//src/hid/rgb_led.h **** #ifndef DSY_RGB_LED_H
ARM GAS  /var/folders/ky/97y1n_614tj15gjp3pmt3wd00000gn/T//cczhqtVy.s 			page 4


   3:../../libDaisy//src/hid/rgb_led.h **** #define DSY_RGB_LED_H
   4:../../libDaisy//src/hid/rgb_led.h **** #include "hid/led.h"
   5:../../libDaisy//src/hid/rgb_led.h **** #include "util/color.h"
   6:../../libDaisy//src/hid/rgb_led.h **** 
   7:../../libDaisy//src/hid/rgb_led.h **** namespace daisy
   8:../../libDaisy//src/hid/rgb_led.h **** {
   9:../../libDaisy//src/hid/rgb_led.h **** /** @addtogroup feedback
  10:../../libDaisy//src/hid/rgb_led.h ****     @{
  11:../../libDaisy//src/hid/rgb_led.h **** */
  12:../../libDaisy//src/hid/rgb_led.h **** 
  13:../../libDaisy//src/hid/rgb_led.h **** /** 3x LEDs configured as an RGB for ease of use. */
  14:../../libDaisy//src/hid/rgb_led.h **** class RgbLed
  15:../../libDaisy//src/hid/rgb_led.h **** {
  16:../../libDaisy//src/hid/rgb_led.h ****   public:
  17:../../libDaisy//src/hid/rgb_led.h ****     RgbLed() {}
  18:../../libDaisy//src/hid/rgb_led.h ****     ~RgbLed() {}
  48              		.loc 3 18 5 is_stmt 1 view .LVU4
  49              	.LBB268:
  50              	.LBI268:
  51              		.file 4 "../../libDaisy//src/hid/led.h"
   1:../../libDaisy//src/hid/led.h **** 
   2:../../libDaisy//src/hid/led.h **** #pragma once
   3:../../libDaisy//src/hid/led.h **** #ifndef DSY_LED_H
   4:../../libDaisy//src/hid/led.h **** #define DSY_LED_H
   5:../../libDaisy//src/hid/led.h **** #include "daisy_core.h"
   6:../../libDaisy//src/hid/led.h **** #include "per/gpio.h"
   7:../../libDaisy//src/hid/led.h **** 
   8:../../libDaisy//src/hid/led.h **** /* TODO - Get this set up to work with the dev_leddriver stuff as well
   9:../../libDaisy//src/hid/led.h **** - Setup Hardware PWM for pins that have it
  10:../../libDaisy//src/hid/led.h **** */
  11:../../libDaisy//src/hid/led.h **** 
  12:../../libDaisy//src/hid/led.h **** namespace daisy
  13:../../libDaisy//src/hid/led.h **** {
  14:../../libDaisy//src/hid/led.h **** /**
  15:../../libDaisy//src/hid/led.h ****     @brief LED Class providing simple Software PWM ability, etc \n 
  16:../../libDaisy//src/hid/led.h ****     Eventually this will work with hardware PWM, and external LED Driver devices as well.
  17:../../libDaisy//src/hid/led.h ****     @author shensley
  18:../../libDaisy//src/hid/led.h ****     @date March 2020
  19:../../libDaisy//src/hid/led.h ****     @ingroup feedback
  20:../../libDaisy//src/hid/led.h **** */
  21:../../libDaisy//src/hid/led.h **** class Led
  22:../../libDaisy//src/hid/led.h **** {
  23:../../libDaisy//src/hid/led.h ****   public:
  24:../../libDaisy//src/hid/led.h ****     Led() {}
  25:../../libDaisy//src/hid/led.h ****     ~Led() {}
  52              		.loc 4 25 5 view .LVU5
  53              		.loc 4 25 5 is_stmt 0 view .LVU6
  54              	.LBE268:
  55              	.LBB269:
  56              	.LBI269:
  57              		.loc 4 25 5 is_stmt 1 view .LVU7
  58              		.loc 4 25 5 is_stmt 0 view .LVU8
  59              	.LBE269:
  60              	.LBB270:
  61              	.LBI270:
  62              		.loc 4 25 5 is_stmt 1 view .LVU9
  63              		.loc 4 25 5 is_stmt 0 view .LVU10
ARM GAS  /var/folders/ky/97y1n_614tj15gjp3pmt3wd00000gn/T//cczhqtVy.s 			page 5


  64              	.LBE270:
  65              	.LBE267:
  66              	.LBB271:
  67              	.LBI271:
  68              		.loc 3 18 5 is_stmt 1 view .LVU11
  69              	.LBB272:
  70              	.LBI272:
  71              		.loc 4 25 5 view .LVU12
  72              		.loc 4 25 5 is_stmt 0 view .LVU13
  73              	.LBE272:
  74              	.LBB273:
  75              	.LBI273:
  76              		.loc 4 25 5 is_stmt 1 view .LVU14
  77              		.loc 4 25 5 is_stmt 0 view .LVU15
  78              	.LBE273:
  79              	.LBB274:
  80              	.LBI274:
  81              		.loc 4 25 5 is_stmt 1 view .LVU16
  82              		.loc 4 25 5 is_stmt 0 view .LVU17
  83              	.LBE274:
  84              	.LBE271:
  85              	.LBB275:
  86              	.LBI275:
  87              		.file 5 "../../libDaisy//src/hid/switch.h"
   1:../../libDaisy//src/hid/switch.h **** #pragma once
   2:../../libDaisy//src/hid/switch.h **** #ifndef DSY_SWITCH_H
   3:../../libDaisy//src/hid/switch.h **** #define DSY_SWITCH_H
   4:../../libDaisy//src/hid/switch.h **** #include "daisy_core.h"
   5:../../libDaisy//src/hid/switch.h **** #include "per/gpio.h"
   6:../../libDaisy//src/hid/switch.h **** #include "sys/system.h"
   7:../../libDaisy//src/hid/switch.h **** 
   8:../../libDaisy//src/hid/switch.h **** namespace daisy
   9:../../libDaisy//src/hid/switch.h **** {
  10:../../libDaisy//src/hid/switch.h **** /** 
  11:../../libDaisy//src/hid/switch.h ****     Generic Class for handling momentary/latching switches \n 
  12:../../libDaisy//src/hid/switch.h ****     Inspired/influenced by Mutable Instruments (pichenettes) Switch classes
  13:../../libDaisy//src/hid/switch.h ****     @author Stephen Hensley
  14:../../libDaisy//src/hid/switch.h ****     @date December 2019
  15:../../libDaisy//src/hid/switch.h ****     @ingroup controls
  16:../../libDaisy//src/hid/switch.h **** */
  17:../../libDaisy//src/hid/switch.h **** class Switch
  18:../../libDaisy//src/hid/switch.h **** {
  19:../../libDaisy//src/hid/switch.h ****   public:
  20:../../libDaisy//src/hid/switch.h ****     /** Specifies the expected behavior of the switch */
  21:../../libDaisy//src/hid/switch.h ****     enum Type
  22:../../libDaisy//src/hid/switch.h ****     {
  23:../../libDaisy//src/hid/switch.h ****         TYPE_TOGGLE,    /**< & */
  24:../../libDaisy//src/hid/switch.h ****         TYPE_MOMENTARY, /**< & */
  25:../../libDaisy//src/hid/switch.h ****     };
  26:../../libDaisy//src/hid/switch.h ****     /** Specifies whether the pressed is HIGH or LOW. */
  27:../../libDaisy//src/hid/switch.h ****     enum Polarity
  28:../../libDaisy//src/hid/switch.h ****     {
  29:../../libDaisy//src/hid/switch.h ****         POLARITY_NORMAL,   /**< & */
  30:../../libDaisy//src/hid/switch.h ****         POLARITY_INVERTED, /**< & */
  31:../../libDaisy//src/hid/switch.h ****     };
  32:../../libDaisy//src/hid/switch.h **** 
  33:../../libDaisy//src/hid/switch.h ****     /** Specifies whether to use built-in Pull Up/Down resistors to hold button at a given state wh
ARM GAS  /var/folders/ky/97y1n_614tj15gjp3pmt3wd00000gn/T//cczhqtVy.s 			page 6


  34:../../libDaisy//src/hid/switch.h ****     enum Pull
  35:../../libDaisy//src/hid/switch.h ****     {
  36:../../libDaisy//src/hid/switch.h ****         PULL_UP,   /**< & */
  37:../../libDaisy//src/hid/switch.h ****         PULL_DOWN, /**< & */
  38:../../libDaisy//src/hid/switch.h ****         PULL_NONE, /**< & */
  39:../../libDaisy//src/hid/switch.h ****     };
  40:../../libDaisy//src/hid/switch.h **** 
  41:../../libDaisy//src/hid/switch.h ****     Switch() {}
  42:../../libDaisy//src/hid/switch.h ****     ~Switch() {}
  88              		.loc 5 42 5 is_stmt 1 view .LVU18
  89              		.loc 5 42 5 is_stmt 0 view .LVU19
  90              	.LBE275:
  91              	.LBB276:
  92              	.LBI276:
  93              		.loc 5 42 5 is_stmt 1 view .LVU20
  94              		.loc 5 42 5 is_stmt 0 view .LVU21
  95              	.LBE276:
  96              	.LBB277:
  97              	.LBI277:
  98              		.file 6 "../../libDaisy//src/hid/ctrl.h"
   1:../../libDaisy//src/hid/ctrl.h **** #pragma once
   2:../../libDaisy//src/hid/ctrl.h **** #ifndef DSY_KNOB_H
   3:../../libDaisy//src/hid/ctrl.h **** #define DSY_KNOB_H /**< & */
   4:../../libDaisy//src/hid/ctrl.h **** #include <stdint.h>
   5:../../libDaisy//src/hid/ctrl.h **** 
   6:../../libDaisy//src/hid/ctrl.h **** #ifdef __cplusplus
   7:../../libDaisy//src/hid/ctrl.h **** namespace daisy
   8:../../libDaisy//src/hid/ctrl.h **** {
   9:../../libDaisy//src/hid/ctrl.h **** /**
  10:../../libDaisy//src/hid/ctrl.h ****     @brief Hardware Interface for control inputs \n 
  11:../../libDaisy//src/hid/ctrl.h ****     Primarily designed for ADC input controls such as \n 
  12:../../libDaisy//src/hid/ctrl.h ****     potentiometers, and control voltage. \n 
  13:../../libDaisy//src/hid/ctrl.h ****     @author Stephen Hensley
  14:../../libDaisy//src/hid/ctrl.h ****     @date November 2019
  15:../../libDaisy//src/hid/ctrl.h ****     @ingroup controls
  16:../../libDaisy//src/hid/ctrl.h **** */
  17:../../libDaisy//src/hid/ctrl.h **** class AnalogControl
  18:../../libDaisy//src/hid/ctrl.h **** {
  19:../../libDaisy//src/hid/ctrl.h ****   public:
  20:../../libDaisy//src/hid/ctrl.h ****     /** Constructor */
  21:../../libDaisy//src/hid/ctrl.h ****     AnalogControl() {}
  22:../../libDaisy//src/hid/ctrl.h ****     /** destructor */
  23:../../libDaisy//src/hid/ctrl.h ****     ~AnalogControl() {}
  99              		.loc 6 23 5 is_stmt 1 view .LVU22
 100              		.loc 6 23 5 is_stmt 0 view .LVU23
 101              	.LBE277:
 102              	.LBB278:
 103              	.LBI278:
 104              		.loc 6 23 5 is_stmt 1 view .LVU24
 105              		.loc 6 23 5 is_stmt 0 view .LVU25
 106              	.LBE278:
 107              	.LBB279:
 108              	.LBI279:
 109              		.file 7 "../../libDaisy//src/hid/encoder.h"
   1:../../libDaisy//src/hid/encoder.h **** #pragma once
   2:../../libDaisy//src/hid/encoder.h **** #ifndef DSY_ENCODER_H
   3:../../libDaisy//src/hid/encoder.h **** #define DSY_ENCODER_H
ARM GAS  /var/folders/ky/97y1n_614tj15gjp3pmt3wd00000gn/T//cczhqtVy.s 			page 7


   4:../../libDaisy//src/hid/encoder.h **** #include "daisy_core.h"
   5:../../libDaisy//src/hid/encoder.h **** #include "per/gpio.h"
   6:../../libDaisy//src/hid/encoder.h **** #include "hid/switch.h"
   7:../../libDaisy//src/hid/encoder.h **** 
   8:../../libDaisy//src/hid/encoder.h **** namespace daisy
   9:../../libDaisy//src/hid/encoder.h **** {
  10:../../libDaisy//src/hid/encoder.h **** /** 
  11:../../libDaisy//src/hid/encoder.h ****     @brief Generic Class for handling Quadrature Encoders \n 
  12:../../libDaisy//src/hid/encoder.h ****     Inspired/influenced by Mutable Instruments (pichenettes) Encoder classes
  13:../../libDaisy//src/hid/encoder.h ****     @author Stephen Hensley
  14:../../libDaisy//src/hid/encoder.h ****     @date December 2019
  15:../../libDaisy//src/hid/encoder.h ****     @ingroup controls
  16:../../libDaisy//src/hid/encoder.h **** */
  17:../../libDaisy//src/hid/encoder.h **** class Encoder
  18:../../libDaisy//src/hid/encoder.h **** {
  19:../../libDaisy//src/hid/encoder.h ****   public:
  20:../../libDaisy//src/hid/encoder.h ****     Encoder() {}
  21:../../libDaisy//src/hid/encoder.h ****     ~Encoder() {}
 110              		.loc 7 21 5 is_stmt 1 view .LVU26
 111              	.LBB280:
 112              	.LBI280:
 113              		.loc 5 42 5 view .LVU27
 114              		.loc 5 42 5 is_stmt 0 view .LVU28
 115              	.LBE280:
 116              	.LBE279:
 117              	.LBB281:
 118              	.LBI281:
 119              		.file 8 "../../libDaisy//src/daisy_seed.h"
   1:../../libDaisy//src/daisy_seed.h **** #pragma once
   2:../../libDaisy//src/daisy_seed.h **** #ifndef DSY_SEED_H
   3:../../libDaisy//src/daisy_seed.h **** #define DSY_SEED_H
   4:../../libDaisy//src/daisy_seed.h **** 
   5:../../libDaisy//src/daisy_seed.h **** #include "daisy.h"
   6:../../libDaisy//src/daisy_seed.h **** 
   7:../../libDaisy//src/daisy_seed.h **** //Uncomment this out if you're still using the rev2 hardware
   8:../../libDaisy//src/daisy_seed.h **** //#define SEED_REV2
   9:../../libDaisy//src/daisy_seed.h **** 
  10:../../libDaisy//src/daisy_seed.h **** namespace daisy
  11:../../libDaisy//src/daisy_seed.h **** {
  12:../../libDaisy//src/daisy_seed.h **** /**
  13:../../libDaisy//src/daisy_seed.h ****    @brief This is the higher-level interface for the Daisy board. \n 
  14:../../libDaisy//src/daisy_seed.h ****     All basic peripheral configuration/initialization is setup here. \n
  15:../../libDaisy//src/daisy_seed.h **** 
  16:../../libDaisy//src/daisy_seed.h ****    @ingroup boards
  17:../../libDaisy//src/daisy_seed.h **** */
  18:../../libDaisy//src/daisy_seed.h **** class DaisySeed
  19:../../libDaisy//src/daisy_seed.h **** {
  20:../../libDaisy//src/daisy_seed.h ****   public:
  21:../../libDaisy//src/daisy_seed.h ****     DaisySeed() {}
  22:../../libDaisy//src/daisy_seed.h ****     ~DaisySeed() {}
 120              		.loc 8 22 5 is_stmt 1 view .LVU29
 121              	.LBB282:
 122              	.LBI282:
 123              		.file 9 "../../libDaisy//src/sys/system.h"
   1:../../libDaisy//src/sys/system.h **** #ifndef DSY_SYSTEM_H
   2:../../libDaisy//src/sys/system.h **** #define DSY_SYSTEM_H
   3:../../libDaisy//src/sys/system.h **** 
ARM GAS  /var/folders/ky/97y1n_614tj15gjp3pmt3wd00000gn/T//cczhqtVy.s 			page 8


   4:../../libDaisy//src/sys/system.h **** #ifndef UNIT_TEST // for unit tests, a dummy implementation is provided below
   5:../../libDaisy//src/sys/system.h **** 
   6:../../libDaisy//src/sys/system.h **** #include <cstdint>
   7:../../libDaisy//src/sys/system.h **** #include "per/tim.h"
   8:../../libDaisy//src/sys/system.h **** 
   9:../../libDaisy//src/sys/system.h **** namespace daisy
  10:../../libDaisy//src/sys/system.h **** {
  11:../../libDaisy//src/sys/system.h **** /** A handle for interacting with the Core System. 
  12:../../libDaisy//src/sys/system.h ****  ** This includes the Clock tree, MPU, global DMA initialization,
  13:../../libDaisy//src/sys/system.h ****  ** cache handling, and any other necessary global initiailzation
  14:../../libDaisy//src/sys/system.h ****  **
  15:../../libDaisy//src/sys/system.h ****  ** @author shensley
  16:../../libDaisy//src/sys/system.h ****  ** @ingroup system
  17:../../libDaisy//src/sys/system.h ****  */
  18:../../libDaisy//src/sys/system.h **** class System
  19:../../libDaisy//src/sys/system.h **** {
  20:../../libDaisy//src/sys/system.h ****   public:
  21:../../libDaisy//src/sys/system.h ****     /** Contains settings for initializing the System */
  22:../../libDaisy//src/sys/system.h ****     struct Config
  23:../../libDaisy//src/sys/system.h ****     {
  24:../../libDaisy//src/sys/system.h ****         /** Specifies the system clock frequency that feeds APB/AHB clocks, etc. */
  25:../../libDaisy//src/sys/system.h ****         enum class SysClkFreq
  26:../../libDaisy//src/sys/system.h ****         {
  27:../../libDaisy//src/sys/system.h ****             FREQ_400MHZ,
  28:../../libDaisy//src/sys/system.h ****             FREQ_480MHZ,
  29:../../libDaisy//src/sys/system.h ****         };
  30:../../libDaisy//src/sys/system.h **** 
  31:../../libDaisy//src/sys/system.h ****         /** Method to call on the struct to set to defaults
  32:../../libDaisy//src/sys/system.h ****          ** CPU Freq set to 400MHz
  33:../../libDaisy//src/sys/system.h ****          ** Cache Enabled 
  34:../../libDaisy//src/sys/system.h ****          ** */
  35:../../libDaisy//src/sys/system.h ****         void Defaults()
  36:../../libDaisy//src/sys/system.h ****         {
  37:../../libDaisy//src/sys/system.h ****             cpu_freq    = SysClkFreq::FREQ_400MHZ;
  38:../../libDaisy//src/sys/system.h ****             use_dcache  = true;
  39:../../libDaisy//src/sys/system.h ****             use_icache  = true;
  40:../../libDaisy//src/sys/system.h ****             skip_clocks = false;
  41:../../libDaisy//src/sys/system.h ****         }
  42:../../libDaisy//src/sys/system.h **** 
  43:../../libDaisy//src/sys/system.h ****         /** Method to call on the struct to set to boost mode:
  44:../../libDaisy//src/sys/system.h ****          ** CPU Freq set to 480MHz
  45:../../libDaisy//src/sys/system.h ****          ** Cache Enabled 
  46:../../libDaisy//src/sys/system.h ****          ** */
  47:../../libDaisy//src/sys/system.h ****         void Boost()
  48:../../libDaisy//src/sys/system.h ****         {
  49:../../libDaisy//src/sys/system.h ****             cpu_freq    = SysClkFreq::FREQ_480MHZ;
  50:../../libDaisy//src/sys/system.h ****             use_dcache  = true;
  51:../../libDaisy//src/sys/system.h ****             use_icache  = true;
  52:../../libDaisy//src/sys/system.h ****             skip_clocks = false;
  53:../../libDaisy//src/sys/system.h ****         }
  54:../../libDaisy//src/sys/system.h **** 
  55:../../libDaisy//src/sys/system.h ****         SysClkFreq cpu_freq;
  56:../../libDaisy//src/sys/system.h ****         bool       use_dcache;
  57:../../libDaisy//src/sys/system.h ****         bool       use_icache;
  58:../../libDaisy//src/sys/system.h ****         bool       skip_clocks;
  59:../../libDaisy//src/sys/system.h ****     };
  60:../../libDaisy//src/sys/system.h **** 
ARM GAS  /var/folders/ky/97y1n_614tj15gjp3pmt3wd00000gn/T//cczhqtVy.s 			page 9


  61:../../libDaisy//src/sys/system.h ****     /** Describes the different regions of memory available to the Daisy
  62:../../libDaisy//src/sys/system.h ****      * 
  63:../../libDaisy//src/sys/system.h ****      */
  64:../../libDaisy//src/sys/system.h ****     enum MemoryRegion
  65:../../libDaisy//src/sys/system.h ****     {
  66:../../libDaisy//src/sys/system.h ****         INTERNAL_FLASH = 0,
  67:../../libDaisy//src/sys/system.h ****         ITCMRAM,
  68:../../libDaisy//src/sys/system.h ****         DTCMRAM,
  69:../../libDaisy//src/sys/system.h ****         SRAM_D1,
  70:../../libDaisy//src/sys/system.h ****         SRAM_D2,
  71:../../libDaisy//src/sys/system.h ****         SRAM_D3,
  72:../../libDaisy//src/sys/system.h ****         SDRAM,
  73:../../libDaisy//src/sys/system.h ****         QSPI,
  74:../../libDaisy//src/sys/system.h ****         INVALID_ADDRESS,
  75:../../libDaisy//src/sys/system.h ****     };
  76:../../libDaisy//src/sys/system.h **** 
  77:../../libDaisy//src/sys/system.h ****     System() {}
  78:../../libDaisy//src/sys/system.h ****     ~System() {}
 124              		.loc 9 78 5 view .LVU30
 125              		.loc 9 78 5 is_stmt 0 view .LVU31
 126              	.LBE282:
 127              	.LBB283:
 128              	.LBI283:
 129              		.file 10 "../../libDaisy//src/hid/usb.h"
   1:../../libDaisy//src/hid/usb.h **** #pragma once
   2:../../libDaisy//src/hid/usb.h **** #ifndef DSY_HID_USB_H
   3:../../libDaisy//src/hid/usb.h **** #define DSY_HID_USB_H
   4:../../libDaisy//src/hid/usb.h **** #include <stdint.h>
   5:../../libDaisy//src/hid/usb.h **** #include <stdlib.h>
   6:../../libDaisy//src/hid/usb.h **** 
   7:../../libDaisy//src/hid/usb.h **** namespace daisy
   8:../../libDaisy//src/hid/usb.h **** /** @addtogroup human_interface
   9:../../libDaisy//src/hid/usb.h ****     @{
  10:../../libDaisy//src/hid/usb.h **** */
  11:../../libDaisy//src/hid/usb.h **** 
  12:../../libDaisy//src/hid/usb.h **** {
  13:../../libDaisy//src/hid/usb.h **** /** 
  14:../../libDaisy//src/hid/usb.h ****     @brief Interface for initializing and using the USB Peripherals on the daisy
  15:../../libDaisy//src/hid/usb.h ****     @author Stephen Hensley
  16:../../libDaisy//src/hid/usb.h ****     @date December 2019
  17:../../libDaisy//src/hid/usb.h **** */
  18:../../libDaisy//src/hid/usb.h **** class UsbHandle
  19:../../libDaisy//src/hid/usb.h **** {
  20:../../libDaisy//src/hid/usb.h ****   public:
  21:../../libDaisy//src/hid/usb.h ****     /** Return values for USBHandle Functions */
  22:../../libDaisy//src/hid/usb.h ****     enum class Result
  23:../../libDaisy//src/hid/usb.h ****     {
  24:../../libDaisy//src/hid/usb.h ****         OK,
  25:../../libDaisy//src/hid/usb.h ****         ERR,
  26:../../libDaisy//src/hid/usb.h ****     };
  27:../../libDaisy//src/hid/usb.h **** 
  28:../../libDaisy//src/hid/usb.h ****     /** Specified which of the two USB Peripherals to initialize. */
  29:../../libDaisy//src/hid/usb.h ****     enum UsbPeriph
  30:../../libDaisy//src/hid/usb.h ****     {
  31:../../libDaisy//src/hid/usb.h ****         FS_INTERNAL, /**< Internal pin */
  32:../../libDaisy//src/hid/usb.h ****         FS_EXTERNAL, /**< FS External D+ pin is Pin 38 (GPIO32). FS External D- pin is Pin 37 (GPIO
  33:../../libDaisy//src/hid/usb.h ****         FS_BOTH,     /**< Both */
ARM GAS  /var/folders/ky/97y1n_614tj15gjp3pmt3wd00000gn/T//cczhqtVy.s 			page 10


  34:../../libDaisy//src/hid/usb.h ****     };
  35:../../libDaisy//src/hid/usb.h **** 
  36:../../libDaisy//src/hid/usb.h **** 
  37:../../libDaisy//src/hid/usb.h ****     /** Function called upon reception of a buffer */
  38:../../libDaisy//src/hid/usb.h ****     typedef void (*ReceiveCallback)(uint8_t* buff, uint32_t* len);
  39:../../libDaisy//src/hid/usb.h **** 
  40:../../libDaisy//src/hid/usb.h ****     UsbHandle() {}
  41:../../libDaisy//src/hid/usb.h **** 
  42:../../libDaisy//src/hid/usb.h ****     ~UsbHandle() {}
 130              		.loc 10 42 5 is_stmt 1 view .LVU32
 131              		.loc 10 42 5 is_stmt 0 view .LVU33
 132              	.LBE283:
 133              	.LBB284:
 134              	.LBI284:
 135              		.file 11 "../../libDaisy//src/per/adc.h"
   1:../../libDaisy//src/per/adc.h **** #pragma once
   2:../../libDaisy//src/per/adc.h **** #ifndef DSY_ADC_H
   3:../../libDaisy//src/per/adc.h **** #define DSY_ADC_H /**< Macro */
   4:../../libDaisy//src/per/adc.h **** #include <stdint.h>
   5:../../libDaisy//src/per/adc.h **** #include <stdlib.h>
   6:../../libDaisy//src/per/adc.h **** #include "daisy_core.h"
   7:../../libDaisy//src/per/adc.h **** #include "per/gpio.h"
   8:../../libDaisy//src/per/adc.h **** 
   9:../../libDaisy//src/per/adc.h **** #define DSY_ADC_MAX_CHANNELS 16 /**< Maximum number of ADC channels */
  10:../../libDaisy//src/per/adc.h **** 
  11:../../libDaisy//src/per/adc.h **** namespace daisy
  12:../../libDaisy//src/per/adc.h **** {
  13:../../libDaisy//src/per/adc.h **** /** @addtogroup per_analog
  14:../../libDaisy//src/per/adc.h ****     @{
  15:../../libDaisy//src/per/adc.h **** */
  16:../../libDaisy//src/per/adc.h **** 
  17:../../libDaisy//src/per/adc.h **** /* While there may not be many configuration options here,
  18:../../libDaisy//src/per/adc.h **** using a struct like this allows us to add more configuration
  19:../../libDaisy//src/per/adc.h **** later without breaking existing functionality.
  20:../../libDaisy//src/per/adc.h **** */
  21:../../libDaisy//src/per/adc.h **** 
  22:../../libDaisy//src/per/adc.h **** /** @brief   Configuration Structure for an ADC Channel 
  23:../../libDaisy//src/per/adc.h ****  *  @details This can be used to configure a a single input, 
  24:../../libDaisy//src/per/adc.h ****  *           or a multiplexed input, allowing up to 8 inputs on 
  25:../../libDaisy//src/per/adc.h ****  *           one channel.
  26:../../libDaisy//src/per/adc.h ****  *  @note    Sharing data lines to multiple muxes _is_ possible, but
  27:../../libDaisy//src/per/adc.h ****  *           each channel sharing data lines must be set to the maximum
  28:../../libDaisy//src/per/adc.h ****  *           number of channels, even if some multiplexers have fewer
  29:../../libDaisy//src/per/adc.h ****  *           inputs connected.
  30:../../libDaisy//src/per/adc.h **** */
  31:../../libDaisy//src/per/adc.h **** struct AdcChannelConfig
  32:../../libDaisy//src/per/adc.h **** {
  33:../../libDaisy//src/per/adc.h ****     /** Which pin to use for multiplexing */
  34:../../libDaisy//src/per/adc.h ****     enum MuxPin
  35:../../libDaisy//src/per/adc.h ****     {
  36:../../libDaisy//src/per/adc.h ****         MUX_SEL_0,    /**< & */
  37:../../libDaisy//src/per/adc.h ****         MUX_SEL_1,    /**< & */
  38:../../libDaisy//src/per/adc.h ****         MUX_SEL_2,    /**< & */
  39:../../libDaisy//src/per/adc.h ****         MUX_SEL_LAST, /**< & */
  40:../../libDaisy//src/per/adc.h ****     };
  41:../../libDaisy//src/per/adc.h **** 
  42:../../libDaisy//src/per/adc.h ****     /** Initializes a single ADC pin as an ADC. 
ARM GAS  /var/folders/ky/97y1n_614tj15gjp3pmt3wd00000gn/T//cczhqtVy.s 			page 11


  43:../../libDaisy//src/per/adc.h ****     \param pin Pin to init.
  44:../../libDaisy//src/per/adc.h ****      */
  45:../../libDaisy//src/per/adc.h ****     void InitSingle(dsy_gpio_pin pin);
  46:../../libDaisy//src/per/adc.h **** 
  47:../../libDaisy//src/per/adc.h ****     /** 
  48:../../libDaisy//src/per/adc.h ****     Initializes a single ADC pin as a Multiplexed ADC.
  49:../../libDaisy//src/per/adc.h ****     Requires a CD405X Multiplexer connected to the pin.
  50:../../libDaisy//src/per/adc.h ****     You only need to supply the mux pins that are required,
  51:../../libDaisy//src/per/adc.h ****     e.g. a 4052 mux would only require mux_0 and mux_1.
  52:../../libDaisy//src/per/adc.h ****     Internal Callbacks handle the pin addressing.
  53:../../libDaisy//src/per/adc.h ****     \param mux_channels must be 1-8
  54:../../libDaisy//src/per/adc.h ****     \param mux_0 First mux pin
  55:../../libDaisy//src/per/adc.h ****     \param mux_1 Second mux pin
  56:../../libDaisy//src/per/adc.h ****     \param mux_2 Third mux pin
  57:../../libDaisy//src/per/adc.h ****     \param adc_pin &
  58:../../libDaisy//src/per/adc.h ****     */
  59:../../libDaisy//src/per/adc.h ****     void InitMux(dsy_gpio_pin adc_pin,
  60:../../libDaisy//src/per/adc.h ****                  size_t       mux_channels,
  61:../../libDaisy//src/per/adc.h ****                  dsy_gpio_pin mux_0,
  62:../../libDaisy//src/per/adc.h ****                  dsy_gpio_pin mux_1 = {DSY_GPIOX, 0},
  63:../../libDaisy//src/per/adc.h ****                  dsy_gpio_pin mux_2 = {DSY_GPIOX, 0});
  64:../../libDaisy//src/per/adc.h **** 
  65:../../libDaisy//src/per/adc.h ****     dsy_gpio pin_;                   /**< & */
  66:../../libDaisy//src/per/adc.h ****     dsy_gpio mux_pin_[MUX_SEL_LAST]; /**< & */
  67:../../libDaisy//src/per/adc.h ****     uint8_t  mux_channels_;          /**< & */
  68:../../libDaisy//src/per/adc.h **** };
  69:../../libDaisy//src/per/adc.h **** 
  70:../../libDaisy//src/per/adc.h **** /**
  71:../../libDaisy//src/per/adc.h ****    @brief Handler for analog to digital conversion
  72:../../libDaisy//src/per/adc.h **** */
  73:../../libDaisy//src/per/adc.h **** class AdcHandle
  74:../../libDaisy//src/per/adc.h **** {
  75:../../libDaisy//src/per/adc.h ****   public:
  76:../../libDaisy//src/per/adc.h ****     /** Supported oversampling amounts */
  77:../../libDaisy//src/per/adc.h ****     enum OverSampling
  78:../../libDaisy//src/per/adc.h ****     {
  79:../../libDaisy//src/per/adc.h ****         OVS_NONE, /**< & */
  80:../../libDaisy//src/per/adc.h ****         OVS_4,    /**< & */
  81:../../libDaisy//src/per/adc.h ****         OVS_8,    /**< & */
  82:../../libDaisy//src/per/adc.h ****         OVS_16,   /**< & */
  83:../../libDaisy//src/per/adc.h ****         OVS_32,   /**< & */
  84:../../libDaisy//src/per/adc.h ****         OVS_64,   /**< & */
  85:../../libDaisy//src/per/adc.h ****         OVS_128,  /**< & */
  86:../../libDaisy//src/per/adc.h ****         OVS_256,  /**< & */
  87:../../libDaisy//src/per/adc.h ****         OVS_512,  /**< & */
  88:../../libDaisy//src/per/adc.h ****         OVS_1024, /**< & */
  89:../../libDaisy//src/per/adc.h ****         OVS_LAST, /**< & */
  90:../../libDaisy//src/per/adc.h ****     };
  91:../../libDaisy//src/per/adc.h **** 
  92:../../libDaisy//src/per/adc.h ****     AdcHandle() {}
  93:../../libDaisy//src/per/adc.h ****     ~AdcHandle() {}
 136              		.loc 11 93 5 is_stmt 1 view .LVU34
 137              		.loc 11 93 5 is_stmt 0 view .LVU35
 138              	.LBE284:
 139              	.LBB285:
 140              	.LBI285:
 141              		.file 12 "../../libDaisy//src/hid/audio.h"
ARM GAS  /var/folders/ky/97y1n_614tj15gjp3pmt3wd00000gn/T//cczhqtVy.s 			page 12


   1:../../libDaisy//src/hid/audio.h **** #ifndef DSY_AUDIO_H
   2:../../libDaisy//src/hid/audio.h **** #define DSY_AUDIO_H /**< & */
   3:../../libDaisy//src/hid/audio.h **** 
   4:../../libDaisy//src/hid/audio.h **** #include "per/sai.h"
   5:../../libDaisy//src/hid/audio.h **** 
   6:../../libDaisy//src/hid/audio.h **** namespace daisy
   7:../../libDaisy//src/hid/audio.h **** {
   8:../../libDaisy//src/hid/audio.h **** /** @brief Audio Engine Handle
   9:../../libDaisy//src/hid/audio.h ****  *  @ingroup audio 
  10:../../libDaisy//src/hid/audio.h ****  *  @details This class allows for higher level access to an audio engine.
  11:../../libDaisy//src/hid/audio.h ****  *           If you're using a SOM like the DaisySeed or DaisyPatchSM (or any 
  12:../../libDaisy//src/hid/audio.h ****  *            board that includes one of those objects) then the intialization
  13:../../libDaisy//src/hid/audio.h ****  *            is already taken  care of.
  14:../../libDaisy//src/hid/audio.h ****  *           If you're setting up your own custom hardware, or need to make changes
  15:../../libDaisy//src/hid/audio.h ****  *           you will have to take the following steps:
  16:../../libDaisy//src/hid/audio.h ****  *             1. Create and Initialize an SaiHandle or two depending on your requirements
  17:../../libDaisy//src/hid/audio.h ****  *             2. Initialize the Audio Handle with the desired settings and the Initialized SaiHand
  18:../../libDaisy//src/hid/audio.h ****  *             3. If the connected codec requires special configuration or initialization, do so
  19:../../libDaisy//src/hid/audio.h ****  *             4. Write a callback method using either the AudioCallback or the InterleavingAudioCa
  20:../../libDaisy//src/hid/audio.h ****  *             5. Start the Audio using one of the StartAudio function
  21:../../libDaisy//src/hid/audio.h ****  */
  22:../../libDaisy//src/hid/audio.h **** class AudioHandle
  23:../../libDaisy//src/hid/audio.h **** {
  24:../../libDaisy//src/hid/audio.h ****   public:
  25:../../libDaisy//src/hid/audio.h ****     /** Manually configurable details about the Audio Engine */
  26:../../libDaisy//src/hid/audio.h ****     /** TODO: Figure out how to get samplerate in here. */
  27:../../libDaisy//src/hid/audio.h ****     struct Config
  28:../../libDaisy//src/hid/audio.h ****     {
  29:../../libDaisy//src/hid/audio.h ****         /** number of samples to process per callback */
  30:../../libDaisy//src/hid/audio.h ****         size_t blocksize;
  31:../../libDaisy//src/hid/audio.h **** 
  32:../../libDaisy//src/hid/audio.h ****         /**< Sample rate of audio */
  33:../../libDaisy//src/hid/audio.h ****         SaiHandle::Config::SampleRate samplerate;
  34:../../libDaisy//src/hid/audio.h **** 
  35:../../libDaisy//src/hid/audio.h ****         /** factor for adjustment before and after callback for hardware that may have extra headro
  36:../../libDaisy//src/hid/audio.h ****         float postgain;
  37:../../libDaisy//src/hid/audio.h **** 
  38:../../libDaisy//src/hid/audio.h ****         /** factor for additional one-sided compensation to audio path for hardware that may
  39:../../libDaisy//src/hid/audio.h ****          *  have unequal input/output ranges
  40:../../libDaisy//src/hid/audio.h ****          */
  41:../../libDaisy//src/hid/audio.h ****         float output_compensation;
  42:../../libDaisy//src/hid/audio.h **** 
  43:../../libDaisy//src/hid/audio.h ****         /** Sets default values for config struct */
  44:../../libDaisy//src/hid/audio.h ****         Config()
  45:../../libDaisy//src/hid/audio.h ****         : blocksize(48),
  46:../../libDaisy//src/hid/audio.h ****           samplerate(SaiHandle::Config::SampleRate::SAI_48KHZ),
  47:../../libDaisy//src/hid/audio.h ****           postgain(1.f),
  48:../../libDaisy//src/hid/audio.h ****           output_compensation(1.f)
  49:../../libDaisy//src/hid/audio.h ****         {
  50:../../libDaisy//src/hid/audio.h ****         }
  51:../../libDaisy//src/hid/audio.h ****     };
  52:../../libDaisy//src/hid/audio.h **** 
  53:../../libDaisy//src/hid/audio.h ****     enum class Result
  54:../../libDaisy//src/hid/audio.h ****     {
  55:../../libDaisy//src/hid/audio.h ****         OK,
  56:../../libDaisy//src/hid/audio.h ****         ERR,
  57:../../libDaisy//src/hid/audio.h ****     };
ARM GAS  /var/folders/ky/97y1n_614tj15gjp3pmt3wd00000gn/T//cczhqtVy.s 			page 13


  58:../../libDaisy//src/hid/audio.h **** 
  59:../../libDaisy//src/hid/audio.h ****     /** Non-Interleaving input buffer
  60:../../libDaisy//src/hid/audio.h ****      * Buffer arranged by float[chn][sample] 
  61:../../libDaisy//src/hid/audio.h ****      * const so that the user can't modify the input
  62:../../libDaisy//src/hid/audio.h ****      */
  63:../../libDaisy//src/hid/audio.h ****     typedef const float* const* InputBuffer;
  64:../../libDaisy//src/hid/audio.h **** 
  65:../../libDaisy//src/hid/audio.h ****     /** Non-Interleaving output buffer
  66:../../libDaisy//src/hid/audio.h ****      * Arranged by float[chn][sample] 
  67:../../libDaisy//src/hid/audio.h ****      */
  68:../../libDaisy//src/hid/audio.h ****     typedef float** OutputBuffer;
  69:../../libDaisy//src/hid/audio.h **** 
  70:../../libDaisy//src/hid/audio.h ****     /** Type for a Non-Interleaving audio callback 
  71:../../libDaisy//src/hid/audio.h ****      * Non-Interleaving audio callbacks in daisy will be of this type
  72:../../libDaisy//src/hid/audio.h ****      */
  73:../../libDaisy//src/hid/audio.h ****     typedef void (*AudioCallback)(InputBuffer  in,
  74:../../libDaisy//src/hid/audio.h ****                                   OutputBuffer out,
  75:../../libDaisy//src/hid/audio.h ****                                   size_t       size);
  76:../../libDaisy//src/hid/audio.h **** 
  77:../../libDaisy//src/hid/audio.h ****     /** Interleaving Input buffer
  78:../../libDaisy//src/hid/audio.h ****      ** audio is prepared as { L0, R0, L1, R1, . . . LN, RN }]
  79:../../libDaisy//src/hid/audio.h ****      ** this is const, as the user shouldn't modify it
  80:../../libDaisy//src/hid/audio.h ****     */
  81:../../libDaisy//src/hid/audio.h ****     typedef const float* InterleavingInputBuffer;
  82:../../libDaisy//src/hid/audio.h **** 
  83:../../libDaisy//src/hid/audio.h ****     /** Interleaving Output buffer 
  84:../../libDaisy//src/hid/audio.h ****      ** audio is prepared as { L0, R0, L1, R1, . . . LN, RN }
  85:../../libDaisy//src/hid/audio.h ****     */
  86:../../libDaisy//src/hid/audio.h ****     typedef float* InterleavingOutputBuffer;
  87:../../libDaisy//src/hid/audio.h **** 
  88:../../libDaisy//src/hid/audio.h ****     /** Interleaving Audio Callback 
  89:../../libDaisy//src/hid/audio.h ****      * Interleaving audio callbacks in daisy must be of this type
  90:../../libDaisy//src/hid/audio.h ****      */
  91:../../libDaisy//src/hid/audio.h ****     typedef void (*InterleavingAudioCallback)(InterleavingInputBuffer  in,
  92:../../libDaisy//src/hid/audio.h ****                                               InterleavingOutputBuffer out,
  93:../../libDaisy//src/hid/audio.h ****                                               size_t                   size);
  94:../../libDaisy//src/hid/audio.h **** 
  95:../../libDaisy//src/hid/audio.h ****     AudioHandle() : pimpl_(nullptr) {}
  96:../../libDaisy//src/hid/audio.h ****     ~AudioHandle() {}
 142              		.loc 12 96 5 is_stmt 1 view .LVU36
 143              		.loc 12 96 5 is_stmt 0 view .LVU37
 144              	.LBE285:
 145              	.LBE281:
 146              		.loc 1 36 18 view .LVU38
 147 0000 7047     		bx	lr
 148              		.cfi_endproc
 149              	.LFE2538:
 151              		.weak	_ZN5daisy8DaisyPodD1Ev
 152              		.thumb_set _ZN5daisy8DaisyPodD1Ev,_ZN5daisy8DaisyPodD2Ev
 153 0002 00BF     		.section	.text._Z12randomNumberv,"ax",%progbits
 154              		.align	1
 155              		.p2align 2,,3
 156              		.global	_Z12randomNumberv
 157              		.syntax unified
 158              		.thumb
 159              		.thumb_func
 161              	_Z12randomNumberv:
ARM GAS  /var/folders/ky/97y1n_614tj15gjp3pmt3wd00000gn/T//cczhqtVy.s 			page 14


 162              	.LFB2541:
 163              		.file 13 "MyProj.cpp"
   1:MyProj.cpp    **** #include "daisy_pod.h"
   2:MyProj.cpp    **** //#include "daisysp.h"
   3:MyProj.cpp    **** #include "leaf.h"
   4:MyProj.cpp    **** using namespace daisy;
   5:MyProj.cpp    **** //using namespace daisysp;
   6:MyProj.cpp    **** LEAF leaf;
   7:MyProj.cpp    **** char leafMemory[65535];
   8:MyProj.cpp    **** DaisyPod hw;
   9:MyProj.cpp    **** tCycle mySine;
  10:MyProj.cpp    **** 
  11:MyProj.cpp    **** float randomNumber()
  12:MyProj.cpp    **** {
 164              		.loc 13 12 1 is_stmt 1 view -0
 165              		.cfi_startproc
 166              		@ Volatile: function does not return.
 167              		@ args = 0, pretend = 0, frame = 0
 168              		@ frame_needed = 0, uses_anonymous_args = 0
  13:MyProj.cpp    **** 	Random::GetFloat(0.0f, 1.0f);
 169              		.loc 13 13 2 view .LVU40
 170              		.loc 13 13 18 is_stmt 0 view .LVU41
 171 0000 F7EE000A 		vmov.f32	s1, #1.0e+0
 172 0004 9FED020A 		vldr.32	s0, .L5
  12:MyProj.cpp    **** 	Random::GetFloat(0.0f, 1.0f);
 173              		.loc 13 12 1 view .LVU42
 174 0008 08B5     		push	{r3, lr}
 175              		.cfi_def_cfa_offset 8
 176              		.cfi_offset 3, -8
 177              		.cfi_offset 14, -4
 178              		.loc 13 13 18 view .LVU43
 179 000a FFF7FEFF 		bl	_ZN5daisy6Random8GetFloatEff
 180              	.LVL1:
 181              	.L6:
 182 000e 00BF     		.align	2
 183              	.L5:
 184 0010 00000000 		.word	0
 185              		.cfi_endproc
 186              	.LFE2541:
 188              		.section	.text._Z13AudioCallbackPKPKfPPfj,"ax",%progbits
 189              		.align	1
 190              		.p2align 2,,3
 191              		.global	_Z13AudioCallbackPKPKfPPfj
 192              		.syntax unified
 193              		.thumb
 194              		.thumb_func
 196              	_Z13AudioCallbackPKPKfPPfj:
 197              	.LVL2:
 198              	.LFB2542:
  14:MyProj.cpp    **** }
  15:MyProj.cpp    **** 
  16:MyProj.cpp    **** 
  17:MyProj.cpp    **** void AudioCallback(AudioHandle::InputBuffer in, AudioHandle::OutputBuffer out, size_t size)
  18:MyProj.cpp    **** {
 199              		.loc 13 18 1 is_stmt 1 view -0
 200              		.cfi_startproc
 201              		@ args = 0, pretend = 0, frame = 0
ARM GAS  /var/folders/ky/97y1n_614tj15gjp3pmt3wd00000gn/T//cczhqtVy.s 			page 15


 202              		@ frame_needed = 0, uses_anonymous_args = 0
  19:MyProj.cpp    **** 	hw.ProcessAllControls();
 203              		.loc 13 19 2 view .LVU45
 204              	.LBB286:
 205              	.LBI286:
  37:../../libDaisy//src/daisy_pod.h **** 
  38:../../libDaisy//src/daisy_pod.h ****     /** Init related stuff. */
  39:../../libDaisy//src/daisy_pod.h ****     void Init(bool boost = false);
  40:../../libDaisy//src/daisy_pod.h **** 
  41:../../libDaisy//src/daisy_pod.h ****     /** Wait for a bit
  42:../../libDaisy//src/daisy_pod.h ****     \param del Time to wait in ms.
  43:../../libDaisy//src/daisy_pod.h ****     */
  44:../../libDaisy//src/daisy_pod.h ****     void DelayMs(size_t del);
  45:../../libDaisy//src/daisy_pod.h **** 
  46:../../libDaisy//src/daisy_pod.h ****     /** Starts the callback
  47:../../libDaisy//src/daisy_pod.h ****     \param cb Interleaved callback function
  48:../../libDaisy//src/daisy_pod.h ****     */
  49:../../libDaisy//src/daisy_pod.h ****     void StartAudio(AudioHandle::InterleavingAudioCallback cb);
  50:../../libDaisy//src/daisy_pod.h **** 
  51:../../libDaisy//src/daisy_pod.h ****     /** Starts the callback
  52:../../libDaisy//src/daisy_pod.h ****     \param cb multichannel callback function
  53:../../libDaisy//src/daisy_pod.h ****     */
  54:../../libDaisy//src/daisy_pod.h ****     void StartAudio(AudioHandle::AudioCallback cb);
  55:../../libDaisy//src/daisy_pod.h **** 
  56:../../libDaisy//src/daisy_pod.h ****     /**
  57:../../libDaisy//src/daisy_pod.h ****        Switch callback functions
  58:../../libDaisy//src/daisy_pod.h ****        \param cb New interleaved callback function.
  59:../../libDaisy//src/daisy_pod.h ****     */
  60:../../libDaisy//src/daisy_pod.h ****     void ChangeAudioCallback(AudioHandle::InterleavingAudioCallback cb);
  61:../../libDaisy//src/daisy_pod.h **** 
  62:../../libDaisy//src/daisy_pod.h ****     /**
  63:../../libDaisy//src/daisy_pod.h ****        Switch callback functions
  64:../../libDaisy//src/daisy_pod.h ****        \param cb New multichannel callback function.
  65:../../libDaisy//src/daisy_pod.h ****     */
  66:../../libDaisy//src/daisy_pod.h ****     void ChangeAudioCallback(AudioHandle::AudioCallback cb);
  67:../../libDaisy//src/daisy_pod.h **** 
  68:../../libDaisy//src/daisy_pod.h ****     /** Stops the audio if it is running. */
  69:../../libDaisy//src/daisy_pod.h ****     void StopAudio();
  70:../../libDaisy//src/daisy_pod.h **** 
  71:../../libDaisy//src/daisy_pod.h ****     /** Updates the Audio Sample Rate, and reinitializes.
  72:../../libDaisy//src/daisy_pod.h ****      ** Audio must be stopped for this to work.
  73:../../libDaisy//src/daisy_pod.h ****      */
  74:../../libDaisy//src/daisy_pod.h ****     void SetAudioSampleRate(SaiHandle::Config::SampleRate samplerate);
  75:../../libDaisy//src/daisy_pod.h **** 
  76:../../libDaisy//src/daisy_pod.h ****     /** Returns the audio sample rate in Hz as a floating point number.
  77:../../libDaisy//src/daisy_pod.h ****      */
  78:../../libDaisy//src/daisy_pod.h ****     float AudioSampleRate();
  79:../../libDaisy//src/daisy_pod.h **** 
  80:../../libDaisy//src/daisy_pod.h ****     /** Sets the number of samples processed per channel by the audio callback.
  81:../../libDaisy//src/daisy_pod.h ****      */
  82:../../libDaisy//src/daisy_pod.h ****     void SetAudioBlockSize(size_t blocksize);
  83:../../libDaisy//src/daisy_pod.h **** 
  84:../../libDaisy//src/daisy_pod.h ****     /** Returns the number of samples per channel in a block of audio. */
  85:../../libDaisy//src/daisy_pod.h ****     size_t AudioBlockSize();
  86:../../libDaisy//src/daisy_pod.h **** 
  87:../../libDaisy//src/daisy_pod.h ****     /** Returns the rate in Hz that the Audio callback is called */
  88:../../libDaisy//src/daisy_pod.h ****     float AudioCallbackRate();
ARM GAS  /var/folders/ky/97y1n_614tj15gjp3pmt3wd00000gn/T//cczhqtVy.s 			page 16


  89:../../libDaisy//src/daisy_pod.h **** 
  90:../../libDaisy//src/daisy_pod.h ****     /**
  91:../../libDaisy//src/daisy_pod.h ****        Start analog to digital conversion.
  92:../../libDaisy//src/daisy_pod.h ****      */
  93:../../libDaisy//src/daisy_pod.h ****     void StartAdc();
  94:../../libDaisy//src/daisy_pod.h **** 
  95:../../libDaisy//src/daisy_pod.h ****     /** Stops Transfering data from the ADC */
  96:../../libDaisy//src/daisy_pod.h ****     void StopAdc();
  97:../../libDaisy//src/daisy_pod.h **** 
  98:../../libDaisy//src/daisy_pod.h ****     /** Call at same rate as analog reads for smooth reading.*/
  99:../../libDaisy//src/daisy_pod.h ****     void ProcessAnalogControls();
 100:../../libDaisy//src/daisy_pod.h **** 
 101:../../libDaisy//src/daisy_pod.h ****     /** Process Analog and Digital Controls */
 102:../../libDaisy//src/daisy_pod.h ****     inline void ProcessAllControls()
 206              		.loc 1 102 17 view .LVU46
 207              	.LBB287:
 103:../../libDaisy//src/daisy_pod.h ****     {
 104:../../libDaisy//src/daisy_pod.h ****         ProcessAnalogControls();
 208              		.loc 1 104 9 view .LVU47
 209              	.LBE287:
 210              	.LBE286:
  18:MyProj.cpp    **** 	hw.ProcessAllControls();
 211              		.loc 13 18 1 is_stmt 0 view .LVU48
 212 0000 70B5     		push	{r4, r5, r6, lr}
 213              		.cfi_def_cfa_offset 16
 214              		.cfi_offset 4, -16
 215              		.cfi_offset 5, -12
 216              		.cfi_offset 6, -8
 217              		.cfi_offset 14, -4
 218              	.LBB290:
 219              	.LBB288:
 220              		.loc 1 104 30 view .LVU49
 221 0002 0D48     		ldr	r0, .L15
 222              	.LVL3:
 223              		.loc 1 104 30 view .LVU50
 224              	.LBE288:
 225              	.LBE290:
  18:MyProj.cpp    **** 	hw.ProcessAllControls();
 226              		.loc 13 18 1 view .LVU51
 227 0004 1646     		mov	r6, r2
 228 0006 0D46     		mov	r5, r1
 229              	.LBB291:
 230              	.LBB289:
 231              		.loc 1 104 30 view .LVU52
 232 0008 FFF7FEFF 		bl	_ZN5daisy8DaisyPod21ProcessAnalogControlsEv
 233              	.LVL4:
 105:../../libDaisy//src/daisy_pod.h ****         ProcessDigitalControls();
 234              		.loc 1 105 9 is_stmt 1 view .LVU53
 235              		.loc 1 105 31 is_stmt 0 view .LVU54
 236 000c 0A48     		ldr	r0, .L15
 237 000e FFF7FEFF 		bl	_ZN5daisy8DaisyPod22ProcessDigitalControlsEv
 238              	.LVL5:
 239              		.loc 1 105 31 view .LVU55
 240              	.LBE289:
 241              	.LBE291:
  20:MyProj.cpp    **** 	for (size_t i = 0; i < size; i++)
 242              		.loc 13 20 2 is_stmt 1 view .LVU56
ARM GAS  /var/folders/ky/97y1n_614tj15gjp3pmt3wd00000gn/T//cczhqtVy.s 			page 17


 243              	.LBB292:
 244              		.loc 13 20 23 view .LVU57
 245 0012 86B1     		cbz	r6, .L7
 246              		.loc 13 20 14 is_stmt 0 view .LVU58
 247 0014 0024     		movs	r4, #0
 248              	.LVL6:
 249              	.L9:
 250              	.LBB293:
  21:MyProj.cpp    **** 	{
  22:MyProj.cpp    **** 		float mySample = tCycle_tick(&mySine);
 251              		.loc 13 22 3 is_stmt 1 discriminator 2 view .LVU59
 252              		.loc 13 22 31 is_stmt 0 discriminator 2 view .LVU60
 253 0016 0948     		ldr	r0, .L15+4
 254 0018 FFF7FEFF 		bl	tCycle_tick
 255              	.LVL7:
  23:MyProj.cpp    **** 		out[0][i] = mySample;
  24:MyProj.cpp    **** 		out[1][i] = mySample;
 256              		.loc 13 24 13 discriminator 2 view .LVU61
 257 001c D5E90003 		ldrd	r0, r3, [r5]
 258              	.LVL8:
  23:MyProj.cpp    **** 		out[0][i] = mySample;
 259              		.loc 13 23 3 is_stmt 1 discriminator 2 view .LVU62
  23:MyProj.cpp    **** 		out[0][i] = mySample;
 260              		.loc 13 23 13 is_stmt 0 discriminator 2 view .LVU63
 261 0020 00EB8400 		add	r0, r0, r4, lsl #2
 262              		.loc 13 24 13 discriminator 2 view .LVU64
 263 0024 03EB8403 		add	r3, r3, r4, lsl #2
 264              	.LBE293:
  20:MyProj.cpp    **** 	{
 265              		.loc 13 20 2 discriminator 2 view .LVU65
 266 0028 0134     		adds	r4, r4, #1
 267              	.LVL9:
 268              	.LBB294:
  23:MyProj.cpp    **** 		out[0][i] = mySample;
 269              		.loc 13 23 13 discriminator 2 view .LVU66
 270 002a 80ED000A 		vstr.32	s0, [r0]
 271              		.loc 13 24 3 is_stmt 1 discriminator 2 view .LVU67
 272              	.LBE294:
  20:MyProj.cpp    **** 	{
 273              		.loc 13 20 23 is_stmt 0 discriminator 2 view .LVU68
 274 002e A642     		cmp	r6, r4
 275              	.LBB295:
 276              		.loc 13 24 13 discriminator 2 view .LVU69
 277 0030 83ED000A 		vstr.32	s0, [r3]
 278              	.LBE295:
  20:MyProj.cpp    **** 	{
 279              		.loc 13 20 2 is_stmt 1 discriminator 2 view .LVU70
 280              	.LVL10:
  20:MyProj.cpp    **** 	{
 281              		.loc 13 20 23 discriminator 2 view .LVU71
 282 0034 EFD1     		bne	.L9
 283              	.LVL11:
 284              	.L7:
  20:MyProj.cpp    **** 	{
 285              		.loc 13 20 23 is_stmt 0 discriminator 2 view .LVU72
 286              	.LBE292:
  25:MyProj.cpp    **** 	}
ARM GAS  /var/folders/ky/97y1n_614tj15gjp3pmt3wd00000gn/T//cczhqtVy.s 			page 18


  26:MyProj.cpp    **** }
 287              		.loc 13 26 1 view .LVU73
 288 0036 70BD     		pop	{r4, r5, r6, pc}
 289              	.LVL12:
 290              	.L16:
 291              		.loc 13 26 1 view .LVU74
 292              		.align	2
 293              	.L15:
 294 0038 00000000 		.word	hw
 295 003c 00000000 		.word	.LANCHOR0
 296              		.cfi_endproc
 297              	.LFE2542:
 299              		.section	.text.startup.main,"ax",%progbits
 300              		.align	1
 301              		.p2align 2,,3
 302              		.global	main
 303              		.syntax unified
 304              		.thumb
 305              		.thumb_func
 307              	main:
 308              	.LFB2543:
  27:MyProj.cpp    **** 
  28:MyProj.cpp    **** int main(void)
  29:MyProj.cpp    **** {
 309              		.loc 13 29 1 is_stmt 1 view -0
 310              		.cfi_startproc
 311              		@ Volatile: function does not return.
 312              		@ args = 0, pretend = 0, frame = 0
 313              		@ frame_needed = 0, uses_anonymous_args = 0
  30:MyProj.cpp    **** 	hw.Init();
 314              		.loc 13 30 2 view .LVU76
  29:MyProj.cpp    **** 	hw.Init();
 315              		.loc 13 29 1 is_stmt 0 view .LVU77
 316 0000 08B5     		push	{r3, lr}
 317              		.cfi_def_cfa_offset 8
 318              		.cfi_offset 3, -8
 319              		.cfi_offset 14, -4
 320              		.loc 13 30 9 view .LVU78
 321 0002 0021     		movs	r1, #0
 322 0004 1C48     		ldr	r0, .L20
 323 0006 FFF7FEFF 		bl	_ZN5daisy8DaisyPod4InitEb
 324              	.LVL13:
  31:MyProj.cpp    **** 	hw.SetAudioBlockSize(4); // number of samples handled per callback
 325              		.loc 13 31 2 is_stmt 1 view .LVU79
 326              		.loc 13 31 22 is_stmt 0 view .LVU80
 327 000a 0421     		movs	r1, #4
 328 000c 1A48     		ldr	r0, .L20
 329 000e FFF7FEFF 		bl	_ZN5daisy8DaisyPod17SetAudioBlockSizeEj
 330              	.LVL14:
  32:MyProj.cpp    **** 	hw.SetAudioSampleRate(SaiHandle::Config::SampleRate::SAI_48KHZ);
 331              		.loc 13 32 2 is_stmt 1 view .LVU81
 332              		.loc 13 32 23 is_stmt 0 view .LVU82
 333 0012 0321     		movs	r1, #3
 334 0014 1848     		ldr	r0, .L20
 335 0016 FFF7FEFF 		bl	_ZN5daisy8DaisyPod18SetAudioSampleRateENS_9SaiHandle6Config10SampleRateE
 336              	.LVL15:
  33:MyProj.cpp    **** 	Random::Init();
ARM GAS  /var/folders/ky/97y1n_614tj15gjp3pmt3wd00000gn/T//cczhqtVy.s 			page 19


 337              		.loc 13 33 2 is_stmt 1 view .LVU83
 338              		.loc 13 33 14 is_stmt 0 view .LVU84
 339 001a FFF7FEFF 		bl	_ZN5daisy6Random4InitEv
 340              	.LVL16:
  34:MyProj.cpp    **** 	hw.StartAdc();
 341              		.loc 13 34 2 is_stmt 1 view .LVU85
 342              		.loc 13 34 13 is_stmt 0 view .LVU86
 343 001e 1648     		ldr	r0, .L20
 344 0020 FFF7FEFF 		bl	_ZN5daisy8DaisyPod8StartAdcEv
 345              	.LVL17:
  35:MyProj.cpp    **** 	hw.StartAudio(AudioCallback);
 346              		.loc 13 35 2 is_stmt 1 view .LVU87
 347              		.loc 13 35 15 is_stmt 0 view .LVU88
 348 0024 1549     		ldr	r1, .L20+4
 349 0026 1448     		ldr	r0, .L20
 350 0028 FFF7FEFF 		bl	_ZN5daisy8DaisyPod10StartAudioEPFvPKPKfPPfjE
 351              	.LVL18:
  36:MyProj.cpp    **** 	LEAF_init(&leaf, 48000, leafMemory, 65535, randomNumber);
 352              		.loc 13 36 2 is_stmt 1 view .LVU89
 353              		.loc 13 36 11 is_stmt 0 view .LVU90
 354 002c 9FED140A 		vldr.32	s0, .L20+8
 355 0030 144B     		ldr	r3, .L20+12
 356 0032 4FF6FF72 		movw	r2, #65535
 357 0036 1449     		ldr	r1, .L20+16
 358 0038 1448     		ldr	r0, .L20+20
 359 003a FFF7FEFF 		bl	LEAF_init
 360              	.LVL19:
  37:MyProj.cpp    **** 	tCycle_init(&mySine, &leaf);
 361              		.loc 13 37 2 is_stmt 1 view .LVU91
 362              		.loc 13 37 13 is_stmt 0 view .LVU92
 363 003e 1448     		ldr	r0, .L20+24
 364 0040 1249     		ldr	r1, .L20+20
 365 0042 FFF7FEFF 		bl	tCycle_init
 366              	.LVL20:
  38:MyProj.cpp    **** 	tCycle_setFreq(&mySine, 440.0f);
 367              		.loc 13 38 2 is_stmt 1 view .LVU93
 368              		.loc 13 38 16 is_stmt 0 view .LVU94
 369 0046 9FED130A 		vldr.32	s0, .L20+28
 370 004a 1148     		ldr	r0, .L20+24
 371 004c FFF7FEFF 		bl	tCycle_setFreq
 372              	.LVL21:
 373              	.L18:
  39:MyProj.cpp    **** 	while(1) {
 374              		.loc 13 39 2 is_stmt 1 discriminator 1 view .LVU95
  40:MyProj.cpp    **** 	    
  41:MyProj.cpp    **** 		hw.seed.SetLed(1);
 375              		.loc 13 41 3 discriminator 1 view .LVU96
 376              		.loc 13 41 17 is_stmt 0 discriminator 1 view .LVU97
 377 0050 0121     		movs	r1, #1
 378 0052 0948     		ldr	r0, .L20
 379 0054 FFF7FEFF 		bl	_ZN5daisy9DaisySeed6SetLedEb
 380              	.LVL22:
  42:MyProj.cpp    **** 		hw.DelayMs(500);
 381              		.loc 13 42 3 is_stmt 1 discriminator 1 view .LVU98
 382              		.loc 13 42 13 is_stmt 0 discriminator 1 view .LVU99
 383 0058 4FF4FA71 		mov	r1, #500
 384 005c 0648     		ldr	r0, .L20
ARM GAS  /var/folders/ky/97y1n_614tj15gjp3pmt3wd00000gn/T//cczhqtVy.s 			page 20


 385 005e FFF7FEFF 		bl	_ZN5daisy8DaisyPod7DelayMsEj
 386              	.LVL23:
  43:MyProj.cpp    **** 		hw.seed.SetLed(0);
 387              		.loc 13 43 3 is_stmt 1 discriminator 1 view .LVU100
 388              		.loc 13 43 17 is_stmt 0 discriminator 1 view .LVU101
 389 0062 0021     		movs	r1, #0
 390 0064 0448     		ldr	r0, .L20
 391 0066 FFF7FEFF 		bl	_ZN5daisy9DaisySeed6SetLedEb
 392              	.LVL24:
  44:MyProj.cpp    **** 		hw.DelayMs(500);
 393              		.loc 13 44 3 is_stmt 1 discriminator 1 view .LVU102
 394              		.loc 13 44 13 is_stmt 0 discriminator 1 view .LVU103
 395 006a 4FF4FA71 		mov	r1, #500
 396 006e 0248     		ldr	r0, .L20
 397 0070 FFF7FEFF 		bl	_ZN5daisy8DaisyPod7DelayMsEj
 398              	.LVL25:
  39:MyProj.cpp    **** 	    
 399              		.loc 13 39 2 is_stmt 1 discriminator 1 view .LVU104
 400 0074 ECE7     		b	.L18
 401              	.L21:
 402 0076 00BF     		.align	2
 403              	.L20:
 404 0078 00000000 		.word	hw
 405 007c 00000000 		.word	_Z13AudioCallbackPKPKfPPfj
 406 0080 00803B47 		.word	1195081728
 407 0084 00000000 		.word	_Z12randomNumberv
 408 0088 00000000 		.word	leafMemory
 409 008c 00000000 		.word	.LANCHOR1
 410 0090 00000000 		.word	.LANCHOR0
 411 0094 0000DC43 		.word	1138491392
 412              		.cfi_endproc
 413              	.LFE2543:
 415              		.section	.text.startup._GLOBAL__sub_I_leaf,"ax",%progbits
 416              		.align	1
 417              		.p2align 2,,3
 418              		.syntax unified
 419              		.thumb
 420              		.thumb_func
 422              	_GLOBAL__sub_I_leaf:
 423              	.LFB2571:
  45:MyProj.cpp    **** 	}
  46:MyProj.cpp    **** }
 424              		.loc 13 46 1 view -0
 425              		.cfi_startproc
 426              		@ args = 0, pretend = 0, frame = 0
 427              		@ frame_needed = 0, uses_anonymous_args = 0
 428              	.LBB361:
 429              	.LBI361:
 430              		.loc 13 46 1 view .LVU106
 431              	.LVL26:
 432              	.LBB362:
 433              	.LBB363:
 434              	.LBI363:
  35:../../libDaisy//src/daisy_pod.h ****     ~DaisyPod() {}
 435              		.loc 1 35 5 view .LVU107
 436              	.LBB364:
 437              	.LBB365:
ARM GAS  /var/folders/ky/97y1n_614tj15gjp3pmt3wd00000gn/T//cczhqtVy.s 			page 21


 438              	.LBI365:
  21:../../libDaisy//src/daisy_seed.h ****     ~DaisySeed() {}
 439              		.loc 8 21 5 view .LVU108
 440              	.LBB366:
 441              	.LBB367:
 442              	.LBI367:
 443              		.file 14 "../../libDaisy//src/per/qspi.h"
   1:../../libDaisy//src/per/qspi.h **** #ifndef DSY_QSPI
   2:../../libDaisy//src/per/qspi.h **** #define DSY_QSPI /**< Macro */
   3:../../libDaisy//src/per/qspi.h **** 
   4:../../libDaisy//src/per/qspi.h **** #ifndef UNIT_TEST // for unit tests, a dummy implementation
   5:../../libDaisy//src/per/qspi.h **** 
   6:../../libDaisy//src/per/qspi.h **** #include <cstdint>
   7:../../libDaisy//src/per/qspi.h **** #include "daisy_core.h" // Added for dsy_gpio_pin typedef
   8:../../libDaisy//src/per/qspi.h **** 
   9:../../libDaisy//src/per/qspi.h **** #define DSY_QSPI_TEXT       \
  10:../../libDaisy//src/per/qspi.h ****     __attribute__((section( \
  11:../../libDaisy//src/per/qspi.h ****         ".qspiflash_text"))) /**< used for reading memory in memory_mapped mode. */
  12:../../libDaisy//src/per/qspi.h **** #define DSY_QSPI_DATA       \
  13:../../libDaisy//src/per/qspi.h ****     __attribute__((section( \
  14:../../libDaisy//src/per/qspi.h ****         ".qspiflash_data"))) /**< used for reading memory in memory_mapped mode. */
  15:../../libDaisy//src/per/qspi.h **** #define DSY_QSPI_BSS        \
  16:../../libDaisy//src/per/qspi.h ****     __attribute__((section( \
  17:../../libDaisy//src/per/qspi.h ****         ".qspiflash_bss"))) /**< used for reading memory in memory_mapped mode. */
  18:../../libDaisy//src/per/qspi.h **** 
  19:../../libDaisy//src/per/qspi.h **** namespace daisy
  20:../../libDaisy//src/per/qspi.h **** {
  21:../../libDaisy//src/per/qspi.h **** /** @addtogroup serial
  22:../../libDaisy//src/per/qspi.h **** @{
  23:../../libDaisy//src/per/qspi.h **** */
  24:../../libDaisy//src/per/qspi.h **** 
  25:../../libDaisy//src/per/qspi.h **** /** 
  26:../../libDaisy//src/per/qspi.h ****  Driver for QSPI peripheral to interface with external flash memory. \n 
  27:../../libDaisy//src/per/qspi.h ****     Currently supported QSPI Devices: \n 
  28:../../libDaisy//src/per/qspi.h ****     * IS25LP080D
  29:../../libDaisy//src/per/qspi.h **** */
  30:../../libDaisy//src/per/qspi.h **** class QSPIHandle
  31:../../libDaisy//src/per/qspi.h **** {
  32:../../libDaisy//src/per/qspi.h ****   public:
  33:../../libDaisy//src/per/qspi.h ****     enum Result
  34:../../libDaisy//src/per/qspi.h ****     {
  35:../../libDaisy//src/per/qspi.h ****         OK = 0,
  36:../../libDaisy//src/per/qspi.h ****         ERR
  37:../../libDaisy//src/per/qspi.h ****     };
  38:../../libDaisy//src/per/qspi.h **** 
  39:../../libDaisy//src/per/qspi.h ****     /** Indicates the current status of the module. 
  40:../../libDaisy//src/per/qspi.h ****          *  Warnings are indicated by a leading W.
  41:../../libDaisy//src/per/qspi.h ****          *  Errors are indicated by a leading E and cause an immediate exit.
  42:../../libDaisy//src/per/qspi.h ****          * 
  43:../../libDaisy//src/per/qspi.h ****          *  \param GOOD - No errors have been reported.
  44:../../libDaisy//src/per/qspi.h ****          *  \param E_HAL_ERROR - HAL code did not return HAL_OK.
  45:../../libDaisy//src/per/qspi.h ****          *  \param E_SWITCHING_MODES - An error was encountered while switching QSPI peripheral mod
  46:../../libDaisy//src/per/qspi.h ****          *  \param E_INVALID_MODE - QSPI should not be written to while the program is executing fr
  47:../../libDaisy//src/per/qspi.h ****          */
  48:../../libDaisy//src/per/qspi.h ****     enum Status
  49:../../libDaisy//src/per/qspi.h ****     {
  50:../../libDaisy//src/per/qspi.h ****         GOOD = 0,
ARM GAS  /var/folders/ky/97y1n_614tj15gjp3pmt3wd00000gn/T//cczhqtVy.s 			page 22


  51:../../libDaisy//src/per/qspi.h ****         E_HAL_ERROR,
  52:../../libDaisy//src/per/qspi.h ****         E_SWITCHING_MODES,
  53:../../libDaisy//src/per/qspi.h ****         E_INVALID_MODE,
  54:../../libDaisy//src/per/qspi.h ****     };
  55:../../libDaisy//src/per/qspi.h **** 
  56:../../libDaisy//src/per/qspi.h ****     /** Configuration structure for interfacing with QSPI Driver */
  57:../../libDaisy//src/per/qspi.h ****     struct Config
  58:../../libDaisy//src/per/qspi.h ****     {
  59:../../libDaisy//src/per/qspi.h ****         /** Flash Devices supported. (Both of these are more-or-less the same, just different sizes
  60:../../libDaisy//src/per/qspi.h ****         enum Device
  61:../../libDaisy//src/per/qspi.h ****         {
  62:../../libDaisy//src/per/qspi.h ****             IS25LP080D,  /**< & */
  63:../../libDaisy//src/per/qspi.h ****             IS25LP064A,  /**< & */
  64:../../libDaisy//src/per/qspi.h ****             DEVICE_LAST, /**< & */
  65:../../libDaisy//src/per/qspi.h ****         };
  66:../../libDaisy//src/per/qspi.h **** 
  67:../../libDaisy//src/per/qspi.h ****         /** 
  68:../../libDaisy//src/per/qspi.h ****         Modes of operation.
  69:../../libDaisy//src/per/qspi.h ****         Memory Mapped mode: QSPI configured so that the QSPI can be
  70:../../libDaisy//src/per/qspi.h ****         read from starting address 0x90000000. Writing is not
  71:../../libDaisy//src/per/qspi.h ****         possible in this mode. \n 
  72:../../libDaisy//src/per/qspi.h ****         Indirect Polling mode: Device driver enabled. 
  73:../../libDaisy//src/per/qspi.h ****         */
  74:../../libDaisy//src/per/qspi.h ****         enum Mode
  75:../../libDaisy//src/per/qspi.h ****         {
  76:../../libDaisy//src/per/qspi.h ****             MEMORY_MAPPED,    /**< & */
  77:../../libDaisy//src/per/qspi.h ****             INDIRECT_POLLING, /**< & */
  78:../../libDaisy//src/per/qspi.h ****             MODE_LAST,
  79:../../libDaisy//src/per/qspi.h ****         };
  80:../../libDaisy//src/per/qspi.h **** 
  81:../../libDaisy//src/per/qspi.h ****         //SCK,  CE# (active low)
  82:../../libDaisy//src/per/qspi.h ****         struct
  83:../../libDaisy//src/per/qspi.h ****         {
  84:../../libDaisy//src/per/qspi.h ****             dsy_gpio_pin io0; /**< & */
  85:../../libDaisy//src/per/qspi.h ****             dsy_gpio_pin io1; /**< & */
  86:../../libDaisy//src/per/qspi.h ****             dsy_gpio_pin io2; /**< & */
  87:../../libDaisy//src/per/qspi.h ****             dsy_gpio_pin io3; /**< & */
  88:../../libDaisy//src/per/qspi.h ****             dsy_gpio_pin clk; /**< & */
  89:../../libDaisy//src/per/qspi.h ****             dsy_gpio_pin ncs; /**< & */
  90:../../libDaisy//src/per/qspi.h ****         } pin_config;
  91:../../libDaisy//src/per/qspi.h **** 
  92:../../libDaisy//src/per/qspi.h ****         Device device;
  93:../../libDaisy//src/per/qspi.h ****         Mode   mode;
  94:../../libDaisy//src/per/qspi.h ****     };
  95:../../libDaisy//src/per/qspi.h **** 
  96:../../libDaisy//src/per/qspi.h ****     /** 
  97:../../libDaisy//src/per/qspi.h ****         Initializes QSPI peripheral, and Resets, and prepares memory for access.
  98:../../libDaisy//src/per/qspi.h ****         \param config should be populated with the mode, device and pin_config before calling this 
  99:../../libDaisy//src/per/qspi.h ****         \return Result::OK or Result::ERR
 100:../../libDaisy//src/per/qspi.h ****         */
 101:../../libDaisy//src/per/qspi.h ****     Result Init(const Config& config);
 102:../../libDaisy//src/per/qspi.h **** 
 103:../../libDaisy//src/per/qspi.h ****     /** Returns the current config. */
 104:../../libDaisy//src/per/qspi.h ****     const Config& GetConfig() const;
 105:../../libDaisy//src/per/qspi.h **** 
 106:../../libDaisy//src/per/qspi.h ****     // Couldn't this just be called before anything else in init? That
 107:../../libDaisy//src/per/qspi.h ****     // would make manually calling it unnecessary.
ARM GAS  /var/folders/ky/97y1n_614tj15gjp3pmt3wd00000gn/T//cczhqtVy.s 			page 23


 108:../../libDaisy//src/per/qspi.h ****     /** 
 109:../../libDaisy//src/per/qspi.h ****         Deinitializes the peripheral
 110:../../libDaisy//src/per/qspi.h ****         This should be called before reinitializing QSPI in a different mode.
 111:../../libDaisy//src/per/qspi.h ****         \return Result::OK or Result::ERR
 112:../../libDaisy//src/per/qspi.h ****         */
 113:../../libDaisy//src/per/qspi.h ****     Result DeInit();
 114:../../libDaisy//src/per/qspi.h **** 
 115:../../libDaisy//src/per/qspi.h ****     /** 
 116:../../libDaisy//src/per/qspi.h ****         Writes a single page to to the specified address on the QSPI chip.
 117:../../libDaisy//src/per/qspi.h ****         For IS25LP*, page size is 256 bytes.
 118:../../libDaisy//src/per/qspi.h ****         \param address Address to write to
 119:../../libDaisy//src/per/qspi.h ****         \param size Buffer size
 120:../../libDaisy//src/per/qspi.h ****         \param buffer Buffer to write
 121:../../libDaisy//src/per/qspi.h ****         \return Result::OK or Result::ERR
 122:../../libDaisy//src/per/qspi.h ****         */
 123:../../libDaisy//src/per/qspi.h ****     Result WritePage(uint32_t address, uint32_t size, uint8_t* buffer);
 124:../../libDaisy//src/per/qspi.h **** 
 125:../../libDaisy//src/per/qspi.h ****     /** 
 126:../../libDaisy//src/per/qspi.h ****         Writes data in buffer to to the QSPI. Starting at address to address+size 
 127:../../libDaisy//src/per/qspi.h ****         \param address Address to write to
 128:../../libDaisy//src/per/qspi.h ****         \param size Buffer size
 129:../../libDaisy//src/per/qspi.h ****         \param buffer Buffer to write
 130:../../libDaisy//src/per/qspi.h ****         \return Result::OK or Result::ERR
 131:../../libDaisy//src/per/qspi.h ****         */
 132:../../libDaisy//src/per/qspi.h ****     Result Write(uint32_t address, uint32_t size, uint8_t* buffer);
 133:../../libDaisy//src/per/qspi.h **** 
 134:../../libDaisy//src/per/qspi.h ****     /** 
 135:../../libDaisy//src/per/qspi.h ****         Erases the area specified on the chip.
 136:../../libDaisy//src/per/qspi.h ****         Erasures will happen by 4K, 32K or 64K increments.
 137:../../libDaisy//src/per/qspi.h ****         Smallest erase possible is 4kB at a time. (on IS25LP*)
 138:../../libDaisy//src/per/qspi.h ****         \param start_addr Address to begin erasing from
 139:../../libDaisy//src/per/qspi.h ****         \param end_addr  Address to stop erasing at
 140:../../libDaisy//src/per/qspi.h ****         \return Result::OK or Result::ERR
 141:../../libDaisy//src/per/qspi.h ****         */
 142:../../libDaisy//src/per/qspi.h ****     Result Erase(uint32_t start_addr, uint32_t end_addr);
 143:../../libDaisy//src/per/qspi.h **** 
 144:../../libDaisy//src/per/qspi.h ****     /**  
 145:../../libDaisy//src/per/qspi.h ****          Erases a single sector of the chip.  
 146:../../libDaisy//src/per/qspi.h ****         TODO: Document the size of this function. 
 147:../../libDaisy//src/per/qspi.h ****         \param address Address of sector to erase
 148:../../libDaisy//src/per/qspi.h ****         \return Result::OK or Result::ERR
 149:../../libDaisy//src/per/qspi.h ****         */
 150:../../libDaisy//src/per/qspi.h ****     Result EraseSector(uint32_t address);
 151:../../libDaisy//src/per/qspi.h **** 
 152:../../libDaisy//src/per/qspi.h ****     /** Returns the current class status. Useful for debugging.
 153:../../libDaisy//src/per/qspi.h ****      *  \returns Status
 154:../../libDaisy//src/per/qspi.h ****      */
 155:../../libDaisy//src/per/qspi.h ****     Status GetStatus();
 156:../../libDaisy//src/per/qspi.h **** 
 157:../../libDaisy//src/per/qspi.h ****     /** Returns a pointer to the actual memory used 
 158:../../libDaisy//src/per/qspi.h ****      *  The memory at this address is read-only
 159:../../libDaisy//src/per/qspi.h ****      *  to write to it use the Write function.
 160:../../libDaisy//src/per/qspi.h ****      * 
 161:../../libDaisy//src/per/qspi.h ****      *  \param offset returns the pointer starting this 
 162:../../libDaisy//src/per/qspi.h ****      *                many bytes into the memory
 163:../../libDaisy//src/per/qspi.h ****     */
 164:../../libDaisy//src/per/qspi.h ****     void* GetData(uint32_t offset = 0);
ARM GAS  /var/folders/ky/97y1n_614tj15gjp3pmt3wd00000gn/T//cczhqtVy.s 			page 24


 165:../../libDaisy//src/per/qspi.h **** 
 166:../../libDaisy//src/per/qspi.h ****     QSPIHandle() : pimpl_(nullptr) {}
 444              		.loc 14 166 5 view .LVU109
 445              	.LBB368:
 446              	.LBB369:
 447              		.loc 14 166 34 is_stmt 0 view .LVU110
 448 0000 1348     		ldr	r0, .L24
 449 0002 0022     		movs	r2, #0
 450              	.LBE369:
 451              	.LBE368:
 452              	.LBE367:
 453              	.LBE366:
 454              	.LBE365:
 455              	.LBB385:
 456              	.LBB386:
 457              	.LBB387:
 458              	.LBB388:
 459              	.LBB389:
 460              	.LBB390:
 461              	.LBB391:
  37:../../libDaisy//src/hid/midi.h ****             tx     = {DSY_GPIOB, 6};
 462              		.loc 2 37 20 view .LVU111
 463 0004 1349     		ldr	r1, .L24+4
  36:../../libDaisy//src/hid/midi.h ****             rx     = {DSY_GPIOB, 7};
 464              		.loc 2 36 20 view .LVU112
 465 0006 00F51043 		add	r3, r0, #36864
  38:../../libDaisy//src/hid/midi.h ****         }
 466              		.loc 2 38 20 view .LVU113
 467 000a B1F804C0 		ldrh	ip, [r1, #4]
 468              	.LBE391:
 469              	.LBE390:
 470              	.LBE389:
 471              	.LBE388:
 472              	.LBE387:
 473              	.LBE386:
 474              	.LBE385:
 475              	.LBE364:
 476              	.LBE363:
 477              	.LBE362:
 478              	.LBE361:
 479              		.loc 13 46 1 view .LVU114
 480 000e 00B5     		push	{lr}
 481              		.cfi_def_cfa_offset 4
 482              		.cfi_offset 14, -4
 483              	.LBB446:
 484              	.LBB444:
 485              	.LBB443:
 486              	.LBB442:
 487              	.LBB420:
 488              	.LBB417:
 489              	.LBB414:
 490              	.LBB401:
 491              	.LBB398:
 492              	.LBB395:
 493              	.LBB392:
  37:../../libDaisy//src/hid/midi.h ****             tx     = {DSY_GPIOB, 6};
 494              		.loc 2 37 20 view .LVU115
ARM GAS  /var/folders/ky/97y1n_614tj15gjp3pmt3wd00000gn/T//cczhqtVy.s 			page 25


 495 0010 B1F800E0 		ldrh	lr, [r1]
 496              	.LBE392:
 497              	.LBE395:
 498              	.LBE398:
 499              	.LBE401:
 500              	.LBE414:
 501              	.LBE417:
 502              	.LBE420:
 503              	.LBB421:
 504              	.LBB383:
 505              	.LBB372:
 506              	.LBB371:
 507              	.LBB370:
 508              		.loc 14 166 34 view .LVU116
 509 0014 0260     		str	r2, [r0]
 510              	.LVL27:
 511              		.loc 14 166 34 view .LVU117
 512              	.LBE370:
 513              	.LBE371:
 514              	.LBE372:
 515              	.LBB373:
 516              	.LBI373:
  95:../../libDaisy//src/hid/audio.h ****     ~AudioHandle() {}
 517              		.loc 12 95 5 is_stmt 1 view .LVU118
 518              	.LBE373:
 519              	.LBE383:
 520              	.LBE421:
 521              	.LBB422:
 522              	.LBB418:
 523              	.LBB415:
  84:../../libDaisy//src/hid/midi.h ****     ~MidiHandler() {}
 524              		.loc 2 84 19 is_stmt 0 view .LVU119
 525 0016 1049     		ldr	r1, .L24+8
 526              	.LBE415:
 527              	.LBE418:
 528              	.LBE422:
 529              	.LBB423:
 530              	.LBB384:
 531              	.LBB376:
 532              	.LBB374:
 533              	.LBB375:
  95:../../libDaisy//src/hid/audio.h ****     ~AudioHandle() {}
 534              		.loc 12 95 35 view .LVU120
 535 0018 4261     		str	r2, [r0, #20]
 536              	.LVL28:
  95:../../libDaisy//src/hid/audio.h ****     ~AudioHandle() {}
 537              		.loc 12 95 35 view .LVU121
 538              	.LBE375:
 539              	.LBE374:
 540              	.LBE376:
 541              	.LBB377:
 542              	.LBI377:
  92:../../libDaisy//src/per/adc.h ****     ~AdcHandle() {}
 543              		.loc 11 92 5 is_stmt 1 view .LVU122
  92:../../libDaisy//src/per/adc.h ****     ~AdcHandle() {}
 544              		.loc 11 92 5 is_stmt 0 view .LVU123
 545              	.LBE377:
ARM GAS  /var/folders/ky/97y1n_614tj15gjp3pmt3wd00000gn/T//cczhqtVy.s 			page 26


 546              	.LBB378:
 547              	.LBI378:
 548              		.file 15 "../../libDaisy//src/per/dac.h"
   1:../../libDaisy//src/per/dac.h **** #pragma once
   2:../../libDaisy//src/per/dac.h **** #ifndef DSY_DAC_H
   3:../../libDaisy//src/per/dac.h **** #define DSY_DAC_H
   4:../../libDaisy//src/per/dac.h **** 
   5:../../libDaisy//src/per/dac.h **** #include "daisy_core.h"
   6:../../libDaisy//src/per/dac.h **** 
   7:../../libDaisy//src/per/dac.h **** namespace daisy
   8:../../libDaisy//src/per/dac.h **** {
   9:../../libDaisy//src/per/dac.h **** /** @brief DAC handle for Built-in DAC Peripheral 
  10:../../libDaisy//src/per/dac.h ****  *  @ingroup per_analog
  11:../../libDaisy//src/per/dac.h ****  ** 
  12:../../libDaisy//src/per/dac.h ****  ** For now only Normal Mode is supported,
  13:../../libDaisy//src/per/dac.h ****  ** Sample and hold mode provides reduced power consumption, but requires a bit more setup.
  14:../../libDaisy//src/per/dac.h ****  **
  15:../../libDaisy//src/per/dac.h ****  ** For now connecting the DAC through other internal peripherals is also not supported.
  16:../../libDaisy//src/per/dac.h ****  **
  17:../../libDaisy//src/per/dac.h ****  ** Since the DAC channels have dedicated pins we don't need to pass in a pin config like with
  18:../../libDaisy//src/per/dac.h ****  ** other modules. However, it is still important to not try to use the DAC pins for anything else.
  19:../../libDaisy//src/per/dac.h ****  ** DAC Channel 1 is on PA4, and DAC Channel 2 is on PA5
  20:../../libDaisy//src/per/dac.h ****  ***/
  21:../../libDaisy//src/per/dac.h **** class DacHandle
  22:../../libDaisy//src/per/dac.h **** {
  23:../../libDaisy//src/per/dac.h ****   public:
  24:../../libDaisy//src/per/dac.h ****     /** Return Values for the DacHandle class */
  25:../../libDaisy//src/per/dac.h ****     enum class Result
  26:../../libDaisy//src/per/dac.h ****     {
  27:../../libDaisy//src/per/dac.h ****         OK,
  28:../../libDaisy//src/per/dac.h ****         ERR,
  29:../../libDaisy//src/per/dac.h ****     };
  30:../../libDaisy//src/per/dac.h **** 
  31:../../libDaisy//src/per/dac.h ****     /** Selects which channel(s) will be configured for use. */
  32:../../libDaisy//src/per/dac.h ****     enum class Channel
  33:../../libDaisy//src/per/dac.h ****     {
  34:../../libDaisy//src/per/dac.h ****         ONE,
  35:../../libDaisy//src/per/dac.h ****         TWO,
  36:../../libDaisy//src/per/dac.h ****         BOTH,
  37:../../libDaisy//src/per/dac.h ****     };
  38:../../libDaisy//src/per/dac.h **** 
  39:../../libDaisy//src/per/dac.h ****     /** Sets the Mode for the DAC channels.
  40:../../libDaisy//src/per/dac.h ****      **
  41:../../libDaisy//src/per/dac.h ****      ** Polling mode uses the blocking mode to transmit a single value at a time.
  42:../../libDaisy//src/per/dac.h ****      **
  43:../../libDaisy//src/per/dac.h ****      ** DMA mode uses a buffer, and periodically transmits it triggering a 
  44:../../libDaisy//src/per/dac.h ****      ** callback to fill the buffer when it is ready for more samples.
  45:../../libDaisy//src/per/dac.h ****      ***/
  46:../../libDaisy//src/per/dac.h ****     enum class Mode
  47:../../libDaisy//src/per/dac.h ****     {
  48:../../libDaisy//src/per/dac.h ****         POLLING,
  49:../../libDaisy//src/per/dac.h ****         DMA,
  50:../../libDaisy//src/per/dac.h ****     };
  51:../../libDaisy//src/per/dac.h **** 
  52:../../libDaisy//src/per/dac.h ****     /** Sets the number of bits per sample transmitted out of the DAC.
  53:../../libDaisy//src/per/dac.h ****      ** The output range will be: 0V - VDDA
  54:../../libDaisy//src/per/dac.h ****      ** The resolution will be roughly: bitdepth / (VDDA - 0V) 
ARM GAS  /var/folders/ky/97y1n_614tj15gjp3pmt3wd00000gn/T//cczhqtVy.s 			page 27


  55:../../libDaisy//src/per/dac.h ****      ***/
  56:../../libDaisy//src/per/dac.h ****     enum class BitDepth
  57:../../libDaisy//src/per/dac.h ****     {
  58:../../libDaisy//src/per/dac.h ****         BITS_8,
  59:../../libDaisy//src/per/dac.h ****         BITS_12
  60:../../libDaisy//src/per/dac.h ****     };
  61:../../libDaisy//src/per/dac.h **** 
  62:../../libDaisy//src/per/dac.h ****     /** Sets whether the DAC output is buffered for higher drive ability. */
  63:../../libDaisy//src/per/dac.h ****     enum class BufferState
  64:../../libDaisy//src/per/dac.h ****     {
  65:../../libDaisy//src/per/dac.h ****         ENABLED,
  66:../../libDaisy//src/per/dac.h ****         DISABLED,
  67:../../libDaisy//src/per/dac.h ****     };
  68:../../libDaisy//src/per/dac.h **** 
  69:../../libDaisy//src/per/dac.h ****     /** Configuration structure for initializing the DAC structure. */
  70:../../libDaisy//src/per/dac.h ****     struct Config
  71:../../libDaisy//src/per/dac.h ****     {
  72:../../libDaisy//src/per/dac.h ****         /** Target Samplerate in Hz used to configure the internal 
  73:../../libDaisy//src/per/dac.h ****          ** timebase for DMA mode. Does nothing in POLLING mode.
  74:../../libDaisy//src/per/dac.h ****          ** If the value is 0 at Init time this will default to 48000Hz 
  75:../../libDaisy//src/per/dac.h ****          ** otherwise the driver will attempt meet the target.*/
  76:../../libDaisy//src/per/dac.h ****         uint32_t target_samplerate;
  77:../../libDaisy//src/per/dac.h **** 
  78:../../libDaisy//src/per/dac.h ****         Channel     chn;
  79:../../libDaisy//src/per/dac.h ****         Mode        mode;
  80:../../libDaisy//src/per/dac.h ****         BitDepth    bitdepth;
  81:../../libDaisy//src/per/dac.h ****         BufferState buff_state;
  82:../../libDaisy//src/per/dac.h ****     };
  83:../../libDaisy//src/per/dac.h **** 
  84:../../libDaisy//src/per/dac.h ****     DacHandle() : pimpl_(nullptr) {}
 549              		.loc 15 84 5 is_stmt 1 view .LVU124
 550              	.LBB379:
 551              	.LBB380:
 552              		.loc 15 84 33 is_stmt 0 view .LVU125
 553 001a 0262     		str	r2, [r0, #32]
 554              	.LVL29:
 555              		.loc 15 84 33 view .LVU126
 556              	.LBE380:
 557              	.LBE379:
 558              	.LBE378:
 559              	.LBB381:
 560              	.LBI381:
  40:../../libDaisy//src/hid/usb.h **** 
 561              		.loc 10 40 5 is_stmt 1 view .LVU127
  40:../../libDaisy//src/hid/usb.h **** 
 562              		.loc 10 40 5 is_stmt 0 view .LVU128
 563              	.LBE381:
 564              	.LBB382:
 565              	.LBI382:
  77:../../libDaisy//src/sys/system.h ****     ~System() {}
 566              		.loc 9 77 5 is_stmt 1 view .LVU129
  77:../../libDaisy//src/sys/system.h ****     ~System() {}
 567              		.loc 9 77 5 is_stmt 0 view .LVU130
 568              	.LBE382:
 569              	.LBE384:
 570              	.LBE423:
 571              	.LBB424:
ARM GAS  /var/folders/ky/97y1n_614tj15gjp3pmt3wd00000gn/T//cczhqtVy.s 			page 28


 572              	.LBI424:
  20:../../libDaisy//src/hid/encoder.h ****     ~Encoder() {}
 573              		.loc 7 20 5 is_stmt 1 view .LVU131
 574              	.LBB425:
 575              	.LBB426:
 576              	.LBI426:
  41:../../libDaisy//src/hid/switch.h ****     ~Switch() {}
 577              		.loc 5 41 5 view .LVU132
  41:../../libDaisy//src/hid/switch.h ****     ~Switch() {}
 578              		.loc 5 41 5 is_stmt 0 view .LVU133
 579              	.LBE426:
 580              	.LBE425:
 581              	.LBE424:
 582              	.LBB427:
 583              	.LBI427:
  21:../../libDaisy//src/hid/ctrl.h ****     /** destructor */
 584              		.loc 6 21 5 is_stmt 1 view .LVU134
  21:../../libDaisy//src/hid/ctrl.h ****     /** destructor */
 585              		.loc 6 21 5 is_stmt 0 view .LVU135
 586              	.LBE427:
 587              	.LBB428:
 588              	.LBI428:
  21:../../libDaisy//src/hid/ctrl.h ****     /** destructor */
 589              		.loc 6 21 5 is_stmt 1 view .LVU136
  21:../../libDaisy//src/hid/ctrl.h ****     /** destructor */
 590              		.loc 6 21 5 is_stmt 0 view .LVU137
 591              	.LBE428:
 592              	.LBB429:
 593              	.LBI429:
  41:../../libDaisy//src/hid/switch.h ****     ~Switch() {}
 594              		.loc 5 41 5 is_stmt 1 view .LVU138
  41:../../libDaisy//src/hid/switch.h ****     ~Switch() {}
 595              		.loc 5 41 5 is_stmt 0 view .LVU139
 596              	.LBE429:
 597              	.LBB430:
 598              	.LBI430:
  41:../../libDaisy//src/hid/switch.h ****     ~Switch() {}
 599              		.loc 5 41 5 is_stmt 1 view .LVU140
  41:../../libDaisy//src/hid/switch.h ****     ~Switch() {}
 600              		.loc 5 41 5 is_stmt 0 view .LVU141
 601              	.LBE430:
 602              	.LBB431:
 603              	.LBI431:
  17:../../libDaisy//src/hid/rgb_led.h ****     ~RgbLed() {}
 604              		.loc 3 17 5 is_stmt 1 view .LVU142
 605              	.LBB432:
 606              	.LBB433:
 607              	.LBI433:
  24:../../libDaisy//src/hid/led.h ****     ~Led() {}
 608              		.loc 4 24 5 view .LVU143
  24:../../libDaisy//src/hid/led.h ****     ~Led() {}
 609              		.loc 4 24 5 is_stmt 0 view .LVU144
 610              	.LBE433:
 611              	.LBB434:
 612              	.LBI434:
  24:../../libDaisy//src/hid/led.h ****     ~Led() {}
 613              		.loc 4 24 5 is_stmt 1 view .LVU145
ARM GAS  /var/folders/ky/97y1n_614tj15gjp3pmt3wd00000gn/T//cczhqtVy.s 			page 29


  24:../../libDaisy//src/hid/led.h ****     ~Led() {}
 614              		.loc 4 24 5 is_stmt 0 view .LVU146
 615              	.LBE434:
 616              	.LBB435:
 617              	.LBI435:
  24:../../libDaisy//src/hid/led.h ****     ~Led() {}
 618              		.loc 4 24 5 is_stmt 1 view .LVU147
  24:../../libDaisy//src/hid/led.h ****     ~Led() {}
 619              		.loc 4 24 5 is_stmt 0 view .LVU148
 620              	.LBE435:
 621              	.LBE432:
 622              	.LBE431:
 623              	.LBB436:
 624              	.LBI436:
  17:../../libDaisy//src/hid/rgb_led.h ****     ~RgbLed() {}
 625              		.loc 3 17 5 is_stmt 1 view .LVU149
 626              	.LBB437:
 627              	.LBB438:
 628              	.LBI438:
  24:../../libDaisy//src/hid/led.h ****     ~Led() {}
 629              		.loc 4 24 5 view .LVU150
  24:../../libDaisy//src/hid/led.h ****     ~Led() {}
 630              		.loc 4 24 5 is_stmt 0 view .LVU151
 631              	.LBE438:
 632              	.LBB439:
 633              	.LBI439:
  24:../../libDaisy//src/hid/led.h ****     ~Led() {}
 634              		.loc 4 24 5 is_stmt 1 view .LVU152
  24:../../libDaisy//src/hid/led.h ****     ~Led() {}
 635              		.loc 4 24 5 is_stmt 0 view .LVU153
 636              	.LBE439:
 637              	.LBB440:
 638              	.LBI440:
  24:../../libDaisy//src/hid/led.h ****     ~Led() {}
 639              		.loc 4 24 5 is_stmt 1 view .LVU154
  24:../../libDaisy//src/hid/led.h ****     ~Led() {}
 640              		.loc 4 24 5 is_stmt 0 view .LVU155
 641              	.LBE440:
 642              	.LBE437:
 643              	.LBE436:
 644              	.LBB441:
 645              	.LBI385:
  84:../../libDaisy//src/hid/midi.h ****     ~MidiHandler() {}
 646              		.loc 2 84 5 is_stmt 1 view .LVU156
 647              	.LBB419:
 648              	.LBB416:
 649              	.LBB402:
 650              	.LBI402:
 651              		.file 16 "../../libDaisy//src/per/uart.h"
   1:../../libDaisy//src/per/uart.h **** /* 
   2:../../libDaisy//src/per/uart.h **** TODO
   3:../../libDaisy//src/per/uart.h **** - UART1 defaults to DMA, add flexible config for DMA on all periphs
   4:../../libDaisy//src/per/uart.h **** - Transmit function improvements.
   5:../../libDaisy//src/per/uart.h **** - Overflow handling, etc. for Rx Queue.
   6:../../libDaisy//src/per/uart.h **** */
   7:../../libDaisy//src/per/uart.h **** 
   8:../../libDaisy//src/per/uart.h **** #pragma once
ARM GAS  /var/folders/ky/97y1n_614tj15gjp3pmt3wd00000gn/T//cczhqtVy.s 			page 30


   9:../../libDaisy//src/per/uart.h **** #ifndef DSY_UART_H
  10:../../libDaisy//src/per/uart.h **** #define DSY_UART_H /**< macro */
  11:../../libDaisy//src/per/uart.h **** #include "daisy_core.h"
  12:../../libDaisy//src/per/uart.h **** 
  13:../../libDaisy//src/per/uart.h **** 
  14:../../libDaisy//src/per/uart.h **** namespace daisy
  15:../../libDaisy//src/per/uart.h **** {
  16:../../libDaisy//src/per/uart.h **** /** @addtogroup serial
  17:../../libDaisy//src/per/uart.h ****     @{
  18:../../libDaisy//src/per/uart.h ****     */
  19:../../libDaisy//src/per/uart.h **** 
  20:../../libDaisy//src/per/uart.h **** /** 
  21:../../libDaisy//src/per/uart.h ****     Uart Peripheral
  22:../../libDaisy//src/per/uart.h ****     @author shensley
  23:../../libDaisy//src/per/uart.h ****     @date March 2020
  24:../../libDaisy//src/per/uart.h ****     */
  25:../../libDaisy//src/per/uart.h **** class UartHandler
  26:../../libDaisy//src/per/uart.h **** {
  27:../../libDaisy//src/per/uart.h ****   public:
  28:../../libDaisy//src/per/uart.h ****     struct Config
  29:../../libDaisy//src/per/uart.h ****     {
  30:../../libDaisy//src/per/uart.h ****         enum class Peripheral
  31:../../libDaisy//src/per/uart.h ****         {
  32:../../libDaisy//src/per/uart.h ****             USART_1,
  33:../../libDaisy//src/per/uart.h ****             USART_2,
  34:../../libDaisy//src/per/uart.h ****             USART_3,
  35:../../libDaisy//src/per/uart.h ****             UART_4,
  36:../../libDaisy//src/per/uart.h ****             UART_5,
  37:../../libDaisy//src/per/uart.h ****             USART_6,
  38:../../libDaisy//src/per/uart.h ****             UART_7,
  39:../../libDaisy//src/per/uart.h ****             UART_8,
  40:../../libDaisy//src/per/uart.h ****             LPUART_1,
  41:../../libDaisy//src/per/uart.h ****         };
  42:../../libDaisy//src/per/uart.h **** 
  43:../../libDaisy//src/per/uart.h ****         enum class StopBits
  44:../../libDaisy//src/per/uart.h ****         {
  45:../../libDaisy//src/per/uart.h ****             BITS_0_5,
  46:../../libDaisy//src/per/uart.h ****             BITS_1,
  47:../../libDaisy//src/per/uart.h ****             BITS_1_5,
  48:../../libDaisy//src/per/uart.h ****             BITS_2,
  49:../../libDaisy//src/per/uart.h ****         };
  50:../../libDaisy//src/per/uart.h **** 
  51:../../libDaisy//src/per/uart.h ****         enum class Parity
  52:../../libDaisy//src/per/uart.h ****         {
  53:../../libDaisy//src/per/uart.h ****             NONE,
  54:../../libDaisy//src/per/uart.h ****             EVEN,
  55:../../libDaisy//src/per/uart.h ****             ODD,
  56:../../libDaisy//src/per/uart.h ****         };
  57:../../libDaisy//src/per/uart.h **** 
  58:../../libDaisy//src/per/uart.h ****         enum class Mode
  59:../../libDaisy//src/per/uart.h ****         {
  60:../../libDaisy//src/per/uart.h ****             RX,
  61:../../libDaisy//src/per/uart.h ****             TX,
  62:../../libDaisy//src/per/uart.h ****             TX_RX,
  63:../../libDaisy//src/per/uart.h ****         };
  64:../../libDaisy//src/per/uart.h **** 
  65:../../libDaisy//src/per/uart.h ****         enum class WordLength
ARM GAS  /var/folders/ky/97y1n_614tj15gjp3pmt3wd00000gn/T//cczhqtVy.s 			page 31


  66:../../libDaisy//src/per/uart.h ****         {
  67:../../libDaisy//src/per/uart.h ****             BITS_7,
  68:../../libDaisy//src/per/uart.h ****             BITS_8,
  69:../../libDaisy//src/per/uart.h ****             BITS_9,
  70:../../libDaisy//src/per/uart.h ****         };
  71:../../libDaisy//src/per/uart.h **** 
  72:../../libDaisy//src/per/uart.h ****         struct
  73:../../libDaisy//src/per/uart.h ****         {
  74:../../libDaisy//src/per/uart.h ****             dsy_gpio_pin tx; /**< & */
  75:../../libDaisy//src/per/uart.h ****             dsy_gpio_pin rx; /**< & */
  76:../../libDaisy//src/per/uart.h ****         } pin_config;        /**< & */
  77:../../libDaisy//src/per/uart.h **** 
  78:../../libDaisy//src/per/uart.h ****         Config()
  79:../../libDaisy//src/per/uart.h ****         {
  80:../../libDaisy//src/per/uart.h ****             // user must init periph, pin_config, and mode
  81:../../libDaisy//src/per/uart.h ****             stopbits   = StopBits::BITS_1;
  82:../../libDaisy//src/per/uart.h ****             parity     = Parity::NONE;
  83:../../libDaisy//src/per/uart.h ****             wordlength = WordLength::BITS_8;
  84:../../libDaisy//src/per/uart.h ****             baudrate   = 4800;
  85:../../libDaisy//src/per/uart.h ****             // baudrate   = 31250;
  86:../../libDaisy//src/per/uart.h ****         }
  87:../../libDaisy//src/per/uart.h **** 
  88:../../libDaisy//src/per/uart.h ****         Peripheral periph;
  89:../../libDaisy//src/per/uart.h ****         StopBits   stopbits;
  90:../../libDaisy//src/per/uart.h ****         Parity     parity;
  91:../../libDaisy//src/per/uart.h ****         Mode       mode;
  92:../../libDaisy//src/per/uart.h ****         WordLength wordlength;
  93:../../libDaisy//src/per/uart.h ****         uint32_t   baudrate;
  94:../../libDaisy//src/per/uart.h ****     };
  95:../../libDaisy//src/per/uart.h **** 
  96:../../libDaisy//src/per/uart.h **** 
  97:../../libDaisy//src/per/uart.h ****     UartHandler() : pimpl_(nullptr) {}
 652              		.loc 16 97 5 view .LVU157
 653              	.LBB403:
 654              	.LBB404:
 655              		.loc 16 97 35 is_stmt 0 view .LVU158
 656 001c C0F87C21 		str	r2, [r0, #380]
 657              	.LVL30:
 658              		.loc 16 97 35 view .LVU159
 659              	.LBE404:
 660              	.LBE403:
 661              	.LBE402:
 662              	.LBB405:
 663              	.LBI405:
 664              		.file 17 "../../libDaisy//src/util/ringbuffer.h"
   1:../../libDaisy//src/util/ringbuffer.h **** #pragma once
   2:../../libDaisy//src/util/ringbuffer.h **** #ifndef DSY_RINGBUFFER_H
   3:../../libDaisy//src/util/ringbuffer.h **** #define DSY_RINGBUFFER_H
   4:../../libDaisy//src/util/ringbuffer.h **** 
   5:../../libDaisy//src/util/ringbuffer.h **** #include <algorithm>
   6:../../libDaisy//src/util/ringbuffer.h **** 
   7:../../libDaisy//src/util/ringbuffer.h **** namespace daisy
   8:../../libDaisy//src/util/ringbuffer.h **** {
   9:../../libDaisy//src/util/ringbuffer.h **** /** @addtogroup utility
  10:../../libDaisy//src/util/ringbuffer.h ****     @{
  11:../../libDaisy//src/util/ringbuffer.h **** */
  12:../../libDaisy//src/util/ringbuffer.h **** 
ARM GAS  /var/folders/ky/97y1n_614tj15gjp3pmt3wd00000gn/T//cczhqtVy.s 			page 32


  13:../../libDaisy//src/util/ringbuffer.h **** /**
  14:../../libDaisy//src/util/ringbuffer.h **** Utility Ring Buffer \n 
  15:../../libDaisy//src/util/ringbuffer.h **** imported from pichenettes/stmlib
  16:../../libDaisy//src/util/ringbuffer.h **** */
  17:../../libDaisy//src/util/ringbuffer.h **** template <typename T, size_t size>
  18:../../libDaisy//src/util/ringbuffer.h **** class RingBuffer
  19:../../libDaisy//src/util/ringbuffer.h **** {
  20:../../libDaisy//src/util/ringbuffer.h ****   public:
  21:../../libDaisy//src/util/ringbuffer.h ****     RingBuffer() {}
 665              		.loc 17 21 5 is_stmt 1 view .LVU160
 666              		.loc 17 21 5 is_stmt 0 view .LVU161
 667              	.LBE405:
 668              	.LBB406:
 669              	.LBI388:
  86:../../libDaisy//src/hid/midi.h **** 
  87:../../libDaisy//src/hid/midi.h ****     struct Config
 670              		.loc 2 87 12 is_stmt 1 view .LVU162
 671              	.LBB399:
 672              	.LBI389:
  34:../../libDaisy//src/hid/midi.h ****         {
 673              		.loc 2 34 9 view .LVU163
 674              	.LBB396:
 675              	.LBB393:
  36:../../libDaisy//src/hid/midi.h ****             rx     = {DSY_GPIOB, 7};
 676              		.loc 2 36 13 view .LVU164
  36:../../libDaisy//src/hid/midi.h ****             rx     = {DSY_GPIOB, 7};
 677              		.loc 2 36 20 is_stmt 0 view .LVU165
 678 0020 C3F82422 		str	r2, [r3, #548]
  37:../../libDaisy//src/hid/midi.h ****             tx     = {DSY_GPIOB, 6};
 679              		.loc 2 37 13 is_stmt 1 view .LVU166
  38:../../libDaisy//src/hid/midi.h ****         }
 680              		.loc 2 38 20 is_stmt 0 view .LVU167
 681 0024 A3F82AC2 		strh	ip, [r3, #554]	@ movhi
 682              	.LBE393:
 683              	.LBE396:
 684              	.LBE399:
 685              	.LBE406:
  84:../../libDaisy//src/hid/midi.h ****     ~MidiHandler() {}
 686              		.loc 2 84 19 view .LVU168
 687 0028 4FF0070C 		mov	ip, #7
 688              	.LBB407:
 689              	.LBB408:
 690              	.LBB409:
 691              	.LBB410:
 692              		.loc 16 97 35 view .LVU169
 693 002c C3F82C22 		str	r2, [r3, #556]
 694              	.LBE410:
 695              	.LBE409:
 696              	.LBE408:
 697              	.LBE407:
  84:../../libDaisy//src/hid/midi.h ****     ~MidiHandler() {}
 698              		.loc 2 84 19 view .LVU170
 699 0030 4FF60F02 		movw	r2, #63503
 700 0034 C3F83012 		str	r1, [r3, #560]
 701 0038 A3F83422 		strh	r2, [r3, #564]	@ movhi
 702 003c 83F836C2 		strb	ip, [r3, #566]
 703              	.LBB412:
ARM GAS  /var/folders/ky/97y1n_614tj15gjp3pmt3wd00000gn/T//cczhqtVy.s 			page 33


 704              	.LBB400:
 705              	.LBB397:
 706              	.LBB394:
  37:../../libDaisy//src/hid/midi.h ****             tx     = {DSY_GPIOB, 6};
 707              		.loc 2 37 20 view .LVU171
 708 0040 A3F828E2 		strh	lr, [r3, #552]	@ movhi
  38:../../libDaisy//src/hid/midi.h ****         }
 709              		.loc 2 38 13 is_stmt 1 view .LVU172
 710              	.LVL31:
  38:../../libDaisy//src/hid/midi.h ****         }
 711              		.loc 2 38 13 is_stmt 0 view .LVU173
 712              	.LBE394:
 713              	.LBE397:
 714              	.LBE400:
 715              	.LBE412:
 716              	.LBB413:
 717              	.LBI407:
  25:../../libDaisy//src/hid/midi.h ****     ~MidiUartTransport() {}
 718              		.loc 2 25 5 is_stmt 1 view .LVU174
 719              	.LBB411:
 720              	.LBI408:
 721              		.loc 16 97 5 view .LVU175
 722              		.loc 16 97 5 is_stmt 0 view .LVU176
 723              	.LBE411:
 724              	.LBE413:
 725              	.LBE416:
 726              	.LBE419:
 727              	.LBE441:
 728              	.LBE442:
 729              	.LBE443:
   8:MyProj.cpp    **** tCycle mySine;
 730              		.loc 13 8 10 view .LVU177
 731 0044 054A     		ldr	r2, .L24+12
 732 0046 0649     		ldr	r1, .L24+16
 733              	.LBE444:
 734              	.LBE446:
 735              		.loc 13 46 1 view .LVU178
 736 0048 5DF804EB 		ldr	lr, [sp], #4
 737              		.cfi_restore 14
 738              		.cfi_def_cfa_offset 0
 739              	.LBB447:
 740              	.LBB445:
   8:MyProj.cpp    **** tCycle mySine;
 741              		.loc 13 8 10 view .LVU179
 742 004c FFF7FEBF 		b	__aeabi_atexit
 743              	.LVL32:
 744              	.L25:
 745              		.align	2
 746              	.L24:
 747 0050 00000000 		.word	hw
 748 0054 00000000 		.word	.LANCHOR2
 749 0058 80707FF0 		.word	-260083584
 750 005c 00000000 		.word	__dso_handle
 751 0060 00000000 		.word	_ZN5daisy8DaisyPodD1Ev
 752              	.LBE445:
 753              	.LBE447:
 754              		.cfi_endproc
ARM GAS  /var/folders/ky/97y1n_614tj15gjp3pmt3wd00000gn/T//cczhqtVy.s 			page 34


 755              	.LFE2571:
 757              		.section	.init_array,"aw",%init_array
 758              		.align	2
 759 0000 00000000 		.word	_GLOBAL__sub_I_leaf(target1)
 760              		.global	mySine
 761              		.global	hw
 762              		.global	leafMemory
 763              		.global	leaf
 764              		.section	.rodata
 765              		.align	2
 766              		.set	.LANCHOR2,. + 0
 767              	.LC0:
 768 0000 01       		.byte	1
 769 0001 07       		.byte	7
 770 0002 0000     		.space	2
 771              	.LC1:
 772 0004 01       		.byte	1
 773 0005 06       		.byte	6
 774              		.section	.bss.hw,"aw",%nobits
 775              		.align	2
 778              	hw:
 779 0000 00000000 		.space	37432
 779      00000000 
 779      00000000 
 779      00000000 
 779      00000000 
 780              		.section	.bss.leaf,"aw",%nobits
 781              		.align	2
 782              		.set	.LANCHOR1,. + 0
 785              	leaf:
 786 0000 00000000 		.space	80
 786      00000000 
 786      00000000 
 786      00000000 
 786      00000000 
 787              		.section	.bss.leafMemory,"aw",%nobits
 788              		.align	2
 791              	leafMemory:
 792 0000 00000000 		.space	65535
 792      00000000 
 792      00000000 
 792      00000000 
 792      00000000 
 793              		.section	.bss.mySine,"aw",%nobits
 794              		.align	2
 795              		.set	.LANCHOR0,. + 0
 798              	mySine:
 799 0000 00000000 		.space	4
 800              		.text
 801              	.Letext0:
 802              		.file 18 "/Library/DaisyToolchain/0.2.0/arm/arm-none-eabi/include/machine/_default_types.h"
 803              		.file 19 "/Library/DaisyToolchain/0.2.0/arm/arm-none-eabi/include/sys/_stdint.h"
 804              		.file 20 "/Library/DaisyToolchain/0.2.0/arm/arm-none-eabi/include/stdint.h"
 805              		.file 21 "/Library/DaisyToolchain/0.2.0/arm/lib/gcc/arm-none-eabi/10.3.1/include/stddef.h"
 806              		.file 22 "/Library/DaisyToolchain/0.2.0/arm/arm-none-eabi/include/c++/10.3.1/cmath"
 807              		.file 23 "/Library/DaisyToolchain/0.2.0/arm/arm-none-eabi/include/c++/10.3.1/bits/std_abs.h"
 808              		.file 24 "/Library/DaisyToolchain/0.2.0/arm/arm-none-eabi/include/c++/10.3.1/cstdlib"
ARM GAS  /var/folders/ky/97y1n_614tj15gjp3pmt3wd00000gn/T//cczhqtVy.s 			page 35


 809              		.file 25 "/Library/DaisyToolchain/0.2.0/arm/arm-none-eabi/include/c++/10.3.1/cstdint"
 810              		.file 26 "/Library/DaisyToolchain/0.2.0/arm/arm-none-eabi/include/c++/10.3.1/type_traits"
 811              		.file 27 "/Library/DaisyToolchain/0.2.0/arm/arm-none-eabi/include/c++/10.3.1/debug/debug.h"
 812              		.file 28 "/Library/DaisyToolchain/0.2.0/arm/arm-none-eabi/include/c++/10.3.1/arm-none-eabi/thumb/v
 813              		.file 29 "/Library/DaisyToolchain/0.2.0/arm/arm-none-eabi/include/c++/10.3.1/bits/algorithmfwd.h"
 814              		.file 30 "/Library/DaisyToolchain/0.2.0/arm/arm-none-eabi/include/c++/10.3.1/bits/stl_pair.h"
 815              		.file 31 "/Library/DaisyToolchain/0.2.0/arm/arm-none-eabi/include/c++/10.3.1/bits/exception_ptr.h"
 816              		.file 32 "/Library/DaisyToolchain/0.2.0/arm/arm-none-eabi/include/c++/10.3.1/cstdarg"
 817              		.file 33 "/Library/DaisyToolchain/0.2.0/arm/arm-none-eabi/include/c++/10.3.1/cstdio"
 818              		.file 34 "/Library/DaisyToolchain/0.2.0/arm/arm-none-eabi/include/c++/10.3.1/cstring"
 819              		.file 35 "/Library/DaisyToolchain/0.2.0/arm/arm-none-eabi/include/c++/10.3.1/bits/predefined_ops.h
 820              		.file 36 "/Library/DaisyToolchain/0.2.0/arm/arm-none-eabi/include/sys/_types.h"
 821              		.file 37 "/Library/DaisyToolchain/0.2.0/arm/arm-none-eabi/include/sys/reent.h"
 822              		.file 38 "/Library/DaisyToolchain/0.2.0/arm/arm-none-eabi/include/sys/lock.h"
 823              		.file 39 "/Library/DaisyToolchain/0.2.0/arm/arm-none-eabi/include/math.h"
 824              		.file 40 "/Library/DaisyToolchain/0.2.0/arm/arm-none-eabi/include/stdlib.h"
 825              		.file 41 "/Library/DaisyToolchain/0.2.0/arm/arm-none-eabi/include/c++/10.3.1/math.h"
 826              		.file 42 "/Library/DaisyToolchain/0.2.0/arm/arm-none-eabi/include/c++/10.3.1/stdlib.h"
 827              		.file 43 "../../libDaisy//src/daisy_core.h"
 828              		.file 44 "../../libDaisy//src/per/tim.h"
 829              		.file 45 "../../libDaisy//src/per/sai.h"
 830              		.file 46 "../../libDaisy//src/hid/MidiEvent.h"
 831              		.file 47 "../../libDaisy//src/per/rng.h"
 832              		.file 48 "../../libDaisy//src/util/wav_format.h"
 833              		.file 49 "../../libDaisy//src/util/color.h"
 834              		.file 50 "../../libDaisy//src/dev/max11300.h"
 835              		.file 51 "../../libDaisy//src/per/gpio.h"
 836              		.file 52 "../../libDaisy//src/dev/sdram.h"
 837              		.file 53 "/Library/DaisyToolchain/0.2.0/arm/lib/gcc/arm-none-eabi/10.3.1/include/stdarg.h"
 838              		.file 54 "/Library/DaisyToolchain/0.2.0/arm/arm-none-eabi/include/stdio.h"
 839              		.file 55 "/Library/DaisyToolchain/0.2.0/arm/arm-none-eabi/include/string.h"
 840              		.file 56 "../../../LEAF/leaf/./Inc/leaf-mempool.h"
 841              		.file 57 "../../../LEAF/leaf/./Inc/leaf-global.h"
 842              		.file 58 "../../../LEAF/leaf/./Inc/leaf-oscillators.h"
 843              		.file 59 "../../../LEAF/leaf/leaf.h"
 844              		.file 60 "<built-in>"
 845              		.file 61 "../../libDaisy//src/dev/sr_595.h"
ARM GAS  /var/folders/ky/97y1n_614tj15gjp3pmt3wd00000gn/T//cczhqtVy.s 			page 36

